
hello.RV64.bare.elf:     file format elf64-littleriscv
hello.RV64.bare.elf
architecture: riscv:rv64, flags 0x00000112:
EXEC_P, HAS_SYMS, D_PAGED
start address 0x0000000080000000

Program Header:
0x70000003 off    0x0000000000008c7d vaddr 0x0000000000000000 paddr 0x0000000000000000 align 2**0
         filesz 0x0000000000000034 memsz 0x0000000000000000 flags r--
    LOAD off    0x0000000000000000 vaddr 0x000000007ffff000 paddr 0x000000007ffff000 align 2**12
         filesz 0x000000000000105c memsz 0x000000000000105c flags r-x
    LOAD off    0x0000000000002000 vaddr 0x0000000080001000 paddr 0x0000000080001000 align 2**12
         filesz 0x0000000000006c50 memsz 0x0000000000006cd0 flags rwx

Sections:
Idx Name          Size      VMA               LMA               File off  Algn
  0 .text         00003b90  00000000800020e8  00000000800020e8  000030e8  2**2
                  CONTENTS, ALLOC, LOAD, READONLY, CODE
  1 .rodata       00000012  0000000080005c78  0000000080005c78  00006c78  2**3
                  CONTENTS, ALLOC, LOAD, READONLY, DATA
  2 .eh_frame     00000004  0000000080006c8c  0000000080006c8c  00007c8c  2**2
                  CONTENTS, ALLOC, LOAD, DATA
  3 .init_array   00000018  0000000080006c90  0000000080006c90  00007c90  2**3
                  CONTENTS, ALLOC, LOAD, DATA
  4 .fini_array   00000008  0000000080006ca8  0000000080006ca8  00007ca8  2**3
                  CONTENTS, ALLOC, LOAD, DATA
  5 .data         00000f58  0000000080006cb0  0000000080006cb0  00007cb0  2**3
                  CONTENTS, ALLOC, LOAD, DATA
  6 .sdata        00000048  0000000080007c08  0000000080007c08  00008c08  2**3
                  CONTENTS, ALLOC, LOAD, DATA
  7 .sbss         0000001c  0000000080007c50  0000000080007c50  00008c50  2**3
                  ALLOC
  8 .bss          00000060  0000000080007c70  0000000080007c70  00008c50  2**3
                  ALLOC
  9 .text.init    0000005c  0000000080000000  0000000080000000  00001000  2**0
                  CONTENTS, ALLOC, LOAD, READONLY, CODE
 10 .tohost       00000008  0000000080001000  0000000080001000  00002000  2**6
                  CONTENTS, ALLOC, LOAD, DATA
 11 .comment      0000002d  0000000000000000  0000000000000000  00008c50  2**0
                  CONTENTS, READONLY
 12 .riscv.attributes 00000034  0000000000000000  0000000000000000  00008c7d  2**0
                  CONTENTS, READONLY
 13 .debug_aranges 000000f0  0000000000000000  0000000000000000  00008cc0  2**4
                  CONTENTS, READONLY, DEBUGGING, OCTETS
 14 .debug_info   00000dd7  0000000000000000  0000000000000000  00008db0  2**0
                  CONTENTS, READONLY, DEBUGGING, OCTETS
 15 .debug_abbrev 00000478  0000000000000000  0000000000000000  00009b87  2**0
                  CONTENTS, READONLY, DEBUGGING, OCTETS
 16 .debug_line   000007d8  0000000000000000  0000000000000000  00009fff  2**0
                  CONTENTS, READONLY, DEBUGGING, OCTETS
 17 .debug_frame  00000580  0000000000000000  0000000000000000  0000a7d8  2**3
                  CONTENTS, READONLY, DEBUGGING, OCTETS
 18 .debug_str    0000057d  0000000000000000  0000000000000000  0000ad58  2**0
                  CONTENTS, READONLY, DEBUGGING, OCTETS
 19 .debug_line_str 000001c6  0000000000000000  0000000000000000  0000b2d5  2**0
                  CONTENTS, READONLY, DEBUGGING, OCTETS
SYMBOL TABLE:
00000000800020e8 l    d  .text	0000000000000000 .text
0000000080005c78 l    d  .rodata	0000000000000000 .rodata
0000000080006c8c l    d  .eh_frame	0000000000000000 .eh_frame
0000000080006c90 l    d  .init_array	0000000000000000 .init_array
0000000080006ca8 l    d  .fini_array	0000000000000000 .fini_array
0000000080006cb0 l    d  .data	0000000000000000 .data
0000000080007c08 l    d  .sdata	0000000000000000 .sdata
0000000080007c50 l    d  .sbss	0000000000000000 .sbss
0000000080007c70 l    d  .bss	0000000000000000 .bss
0000000080000000 l    d  .text.init	0000000000000000 .text.init
0000000080001000 l    d  .tohost	0000000000000000 .tohost
0000000000000000 l    d  .comment	0000000000000000 .comment
0000000000000000 l    d  .riscv.attributes	0000000000000000 .riscv.attributes
0000000000000000 l    d  .debug_aranges	0000000000000000 .debug_aranges
0000000000000000 l    d  .debug_info	0000000000000000 .debug_info
0000000000000000 l    d  .debug_abbrev	0000000000000000 .debug_abbrev
0000000000000000 l    d  .debug_line	0000000000000000 .debug_line
0000000000000000 l    d  .debug_frame	0000000000000000 .debug_frame
0000000000000000 l    d  .debug_str	0000000000000000 .debug_str
0000000000000000 l    d  .debug_line_str	0000000000000000 .debug_line_str
0000000000000000 l    df *ABS*	0000000000000000 exit.c
0000000000000000 l    df *ABS*	0000000000000000 __call_atexit.c
0000000080002118 l     F .text	0000000000000018 register_fini
0000000000000000 l    df *ABS*	0000000000000000 crt0.o
0000000000000000 l    df *ABS*	0000000000000000 crtstuff.c
0000000080002180 l     F .text	0000000000000000 __do_global_dtors_aux
0000000080007c70 l     O .bss	0000000000000001 completed.1
0000000080006ca8 l     O .fini_array	0000000000000000 __do_global_dtors_aux_fini_array_entry
00000000800021c8 l     F .text	0000000000000000 frame_dummy
0000000080007c78 l     O .bss	0000000000000030 object.0
0000000080006c98 l     O .init_array	0000000000000000 __frame_dummy_init_array_entry
0000000000000000 l    df *ABS*	0000000000000000 startup.o
000000008000004c l       .text.init	0000000000000000 zinit
0000000000000000 l    df *ABS*	0000000000000000 hello.c
0000000000000000 l    df *ABS*	0000000000000000 syscalls.c
0000000000000000 l    df *ABS*	0000000000000000 ns16550.c
0000000080007c30 l     O .sdata	0000000000000008 pio
00000000800026e4 l     F .text	00000000000000dc ns16550_init
0000000000000000 l    df *ABS*	0000000000000000 riscv_counters.c
0000000000000000 l    df *ABS*	0000000000000000 errno.c
0000000000000000 l    df *ABS*	0000000000000000 impure.c
0000000080006cb0 l     O .data	0000000000000748 impure_data
0000000000000000 l    df *ABS*	0000000000000000 init.c
0000000000000000 l    df *ABS*	0000000000000000 lib_a-memset.o
0000000000000000 l    df *ABS*	0000000000000000 puts.c
0000000000000000 l    df *ABS*	0000000000000000 strlen.c
0000000000000000 l    df *ABS*	0000000000000000 findfp.c
0000000080002f10 l     F .text	0000000000000008 __fp_lock
0000000080002f24 l     F .text	0000000000000008 __fp_unlock
0000000080002f2c l     F .text	0000000000000178 __sinit.part.0
0000000000000000 l    df *ABS*	0000000000000000 fini.c
0000000000000000 l    df *ABS*	0000000000000000 fvwrite.c
0000000000000000 l    df *ABS*	0000000000000000 fwalk.c
0000000000000000 l    df *ABS*	0000000000000000 mallocr.c
0000000000000000 l    df *ABS*	0000000000000000 memchr.c
0000000000000000 l    df *ABS*	0000000000000000 memcpy.c
0000000000000000 l    df *ABS*	0000000000000000 memmove-stub.c
0000000000000000 l    df *ABS*	0000000000000000 mlock.c
0000000000000000 l    df *ABS*	0000000000000000 mallocr.c
0000000000000000 l    df *ABS*	0000000000000000 sbrkr.c
0000000000000000 l    df *ABS*	0000000000000000 stdio.c
0000000000000000 l    df *ABS*	0000000000000000 writer.c
0000000000000000 l    df *ABS*	0000000000000000 wsetup.c
0000000000000000 l    df *ABS*	0000000000000000 atexit.c
0000000000000000 l    df *ABS*	0000000000000000 closer.c
0000000000000000 l    df *ABS*	0000000000000000 fclose.c
0000000000000000 l    df *ABS*	0000000000000000 fflush.c
0000000000000000 l    df *ABS*	0000000000000000 mallocr.c
0000000000000000 l    df *ABS*	0000000000000000 lseekr.c
0000000000000000 l    df *ABS*	0000000000000000 makebuf.c
0000000000000000 l    df *ABS*	0000000000000000 readr.c
0000000000000000 l    df *ABS*	0000000000000000 reent.c
0000000000000000 l    df *ABS*	0000000000000000 __atexit.c
0000000000000000 l    df *ABS*	0000000000000000 fstatr.c
0000000000000000 l    df *ABS*	0000000000000000 isattyr.c
0000000000000000 l    df *ABS*	0000000000000000 _exit.c
0000000000000000 l    df *ABS*	0000000000000000 crtstuff.c
0000000080006c8c l     O .eh_frame	0000000000000000 __FRAME_END__
0000000080006cb0 l       .fini_array	0000000000000000 __fini_array_end
0000000080006ca8 l       .fini_array	0000000000000000 __fini_array_start
0000000080006ca8 l       .init_array	0000000000000000 __init_array_end
0000000080006c90 l       .init_array	0000000000000000 __preinit_array_end
0000000080006c90 l       .init_array	0000000000000000 __init_array_start
0000000080006c90 l       .init_array	0000000000000000 __preinit_array_start
0000000080005c24 g     F .text	0000000000000050 _isatty_r
0000000080005974 g     F .text	0000000000000094 cleanup_glue
00000000800026bc g     F .text	0000000000000028 _getpid
0000000080002c3c g     F .text	00000000000000d4 _puts_r
0000000080005654 g     F .text	000000000000005c _lseek_r
0000000080002a80 g     F .text	0000000000000044 io_write64
00000000800074d0 g       *ABS*	0000000000000000 __global_pointer$
0000000080004b34 g     F .text	0000000000000078 __sseek
0000000080003250 g     F .text	0000000000000010 __sinit
00000000800030a4 g     F .text	000000000000006c __sfmoreglue
0000000080004494 g     F .text	0000000000000004 __malloc_unlock
0000000080004374 g     F .text	000000000000011c memmove
0000000080003240 g     F .text	0000000000000010 _cleanup
0000000080002994 g     F .text	000000000000002c addr_to_pointer
0000000080002ac4 g     F .text	0000000000000008 __errno
00000000800028fc g     F .text	0000000000000028 read_cycle
0000000080005bcc g     F .text	0000000000000058 _fstat_r
0000000080007c68 g     O .sbss	0000000000000004 errno
0000000080004aa4 g     F .text	0000000000000008 __seofread
0000000080007c08 g       .sdata	0000000000000000 __SDATA_BEGIN__
00000000800041d0 g     F .text	00000000000001a4 memcpy
0000000080002a44 g     F .text	000000000000003c io_read64
0000000080002f18 g     F .text	000000000000000c _cleanup_r
0000000080002d10 g     F .text	000000000000000c puts
00000000800027c0 g     F .text	0000000000000044 ns16550_rxready
00000000800025ec g     F .text	0000000000000044 _fstat
00000000800023d0 g     F .text	0000000000000074 sleep
0000000080007c60 g     O .sbss	0000000000000008 __malloc_top_pad
0000000080002858 g     F .text	0000000000000060 ns16550_txchar
0000000080007c28 g     O .sdata	0000000000000000 .hidden __dso_handle
00000000800032ec g     F .text	00000000000004a8 __sfvwrite_r
00000000800049f8 g     F .text	0000000000000050 _sbrk_r
0000000080005918 g     F .text	000000000000005c _read_r
0000000080004db4 g     F .text	0000000000000110 _fclose_r
000000008000517c g     F .text	000000000000007c fflush
0000000080007c58 g     O .sbss	0000000000000008 __malloc_max_sbrked_mem
0000000080002630 g     F .text	0000000000000040 _isatty
0000000080007c20 g     O .sdata	0000000000000008 _global_impure_ptr
0000000080004498 g     F .text	0000000000000560 _realloc_r
0000000080002acc g     F .text	0000000000000094 __libc_init_array
0000000080002444 g     F .text	0000000000000040 _sbrk
0000000080003270 g     F .text	0000000000000010 __fp_lock_all
0000000080002924 g     F .text	0000000000000028 read_time
0000000080003290 g     F .text	000000000000005c __libc_fini_array
0000000080005a08 g     F .text	000000000000011c _reclaim_reent
00000000800022d8 g     F .text	0000000000000088 write
0000000080003260 g     F .text	0000000000000004 __sfp_lock_acquire
0000000080004104 g     F .text	00000000000000cc memchr
0000000080005334 g     F .text	0000000000000320 _free_r
0000000080002de8 g     F .text	0000000000000128 __call_exitprocs
0000000080007c40 g     O .sdata	0000000000000008 __malloc_sbrk_base
0000000080002130 g     F .text	0000000000000050 _start
000000008000254c g     F .text	0000000000000050 _lseek
000000008000222c g     F .text	00000000000000ac read
0000000080005b24 g     F .text	00000000000000a8 __register_exitproc
00000000800029fc g     F .text	0000000000000048 io_write32
000000008000294c g     F .text	0000000000000028 read_instret
0000000080007ca8 g     O .bss	0000000000000028 __malloc_current_mallinfo
0000000080004d64 g     F .text	0000000000000050 _close_r
0000000080004c10 g     F .text	0000000000000140 __swsetup_r
0000000080003110 g     F .text	0000000000000130 __sfp
0000000080007cd0 g       .tohost	0000000000000000 __BSS_END__
00000000800029c0 g     F .text	000000000000003c io_read32
00000000800073f8 g     O .data	0000000000000810 __malloc_av_
000000008000326c g     F .text	0000000000000004 __sinit_lock_release
0000000080004a48 g     F .text	000000000000005c __sread
0000000080004490 g     F .text	0000000000000004 __malloc_lock
000000008000511c g     F .text	0000000000000060 _fflush_r
0000000080002360 g     F .text	0000000000000070 gettimeofday
0000000080007c50 g       .sbss	0000000000000000 __bss_start
0000000080002b60 g     F .text	00000000000000dc memset
00000000800021ec g     F .text	0000000000000040 main
0000000080007c50 g     O .sbss	0000000000000008 __malloc_max_total_mem
0000000080004bac g     F .text	0000000000000008 __sclose
0000000080004ec4 g     F .text	000000000000000c fclose
000000008000391c g     F .text	00000000000007e8 _malloc_r
0000000080003794 g     F .text	00000000000000bc _fwalk
00000000800051f8 g     F .text	000000000000013c _malloc_trim_r
0000000080004d50 g     F .text	0000000000000014 atexit
0000000080004bb4 g     F .text	000000000000005c _write_r
0000000080007c38 g     O .sdata	0000000000000008 _impure_ptr
0000000080004ed0 g     F .text	000000000000024c __sflush_r
0000000080002974 g     F .text	0000000000000020 fence
0000000080003280 g     F .text	0000000000000010 __fp_unlock_all
0000000080007cd0 g       .bss	0000000000000000 __startup_save
0000000080005840 g     F .text	00000000000000d8 __swhatbuf_r
0000000080006cb0 g       .data	0000000000000000 __DATA_BEGIN__
0000000080000000 g       .text.init	0000000000000000 _reset
0000000080002484 g     F .text	0000000000000088 _write
0000000080007c50 g       .sdata	0000000000000000 _edata
0000000080007cd0 g       .tohost	0000000000000000 _end
0000000080001000 g       .tohost	0000000000000000 tohost
0000000080004aac g     F .text	0000000000000088 __swrite
0000000080007c48 g     O .sdata	0000000000000008 __malloc_trim_threshold
00000000800020e8 g     F .text	0000000000000030 exit
0000000080003850 g     F .text	00000000000000cc _fwalk_reent
0000000080002670 g     F .text	000000000000004c _kill
0000000080003264 g     F .text	0000000000000004 __sfp_lock_release
000000008000259c g     F .text	0000000000000050 _read
0000000080005c74 g     F .text	0000000000000004 _exit
00000000800056b0 g     F .text	0000000000000190 __smakebuf_r
0000000080002d1c g     F .text	00000000000000cc strlen
00000000800028b8 g     F .text	0000000000000044 ns16550_flush
0000000080002804 g     F .text	0000000000000054 ns16550_rxchar
000000008000250c g     F .text	0000000000000040 _close
0000000080003268 g     F .text	0000000000000004 __sinit_lock_acquire



Disassembly of section .text:

00000000800020e8 <exit>:
    800020e8:	ff010113          	addi	sp,sp,-16
    800020ec:	00000593          	li	a1,0
    800020f0:	00813023          	sd	s0,0(sp)
    800020f4:	00113423          	sd	ra,8(sp)
    800020f8:	00050413          	mv	s0,a0
    800020fc:	4ed000ef          	jal	ra,80002de8 <__call_exitprocs>
    80002100:	7501b503          	ld	a0,1872(gp) # 80007c20 <_global_impure_ptr>
    80002104:	05853783          	ld	a5,88(a0)
    80002108:	00078463          	beqz	a5,80002110 <exit+0x28>
    8000210c:	000780e7          	jalr	a5
    80002110:	00040513          	mv	a0,s0
    80002114:	361030ef          	jal	ra,80005c74 <_exit>

0000000080002118 <register_fini>:
    80002118:	00000793          	li	a5,0
    8000211c:	00078863          	beqz	a5,8000212c <register_fini+0x14>
    80002120:	00001517          	auipc	a0,0x1
    80002124:	17050513          	addi	a0,a0,368 # 80003290 <__libc_fini_array>
    80002128:	4290206f          	j	80004d50 <atexit>
    8000212c:	00008067          	ret

0000000080002130 <_start>:
    80002130:	00005197          	auipc	gp,0x5
    80002134:	3a018193          	addi	gp,gp,928 # 800074d0 <__global_pointer$>
    80002138:	78018513          	addi	a0,gp,1920 # 80007c50 <__malloc_max_total_mem>
    8000213c:	00006617          	auipc	a2,0x6
    80002140:	b9460613          	addi	a2,a2,-1132 # 80007cd0 <__BSS_END__>
    80002144:	40a60633          	sub	a2,a2,a0
    80002148:	00000593          	li	a1,0
    8000214c:	215000ef          	jal	ra,80002b60 <memset>
    80002150:	00003517          	auipc	a0,0x3
    80002154:	c0050513          	addi	a0,a0,-1024 # 80004d50 <atexit>
    80002158:	00050863          	beqz	a0,80002168 <_start+0x38>
    8000215c:	00001517          	auipc	a0,0x1
    80002160:	13450513          	addi	a0,a0,308 # 80003290 <__libc_fini_array>
    80002164:	3ed020ef          	jal	ra,80004d50 <atexit>
    80002168:	165000ef          	jal	ra,80002acc <__libc_init_array>
    8000216c:	00012503          	lw	a0,0(sp)
    80002170:	00810593          	addi	a1,sp,8
    80002174:	00000613          	li	a2,0
    80002178:	074000ef          	jal	ra,800021ec <main>
    8000217c:	f6dff06f          	j	800020e8 <exit>

0000000080002180 <__do_global_dtors_aux>:
    80002180:	ff010113          	addi	sp,sp,-16
    80002184:	00813023          	sd	s0,0(sp)
    80002188:	7a018413          	addi	s0,gp,1952 # 80007c70 <completed.1>
    8000218c:	00044783          	lbu	a5,0(s0)
    80002190:	00113423          	sd	ra,8(sp)
    80002194:	02079263          	bnez	a5,800021b8 <__do_global_dtors_aux+0x38>
    80002198:	00000793          	li	a5,0
    8000219c:	00078a63          	beqz	a5,800021b0 <__do_global_dtors_aux+0x30>
    800021a0:	00005517          	auipc	a0,0x5
    800021a4:	aec50513          	addi	a0,a0,-1300 # 80006c8c <__FRAME_END__>
    800021a8:	00000097          	auipc	ra,0x0
    800021ac:	000000e7          	jalr	zero # 0 <_reset-0x80000000>
    800021b0:	00100793          	li	a5,1
    800021b4:	00f40023          	sb	a5,0(s0)
    800021b8:	00813083          	ld	ra,8(sp)
    800021bc:	00013403          	ld	s0,0(sp)
    800021c0:	01010113          	addi	sp,sp,16
    800021c4:	00008067          	ret

00000000800021c8 <frame_dummy>:
    800021c8:	00000793          	li	a5,0
    800021cc:	00078e63          	beqz	a5,800021e8 <frame_dummy+0x20>
    800021d0:	00006597          	auipc	a1,0x6
    800021d4:	aa858593          	addi	a1,a1,-1368 # 80007c78 <object.0>
    800021d8:	00005517          	auipc	a0,0x5
    800021dc:	ab450513          	addi	a0,a0,-1356 # 80006c8c <__FRAME_END__>
    800021e0:	00000317          	auipc	t1,0x0
    800021e4:	00000067          	jr	zero # 0 <_reset-0x80000000>
    800021e8:	00008067          	ret

00000000800021ec <main>:
#include <stdio.h>

int main (int argc, char *argv[])
{
    800021ec:	fe010113          	addi	sp,sp,-32
    800021f0:	00113c23          	sd	ra,24(sp)
    800021f4:	00813823          	sd	s0,16(sp)
    800021f8:	02010413          	addi	s0,sp,32
    800021fc:	00050793          	mv	a5,a0
    80002200:	feb43023          	sd	a1,-32(s0)
    80002204:	fef42623          	sw	a5,-20(s0)
    printf ("Hello World!\n");
    80002208:	00004517          	auipc	a0,0x4
    8000220c:	a7050513          	addi	a0,a0,-1424 # 80005c78 <_exit+0x4>
    80002210:	301000ef          	jal	ra,80002d10 <puts>
    return 0;
    80002214:	00000793          	li	a5,0
}
    80002218:	00078513          	mv	a0,a5
    8000221c:	01813083          	ld	ra,24(sp)
    80002220:	01013403          	ld	s0,16(sp)
    80002224:	02010113          	addi	sp,sp,32
    80002228:	00008067          	ret

000000008000222c <read>:
#include <sys/time.h>
#include "ns16550.h"

#ifndef __linux__

int read(int file, char *ptr, int len) {
    8000222c:	fd010113          	addi	sp,sp,-48
    80002230:	02113423          	sd	ra,40(sp)
    80002234:	02813023          	sd	s0,32(sp)
    80002238:	03010413          	addi	s0,sp,48
    8000223c:	00050793          	mv	a5,a0
    80002240:	fcb43823          	sd	a1,-48(s0)
    80002244:	00060713          	mv	a4,a2
    80002248:	fcf42e23          	sw	a5,-36(s0)
    8000224c:	00070793          	mv	a5,a4
    80002250:	fcf42c23          	sw	a5,-40(s0)
  int todo;
  if(len == 0)
    80002254:	fd842783          	lw	a5,-40(s0)
    80002258:	0007879b          	sext.w	a5,a5
    8000225c:	00079663          	bnez	a5,80002268 <read+0x3c>
    return 0;
    80002260:	00000793          	li	a5,0
    80002264:	0600006f          	j	800022c4 <read+0x98>
#ifdef CONSOLE_UART
  todo = 0;
    80002268:	fe042623          	sw	zero,-20(s0)
  while (ns16550_rxready() && (todo < len)) {
    8000226c:	0300006f          	j	8000229c <read+0x70>
    *ptr++ = ns16550_rxchar();
    80002270:	594000ef          	jal	ra,80002804 <ns16550_rxchar>
    80002274:	00050793          	mv	a5,a0
    80002278:	00078693          	mv	a3,a5
    8000227c:	fd043783          	ld	a5,-48(s0)
    80002280:	00178713          	addi	a4,a5,1
    80002284:	fce43823          	sd	a4,-48(s0)
    80002288:	0ff6f713          	zext.b	a4,a3
    8000228c:	00e78023          	sb	a4,0(a5)
    todo++;
    80002290:	fec42783          	lw	a5,-20(s0)
    80002294:	0017879b          	addiw	a5,a5,1
    80002298:	fef42623          	sw	a5,-20(s0)
  while (ns16550_rxready() && (todo < len)) {
    8000229c:	524000ef          	jal	ra,800027c0 <ns16550_rxready>
    800022a0:	00050793          	mv	a5,a0
    800022a4:	00078e63          	beqz	a5,800022c0 <read+0x94>
    800022a8:	fec42783          	lw	a5,-20(s0)
    800022ac:	00078713          	mv	a4,a5
    800022b0:	fd842783          	lw	a5,-40(s0)
    800022b4:	0007071b          	sext.w	a4,a4
    800022b8:	0007879b          	sext.w	a5,a5
    800022bc:	faf74ae3          	blt	a4,a5,80002270 <read+0x44>
  }
#endif
  return todo;
    800022c0:	fec42783          	lw	a5,-20(s0)
}
    800022c4:	00078513          	mv	a0,a5
    800022c8:	02813083          	ld	ra,40(sp)
    800022cc:	02013403          	ld	s0,32(sp)
    800022d0:	03010113          	addi	sp,sp,48
    800022d4:	00008067          	ret

00000000800022d8 <write>:

int write(int file, char *ptr, int len) {
    800022d8:	fd010113          	addi	sp,sp,-48
    800022dc:	02113423          	sd	ra,40(sp)
    800022e0:	02813023          	sd	s0,32(sp)
    800022e4:	03010413          	addi	s0,sp,48
    800022e8:	00050793          	mv	a5,a0
    800022ec:	fcb43823          	sd	a1,-48(s0)
    800022f0:	00060713          	mv	a4,a2
    800022f4:	fcf42e23          	sw	a5,-36(s0)
    800022f8:	00070793          	mv	a5,a4
    800022fc:	fcf42c23          	sw	a5,-40(s0)
  int todo;

#ifdef CONSOLE_UART
  for (todo = 0; todo < len; todo++) {
    80002300:	fe042623          	sw	zero,-20(s0)
    80002304:	02c0006f          	j	80002330 <write+0x58>
    ns16550_txchar (*ptr++);
    80002308:	fd043783          	ld	a5,-48(s0)
    8000230c:	00178713          	addi	a4,a5,1
    80002310:	fce43823          	sd	a4,-48(s0)
    80002314:	0007c783          	lbu	a5,0(a5)
    80002318:	0007879b          	sext.w	a5,a5
    8000231c:	00078513          	mv	a0,a5
    80002320:	538000ef          	jal	ra,80002858 <ns16550_txchar>
  for (todo = 0; todo < len; todo++) {
    80002324:	fec42783          	lw	a5,-20(s0)
    80002328:	0017879b          	addiw	a5,a5,1
    8000232c:	fef42623          	sw	a5,-20(s0)
    80002330:	fec42783          	lw	a5,-20(s0)
    80002334:	00078713          	mv	a4,a5
    80002338:	fd842783          	lw	a5,-40(s0)
    8000233c:	0007071b          	sext.w	a4,a4
    80002340:	0007879b          	sext.w	a5,a5
    80002344:	fcf742e3          	blt	a4,a5,80002308 <write+0x30>
  }
#endif
  return len;
    80002348:	fd842783          	lw	a5,-40(s0)
}
    8000234c:	00078513          	mv	a0,a5
    80002350:	02813083          	ld	ra,40(sp)
    80002354:	02013403          	ld	s0,32(sp)
    80002358:	03010113          	addi	sp,sp,48
    8000235c:	00008067          	ret

0000000080002360 <gettimeofday>:

#define CLOCK_PERIOD  (100000000)

int gettimeofday(struct timeval *ptimeval, void *ptimezone)
{
    80002360:	fd010113          	addi	sp,sp,-48
    80002364:	02813423          	sd	s0,40(sp)
    80002368:	03010413          	addi	s0,sp,48
    8000236c:	fca43c23          	sd	a0,-40(s0)
    80002370:	fcb43823          	sd	a1,-48(s0)
    if (ptimeval)
    80002374:	fd843783          	ld	a5,-40(s0)
    80002378:	04078263          	beqz	a5,800023bc <gettimeofday+0x5c>
    {
	long long tv;
#if __riscv_xlen == 64
	asm ("rdtime %0" : "=r" (tv));
    8000237c:	c01027f3          	rdtime	a5
    80002380:	fef43423          	sd	a5,-24(s0)
	unsigned int tvl;
	asm ("rdtime %0;"
	    "rdtimeh %1 " : "=r" (tvl), "=r" (tvh));
	tv = ((long long)tvh) << 32 | tvl;
#endif
	ptimeval->tv_sec = tv / CLOCK_PERIOD;
    80002384:	fe843703          	ld	a4,-24(s0)
    80002388:	05f5e7b7          	lui	a5,0x5f5e
    8000238c:	10078793          	addi	a5,a5,256 # 5f5e100 <_reset-0x7a0a1f00>
    80002390:	02f74733          	div	a4,a4,a5
    80002394:	fd843783          	ld	a5,-40(s0)
    80002398:	00e7b023          	sd	a4,0(a5)
	ptimeval->tv_usec = tv % CLOCK_PERIOD / (CLOCK_PERIOD / 1000000);
    8000239c:	fe843703          	ld	a4,-24(s0)
    800023a0:	05f5e7b7          	lui	a5,0x5f5e
    800023a4:	10078793          	addi	a5,a5,256 # 5f5e100 <_reset-0x7a0a1f00>
    800023a8:	02f76733          	rem	a4,a4,a5
    800023ac:	06400793          	li	a5,100
    800023b0:	02f74733          	div	a4,a4,a5
    800023b4:	fd843783          	ld	a5,-40(s0)
    800023b8:	00e7b423          	sd	a4,8(a5)
    }

    return 0;
    800023bc:	00000793          	li	a5,0
}
    800023c0:	00078513          	mv	a0,a5
    800023c4:	02813403          	ld	s0,40(sp)
    800023c8:	03010113          	addi	sp,sp,48
    800023cc:	00008067          	ret

00000000800023d0 <sleep>:

unsigned int sleep(unsigned int seconds)
{
    800023d0:	fd010113          	addi	sp,sp,-48
    800023d4:	02113423          	sd	ra,40(sp)
    800023d8:	02813023          	sd	s0,32(sp)
    800023dc:	03010413          	addi	s0,sp,48
    800023e0:	00050793          	mv	a5,a0
    800023e4:	fcf42e23          	sw	a5,-36(s0)
    struct timeval tv;
    gettimeofday(&tv, NULL);
    800023e8:	fe040793          	addi	a5,s0,-32
    800023ec:	00000593          	li	a1,0
    800023f0:	00078513          	mv	a0,a5
    800023f4:	f6dff0ef          	jal	ra,80002360 <gettimeofday>
    seconds += tv.tv_sec;
    800023f8:	fe043783          	ld	a5,-32(s0)
    800023fc:	0007879b          	sext.w	a5,a5
    80002400:	fdc42703          	lw	a4,-36(s0)
    80002404:	00f707bb          	addw	a5,a4,a5
    80002408:	fcf42e23          	sw	a5,-36(s0)

    while (tv.tv_sec < seconds)
    8000240c:	0140006f          	j	80002420 <sleep+0x50>
	gettimeofday(&tv, NULL);
    80002410:	fe040793          	addi	a5,s0,-32
    80002414:	00000593          	li	a1,0
    80002418:	00078513          	mv	a0,a5
    8000241c:	f45ff0ef          	jal	ra,80002360 <gettimeofday>
    while (tv.tv_sec < seconds)
    80002420:	fe043703          	ld	a4,-32(s0)
    80002424:	fdc46783          	lwu	a5,-36(s0)
    80002428:	fef744e3          	blt	a4,a5,80002410 <sleep+0x40>

    return 0;
    8000242c:	00000793          	li	a5,0
}
    80002430:	00078513          	mv	a0,a5
    80002434:	02813083          	ld	ra,40(sp)
    80002438:	02013403          	ld	s0,32(sp)
    8000243c:	03010113          	addi	sp,sp,48
    80002440:	00008067          	ret

0000000080002444 <_sbrk>:

// JES drafts:

void *
_sbrk (int nbytes)
{
    80002444:	fe010113          	addi	sp,sp,-32
    80002448:	00113c23          	sd	ra,24(sp)
    8000244c:	00813823          	sd	s0,16(sp)
    80002450:	02010413          	addi	s0,sp,32
    80002454:	00050793          	mv	a5,a0
    80002458:	fef42623          	sw	a5,-20(s0)
  errno = ENOMEM;
    8000245c:	668000ef          	jal	ra,80002ac4 <__errno>
    80002460:	00050713          	mv	a4,a0
    80002464:	00c00793          	li	a5,12
    80002468:	00f72023          	sw	a5,0(a4)
  return  (void *) -1;
    8000246c:	fff00793          	li	a5,-1
}
    80002470:	00078513          	mv	a0,a5
    80002474:	01813083          	ld	ra,24(sp)
    80002478:	01013403          	ld	s0,16(sp)
    8000247c:	02010113          	addi	sp,sp,32
    80002480:	00008067          	ret

0000000080002484 <_write>:
  errno = ENOSPC;
  return -1;
}
*/

int _write(int file, char *ptr, int len) {
    80002484:	fd010113          	addi	sp,sp,-48
    80002488:	02113423          	sd	ra,40(sp)
    8000248c:	02813023          	sd	s0,32(sp)
    80002490:	03010413          	addi	s0,sp,48
    80002494:	00050793          	mv	a5,a0
    80002498:	fcb43823          	sd	a1,-48(s0)
    8000249c:	00060713          	mv	a4,a2
    800024a0:	fcf42e23          	sw	a5,-36(s0)
    800024a4:	00070793          	mv	a5,a4
    800024a8:	fcf42c23          	sw	a5,-40(s0)
  int todo;

#ifdef CONSOLE_UART
  for (todo = 0; todo < len; todo++) {
    800024ac:	fe042623          	sw	zero,-20(s0)
    800024b0:	02c0006f          	j	800024dc <_write+0x58>
    ns16550_txchar (*ptr++);
    800024b4:	fd043783          	ld	a5,-48(s0)
    800024b8:	00178713          	addi	a4,a5,1
    800024bc:	fce43823          	sd	a4,-48(s0)
    800024c0:	0007c783          	lbu	a5,0(a5)
    800024c4:	0007879b          	sext.w	a5,a5
    800024c8:	00078513          	mv	a0,a5
    800024cc:	38c000ef          	jal	ra,80002858 <ns16550_txchar>
  for (todo = 0; todo < len; todo++) {
    800024d0:	fec42783          	lw	a5,-20(s0)
    800024d4:	0017879b          	addiw	a5,a5,1
    800024d8:	fef42623          	sw	a5,-20(s0)
    800024dc:	fec42783          	lw	a5,-20(s0)
    800024e0:	00078713          	mv	a4,a5
    800024e4:	fd842783          	lw	a5,-40(s0)
    800024e8:	0007071b          	sext.w	a4,a4
    800024ec:	0007879b          	sext.w	a5,a5
    800024f0:	fcf742e3          	blt	a4,a5,800024b4 <_write+0x30>
  }
#endif
  return len;
    800024f4:	fd842783          	lw	a5,-40(s0)
}
    800024f8:	00078513          	mv	a0,a5
    800024fc:	02813083          	ld	ra,40(sp)
    80002500:	02013403          	ld	s0,32(sp)
    80002504:	03010113          	addi	sp,sp,48
    80002508:	00008067          	ret

000000008000250c <_close>:

int _close(
   int fd
	   )
{
    8000250c:	fe010113          	addi	sp,sp,-32
    80002510:	00113c23          	sd	ra,24(sp)
    80002514:	00813823          	sd	s0,16(sp)
    80002518:	02010413          	addi	s0,sp,32
    8000251c:	00050793          	mv	a5,a0
    80002520:	fef42623          	sw	a5,-20(s0)
  errno = EBADF;
    80002524:	5a0000ef          	jal	ra,80002ac4 <__errno>
    80002528:	00050713          	mv	a4,a0
    8000252c:	00900793          	li	a5,9
    80002530:	00f72023          	sw	a5,0(a4)
  return -1;
    80002534:	fff00793          	li	a5,-1
}
    80002538:	00078513          	mv	a0,a5
    8000253c:	01813083          	ld	ra,24(sp)
    80002540:	01013403          	ld	s0,16(sp)
    80002544:	02010113          	addi	sp,sp,32
    80002548:	00008067          	ret

000000008000254c <_lseek>:
long _lseek(
    int fd,
    long offset,
    int origin
)
{
    8000254c:	fe010113          	addi	sp,sp,-32
    80002550:	00113c23          	sd	ra,24(sp)
    80002554:	00813823          	sd	s0,16(sp)
    80002558:	02010413          	addi	s0,sp,32
    8000255c:	00050793          	mv	a5,a0
    80002560:	feb43023          	sd	a1,-32(s0)
    80002564:	00060713          	mv	a4,a2
    80002568:	fef42623          	sw	a5,-20(s0)
    8000256c:	00070793          	mv	a5,a4
    80002570:	fef42423          	sw	a5,-24(s0)
  errno = EBADF;
    80002574:	550000ef          	jal	ra,80002ac4 <__errno>
    80002578:	00050713          	mv	a4,a0
    8000257c:	00900793          	li	a5,9
    80002580:	00f72023          	sw	a5,0(a4)
  return -1;
    80002584:	fff00793          	li	a5,-1
}
    80002588:	00078513          	mv	a0,a5
    8000258c:	01813083          	ld	ra,24(sp)
    80002590:	01013403          	ld	s0,16(sp)
    80002594:	02010113          	addi	sp,sp,32
    80002598:	00008067          	ret

000000008000259c <_read>:
int _read(
   int fd,
   void *buffer,
   unsigned int count
)
{
    8000259c:	fe010113          	addi	sp,sp,-32
    800025a0:	00113c23          	sd	ra,24(sp)
    800025a4:	00813823          	sd	s0,16(sp)
    800025a8:	02010413          	addi	s0,sp,32
    800025ac:	00050793          	mv	a5,a0
    800025b0:	feb43023          	sd	a1,-32(s0)
    800025b4:	00060713          	mv	a4,a2
    800025b8:	fef42623          	sw	a5,-20(s0)
    800025bc:	00070793          	mv	a5,a4
    800025c0:	fef42423          	sw	a5,-24(s0)
  errno = EBADF;
    800025c4:	500000ef          	jal	ra,80002ac4 <__errno>
    800025c8:	00050713          	mv	a4,a0
    800025cc:	00900793          	li	a5,9
    800025d0:	00f72023          	sw	a5,0(a4)
  return -1;
    800025d4:	fff00793          	li	a5,-1
}
    800025d8:	00078513          	mv	a0,a5
    800025dc:	01813083          	ld	ra,24(sp)
    800025e0:	01013403          	ld	s0,16(sp)
    800025e4:	02010113          	addi	sp,sp,32
    800025e8:	00008067          	ret

00000000800025ec <_fstat>:

int _fstat(
   int fd,
   struct stat *buffer
)
{
    800025ec:	fe010113          	addi	sp,sp,-32
    800025f0:	00113c23          	sd	ra,24(sp)
    800025f4:	00813823          	sd	s0,16(sp)
    800025f8:	02010413          	addi	s0,sp,32
    800025fc:	00050793          	mv	a5,a0
    80002600:	feb43023          	sd	a1,-32(s0)
    80002604:	fef42623          	sw	a5,-20(s0)
  errno = EBADF;
    80002608:	4bc000ef          	jal	ra,80002ac4 <__errno>
    8000260c:	00050713          	mv	a4,a0
    80002610:	00900793          	li	a5,9
    80002614:	00f72023          	sw	a5,0(a4)
  return -1;
    80002618:	fff00793          	li	a5,-1
}
    8000261c:	00078513          	mv	a0,a5
    80002620:	01813083          	ld	ra,24(sp)
    80002624:	01013403          	ld	s0,16(sp)
    80002628:	02010113          	addi	sp,sp,32
    8000262c:	00008067          	ret

0000000080002630 <_isatty>:

int _isatty(
  int fd
)
{
    80002630:	fe010113          	addi	sp,sp,-32
    80002634:	00113c23          	sd	ra,24(sp)
    80002638:	00813823          	sd	s0,16(sp)
    8000263c:	02010413          	addi	s0,sp,32
    80002640:	00050793          	mv	a5,a0
    80002644:	fef42623          	sw	a5,-20(s0)
  errno = EBADF;
    80002648:	47c000ef          	jal	ra,80002ac4 <__errno>
    8000264c:	00050713          	mv	a4,a0
    80002650:	00900793          	li	a5,9
    80002654:	00f72023          	sw	a5,0(a4)
  return 0;
    80002658:	00000793          	li	a5,0
}
    8000265c:	00078513          	mv	a0,a5
    80002660:	01813083          	ld	ra,24(sp)
    80002664:	01013403          	ld	s0,16(sp)
    80002668:	02010113          	addi	sp,sp,32
    8000266c:	00008067          	ret

0000000080002670 <_kill>:

int _kill(
  int pid,
  int sig
)
{
    80002670:	fe010113          	addi	sp,sp,-32
    80002674:	00113c23          	sd	ra,24(sp)
    80002678:	00813823          	sd	s0,16(sp)
    8000267c:	02010413          	addi	s0,sp,32
    80002680:	00050793          	mv	a5,a0
    80002684:	00058713          	mv	a4,a1
    80002688:	fef42623          	sw	a5,-20(s0)
    8000268c:	00070793          	mv	a5,a4
    80002690:	fef42423          	sw	a5,-24(s0)
  errno = EBADF;
    80002694:	430000ef          	jal	ra,80002ac4 <__errno>
    80002698:	00050713          	mv	a4,a0
    8000269c:	00900793          	li	a5,9
    800026a0:	00f72023          	sw	a5,0(a4)
  return -1;
    800026a4:	fff00793          	li	a5,-1
}
    800026a8:	00078513          	mv	a0,a5
    800026ac:	01813083          	ld	ra,24(sp)
    800026b0:	01013403          	ld	s0,16(sp)
    800026b4:	02010113          	addi	sp,sp,32
    800026b8:	00008067          	ret

00000000800026bc <_getpid>:

int _getpid(
  int n
)
{
    800026bc:	fe010113          	addi	sp,sp,-32
    800026c0:	00813c23          	sd	s0,24(sp)
    800026c4:	02010413          	addi	s0,sp,32
    800026c8:	00050793          	mv	a5,a0
    800026cc:	fef42623          	sw	a5,-20(s0)
  return 1;
    800026d0:	00100793          	li	a5,1
}
    800026d4:	00078513          	mv	a0,a5
    800026d8:	01813403          	ld	s0,24(sp)
    800026dc:	02010113          	addi	sp,sp,32
    800026e0:	00008067          	ret

00000000800026e4 <ns16550_init>:
static struct ns16550_pio * pio = (void*)NS16550_BASE;

#ifdef CONSOLE_UART
__attribute__ ((constructor))
static int ns16550_init(void)
{
    800026e4:	fe010113          	addi	sp,sp,-32
    800026e8:	00813c23          	sd	s0,24(sp)
    800026ec:	02010413          	addi	s0,sp,32
  uint32_t divisor;

  pio->ier = 0;
    800026f0:	76018793          	addi	a5,gp,1888 # 80007c30 <pio>
    800026f4:	0007b783          	ld	a5,0(a5)
    800026f8:	00078223          	sb	zero,4(a5)

  divisor = NS16550_CLOCK_RATE / (16 * DEFAULT_BAUDRATE);
    800026fc:	00d00793          	li	a5,13
    80002700:	fef42623          	sw	a5,-20(s0)
  pio->lcr |= LCR_DLAB;
    80002704:	76018793          	addi	a5,gp,1888 # 80007c30 <pio>
    80002708:	0007b783          	ld	a5,0(a5)
    8000270c:	00c7c783          	lbu	a5,12(a5)
    80002710:	0ff7f713          	zext.b	a4,a5
    80002714:	76018793          	addi	a5,gp,1888 # 80007c30 <pio>
    80002718:	0007b783          	ld	a5,0(a5)
    8000271c:	f8076713          	ori	a4,a4,-128
    80002720:	0ff77713          	zext.b	a4,a4
    80002724:	00e78623          	sb	a4,12(a5)
  pio->dll = divisor & 0xff;
    80002728:	76018793          	addi	a5,gp,1888 # 80007c30 <pio>
    8000272c:	0007b783          	ld	a5,0(a5)
    80002730:	fec42703          	lw	a4,-20(s0)
    80002734:	0ff77713          	zext.b	a4,a4
    80002738:	00e78023          	sb	a4,0(a5)
  pio->dlm = (divisor >> 8) & 0xff;
    8000273c:	fec42783          	lw	a5,-20(s0)
    80002740:	0087d79b          	srliw	a5,a5,0x8
    80002744:	0007871b          	sext.w	a4,a5
    80002748:	76018793          	addi	a5,gp,1888 # 80007c30 <pio>
    8000274c:	0007b783          	ld	a5,0(a5)
    80002750:	0ff77713          	zext.b	a4,a4
    80002754:	00e78223          	sb	a4,4(a5)
  pio->lcr &= ~LCR_DLAB;
    80002758:	76018793          	addi	a5,gp,1888 # 80007c30 <pio>
    8000275c:	0007b783          	ld	a5,0(a5)
    80002760:	00c7c783          	lbu	a5,12(a5)
    80002764:	0ff7f713          	zext.b	a4,a5
    80002768:	76018793          	addi	a5,gp,1888 # 80007c30 <pio>
    8000276c:	0007b783          	ld	a5,0(a5)
    80002770:	07f77713          	andi	a4,a4,127
    80002774:	0ff77713          	zext.b	a4,a4
    80002778:	00e78623          	sb	a4,12(a5)

  pio->lcr = LCR_WLS8;
    8000277c:	76018793          	addi	a5,gp,1888 # 80007c30 <pio>
    80002780:	0007b783          	ld	a5,0(a5)
    80002784:	00300713          	li	a4,3
    80002788:	00e78623          	sb	a4,12(a5)
  pio->fcr = FCR_FE;
    8000278c:	76018793          	addi	a5,gp,1888 # 80007c30 <pio>
    80002790:	0007b783          	ld	a5,0(a5)
    80002794:	00100713          	li	a4,1
    80002798:	00e78423          	sb	a4,8(a5)
  pio->mcr = MCR_RTS;
    8000279c:	76018793          	addi	a5,gp,1888 # 80007c30 <pio>
    800027a0:	0007b783          	ld	a5,0(a5)
    800027a4:	00200713          	li	a4,2
    800027a8:	00e78823          	sb	a4,16(a5)

  return 0;
    800027ac:	00000793          	li	a5,0
}
    800027b0:	00078513          	mv	a0,a5
    800027b4:	01813403          	ld	s0,24(sp)
    800027b8:	02010113          	addi	sp,sp,32
    800027bc:	00008067          	ret

00000000800027c0 <ns16550_rxready>:
#endif


int ns16550_rxready(void)
{
    800027c0:	ff010113          	addi	sp,sp,-16
    800027c4:	00813423          	sd	s0,8(sp)
    800027c8:	01010413          	addi	s0,sp,16
  return ((pio->lsr & LSR_DR) != 0);
    800027cc:	76018793          	addi	a5,gp,1888 # 80007c30 <pio>
    800027d0:	0007b783          	ld	a5,0(a5)
    800027d4:	0147c783          	lbu	a5,20(a5)
    800027d8:	0ff7f793          	zext.b	a5,a5
    800027dc:	0007879b          	sext.w	a5,a5
    800027e0:	0017f793          	andi	a5,a5,1
    800027e4:	0007879b          	sext.w	a5,a5
    800027e8:	00f037b3          	snez	a5,a5
    800027ec:	0ff7f793          	zext.b	a5,a5
    800027f0:	0007879b          	sext.w	a5,a5
}
    800027f4:	00078513          	mv	a0,a5
    800027f8:	00813403          	ld	s0,8(sp)
    800027fc:	01010113          	addi	sp,sp,16
    80002800:	00008067          	ret

0000000080002804 <ns16550_rxchar>:


int ns16550_rxchar(void)
{
    80002804:	ff010113          	addi	sp,sp,-16
    80002808:	00813423          	sd	s0,8(sp)
    8000280c:	01010413          	addi	s0,sp,16
  while ((pio->lsr & LSR_DR) == 0)
    80002810:	00000013          	nop
    80002814:	76018793          	addi	a5,gp,1888 # 80007c30 <pio>
    80002818:	0007b783          	ld	a5,0(a5)
    8000281c:	0147c783          	lbu	a5,20(a5)
    80002820:	0ff7f793          	zext.b	a5,a5
    80002824:	0007879b          	sext.w	a5,a5
    80002828:	0017f793          	andi	a5,a5,1
    8000282c:	0007879b          	sext.w	a5,a5
    80002830:	fe0782e3          	beqz	a5,80002814 <ns16550_rxchar+0x10>
    ;  // nothing

  return pio->rbr;
    80002834:	76018793          	addi	a5,gp,1888 # 80007c30 <pio>
    80002838:	0007b783          	ld	a5,0(a5)
    8000283c:	0007c783          	lbu	a5,0(a5)
    80002840:	0ff7f793          	zext.b	a5,a5
    80002844:	0007879b          	sext.w	a5,a5
}
    80002848:	00078513          	mv	a0,a5
    8000284c:	00813403          	ld	s0,8(sp)
    80002850:	01010113          	addi	sp,sp,16
    80002854:	00008067          	ret

0000000080002858 <ns16550_txchar>:


int ns16550_txchar(int c)
{
    80002858:	fe010113          	addi	sp,sp,-32
    8000285c:	00813c23          	sd	s0,24(sp)
    80002860:	02010413          	addi	s0,sp,32
    80002864:	00050793          	mv	a5,a0
    80002868:	fef42623          	sw	a5,-20(s0)
  while ((pio->lsr & LSR_THRE) == 0)
    8000286c:	00000013          	nop
    80002870:	76018793          	addi	a5,gp,1888 # 80007c30 <pio>
    80002874:	0007b783          	ld	a5,0(a5)
    80002878:	0147c783          	lbu	a5,20(a5)
    8000287c:	0ff7f793          	zext.b	a5,a5
    80002880:	0007879b          	sext.w	a5,a5
    80002884:	0207f793          	andi	a5,a5,32
    80002888:	0007879b          	sext.w	a5,a5
    8000288c:	fe0782e3          	beqz	a5,80002870 <ns16550_txchar+0x18>
    ;  // nothing

  pio->thr = c;
    80002890:	76018793          	addi	a5,gp,1888 # 80007c30 <pio>
    80002894:	0007b783          	ld	a5,0(a5)
    80002898:	fec42703          	lw	a4,-20(s0)
    8000289c:	0ff77713          	zext.b	a4,a4
    800028a0:	00e78023          	sb	a4,0(a5)

  return c;
    800028a4:	fec42783          	lw	a5,-20(s0)
}
    800028a8:	00078513          	mv	a0,a5
    800028ac:	01813403          	ld	s0,24(sp)
    800028b0:	02010113          	addi	sp,sp,32
    800028b4:	00008067          	ret

00000000800028b8 <ns16550_flush>:


void ns16550_flush(void)
{
    800028b8:	ff010113          	addi	sp,sp,-16
    800028bc:	00813423          	sd	s0,8(sp)
    800028c0:	01010413          	addi	s0,sp,16
  while ((pio->lsr & LSR_TEMT) == 0)
    800028c4:	00000013          	nop
    800028c8:	76018793          	addi	a5,gp,1888 # 80007c30 <pio>
    800028cc:	0007b783          	ld	a5,0(a5)
    800028d0:	0147c783          	lbu	a5,20(a5)
    800028d4:	0ff7f793          	zext.b	a5,a5
    800028d8:	0007879b          	sext.w	a5,a5
    800028dc:	0407f793          	andi	a5,a5,64
    800028e0:	0007879b          	sext.w	a5,a5
    800028e4:	fe0782e3          	beqz	a5,800028c8 <ns16550_flush+0x10>
    ;  // nothing
}
    800028e8:	00000013          	nop
    800028ec:	00000013          	nop
    800028f0:	00813403          	ld	s0,8(sp)
    800028f4:	01010113          	addi	sp,sp,16
    800028f8:	00008067          	ret

00000000800028fc <read_cycle>:
// RV64 versions

#ifdef RV64

uint64_t  read_cycle (void)
{
    800028fc:	fe010113          	addi	sp,sp,-32
    80002900:	00813c23          	sd	s0,24(sp)
    80002904:	02010413          	addi	s0,sp,32
    uint64_t result;

    asm volatile ("RDCYCLE  %0" : "=r" (result));
    80002908:	c00027f3          	rdcycle	a5
    8000290c:	fef43423          	sd	a5,-24(s0)

    return result;
    80002910:	fe843783          	ld	a5,-24(s0)
}
    80002914:	00078513          	mv	a0,a5
    80002918:	01813403          	ld	s0,24(sp)
    8000291c:	02010113          	addi	sp,sp,32
    80002920:	00008067          	ret

0000000080002924 <read_time>:

uint64_t  read_time (void)
{
    80002924:	fe010113          	addi	sp,sp,-32
    80002928:	00813c23          	sd	s0,24(sp)
    8000292c:	02010413          	addi	s0,sp,32
    uint64_t result;

    asm volatile ("RDTIME  %0" : "=r" (result));
    80002930:	c01027f3          	rdtime	a5
    80002934:	fef43423          	sd	a5,-24(s0)

    return result;
    80002938:	fe843783          	ld	a5,-24(s0)
}
    8000293c:	00078513          	mv	a0,a5
    80002940:	01813403          	ld	s0,24(sp)
    80002944:	02010113          	addi	sp,sp,32
    80002948:	00008067          	ret

000000008000294c <read_instret>:

uint64_t  read_instret (void)
{
    8000294c:	fe010113          	addi	sp,sp,-32
    80002950:	00813c23          	sd	s0,24(sp)
    80002954:	02010413          	addi	s0,sp,32
    uint64_t result;

    asm volatile ("RDINSTRET  %0" : "=r" (result));
    80002958:	c02027f3          	rdinstret	a5
    8000295c:	fef43423          	sd	a5,-24(s0)

    return result;
    80002960:	fe843783          	ld	a5,-24(s0)
}
    80002964:	00078513          	mv	a0,a5
    80002968:	01813403          	ld	s0,24(sp)
    8000296c:	02010113          	addi	sp,sp,32
    80002970:	00008067          	ret

0000000080002974 <fence>:
// When reading/writing data needed by accelerators, we use 'fence' to
// ensure that caches are empty, i.e., memory contains definitive data
// and caches will be reloaded.

void fence (void)
{
    80002974:	ff010113          	addi	sp,sp,-16
    80002978:	00813423          	sd	s0,8(sp)
    8000297c:	01010413          	addi	s0,sp,16
    asm volatile ("fence");
    80002980:	0ff0000f          	fence
}
    80002984:	00000013          	nop
    80002988:	00813403          	ld	s0,8(sp)
    8000298c:	01010113          	addi	sp,sp,16
    80002990:	00008067          	ret

0000000080002994 <addr_to_pointer>:

// ================================================================
// Read/Write to IO addresses

void *addr_to_pointer (uint64_t addr)
{
    80002994:	fd010113          	addi	sp,sp,-48
    80002998:	02813423          	sd	s0,40(sp)
    8000299c:	03010413          	addi	s0,sp,48
    800029a0:	fca43c23          	sd	a0,-40(s0)
#ifdef RV32
    uint32_t addr1 = addr;    // Discards addr [63:32]
#endif
#ifdef RV64
    uint64_t addr1 = addr;
    800029a4:	fd843783          	ld	a5,-40(s0)
    800029a8:	fef43423          	sd	a5,-24(s0)
#endif
    return (void *) addr1;
    800029ac:	fe843783          	ld	a5,-24(s0)
}
    800029b0:	00078513          	mv	a0,a5
    800029b4:	02813403          	ld	s0,40(sp)
    800029b8:	03010113          	addi	sp,sp,48
    800029bc:	00008067          	ret

00000000800029c0 <io_read32>:


uint32_t  io_read32 (uint64_t addr)
{
    800029c0:	fd010113          	addi	sp,sp,-48
    800029c4:	02113423          	sd	ra,40(sp)
    800029c8:	02813023          	sd	s0,32(sp)
    800029cc:	03010413          	addi	s0,sp,48
    800029d0:	fca43c23          	sd	a0,-40(s0)
    uint32_t *p = (uint32_t *) addr_to_pointer (addr);
    800029d4:	fd843503          	ld	a0,-40(s0)
    800029d8:	fbdff0ef          	jal	ra,80002994 <addr_to_pointer>
    800029dc:	fea43423          	sd	a0,-24(s0)
    return *p;
    800029e0:	fe843783          	ld	a5,-24(s0)
    800029e4:	0007a783          	lw	a5,0(a5)
}
    800029e8:	00078513          	mv	a0,a5
    800029ec:	02813083          	ld	ra,40(sp)
    800029f0:	02013403          	ld	s0,32(sp)
    800029f4:	03010113          	addi	sp,sp,48
    800029f8:	00008067          	ret

00000000800029fc <io_write32>:

void  io_write32 (uint64_t addr, uint32_t x)
{
    800029fc:	fd010113          	addi	sp,sp,-48
    80002a00:	02113423          	sd	ra,40(sp)
    80002a04:	02813023          	sd	s0,32(sp)
    80002a08:	03010413          	addi	s0,sp,48
    80002a0c:	fca43c23          	sd	a0,-40(s0)
    80002a10:	00058793          	mv	a5,a1
    80002a14:	fcf42a23          	sw	a5,-44(s0)
    uint32_t *p = (uint32_t *) addr_to_pointer (addr);
    80002a18:	fd843503          	ld	a0,-40(s0)
    80002a1c:	f79ff0ef          	jal	ra,80002994 <addr_to_pointer>
    80002a20:	fea43423          	sd	a0,-24(s0)
    *p = x;
    80002a24:	fe843783          	ld	a5,-24(s0)
    80002a28:	fd442703          	lw	a4,-44(s0)
    80002a2c:	00e7a023          	sw	a4,0(a5)
}
    80002a30:	00000013          	nop
    80002a34:	02813083          	ld	ra,40(sp)
    80002a38:	02013403          	ld	s0,32(sp)
    80002a3c:	03010113          	addi	sp,sp,48
    80002a40:	00008067          	ret

0000000080002a44 <io_read64>:

uint64_t  io_read64 (uint64_t addr)
{
    80002a44:	fd010113          	addi	sp,sp,-48
    80002a48:	02113423          	sd	ra,40(sp)
    80002a4c:	02813023          	sd	s0,32(sp)
    80002a50:	03010413          	addi	s0,sp,48
    80002a54:	fca43c23          	sd	a0,-40(s0)
    uint64_t *p = (uint64_t *) addr_to_pointer (addr);
    80002a58:	fd843503          	ld	a0,-40(s0)
    80002a5c:	f39ff0ef          	jal	ra,80002994 <addr_to_pointer>
    80002a60:	fea43423          	sd	a0,-24(s0)
    return *p;
    80002a64:	fe843783          	ld	a5,-24(s0)
    80002a68:	0007b783          	ld	a5,0(a5)
}
    80002a6c:	00078513          	mv	a0,a5
    80002a70:	02813083          	ld	ra,40(sp)
    80002a74:	02013403          	ld	s0,32(sp)
    80002a78:	03010113          	addi	sp,sp,48
    80002a7c:	00008067          	ret

0000000080002a80 <io_write64>:

void  io_write64 (uint64_t addr, uint64_t x)
{
    80002a80:	fd010113          	addi	sp,sp,-48
    80002a84:	02113423          	sd	ra,40(sp)
    80002a88:	02813023          	sd	s0,32(sp)
    80002a8c:	03010413          	addi	s0,sp,48
    80002a90:	fca43c23          	sd	a0,-40(s0)
    80002a94:	fcb43823          	sd	a1,-48(s0)
    uint64_t *p = (uint64_t *) addr_to_pointer (addr);
    80002a98:	fd843503          	ld	a0,-40(s0)
    80002a9c:	ef9ff0ef          	jal	ra,80002994 <addr_to_pointer>
    80002aa0:	fea43423          	sd	a0,-24(s0)
    *p = x;
    80002aa4:	fe843783          	ld	a5,-24(s0)
    80002aa8:	fd043703          	ld	a4,-48(s0)
    80002aac:	00e7b023          	sd	a4,0(a5)
}
    80002ab0:	00000013          	nop
    80002ab4:	02813083          	ld	ra,40(sp)
    80002ab8:	02013403          	ld	s0,32(sp)
    80002abc:	03010113          	addi	sp,sp,48
    80002ac0:	00008067          	ret

0000000080002ac4 <__errno>:
    80002ac4:	7681b503          	ld	a0,1896(gp) # 80007c38 <_impure_ptr>
    80002ac8:	00008067          	ret

0000000080002acc <__libc_init_array>:
    80002acc:	fe010113          	addi	sp,sp,-32
    80002ad0:	00813823          	sd	s0,16(sp)
    80002ad4:	01213023          	sd	s2,0(sp)
    80002ad8:	00004797          	auipc	a5,0x4
    80002adc:	1b878793          	addi	a5,a5,440 # 80006c90 <__init_array_start>
    80002ae0:	00004417          	auipc	s0,0x4
    80002ae4:	1b040413          	addi	s0,s0,432 # 80006c90 <__init_array_start>
    80002ae8:	00113c23          	sd	ra,24(sp)
    80002aec:	00913423          	sd	s1,8(sp)
    80002af0:	40878933          	sub	s2,a5,s0
    80002af4:	02878063          	beq	a5,s0,80002b14 <__libc_init_array+0x48>
    80002af8:	40395913          	srai	s2,s2,0x3
    80002afc:	00000493          	li	s1,0
    80002b00:	00043783          	ld	a5,0(s0)
    80002b04:	00148493          	addi	s1,s1,1
    80002b08:	00840413          	addi	s0,s0,8
    80002b0c:	000780e7          	jalr	a5
    80002b10:	ff24e8e3          	bltu	s1,s2,80002b00 <__libc_init_array+0x34>
    80002b14:	00004797          	auipc	a5,0x4
    80002b18:	19478793          	addi	a5,a5,404 # 80006ca8 <__do_global_dtors_aux_fini_array_entry>
    80002b1c:	00004417          	auipc	s0,0x4
    80002b20:	17440413          	addi	s0,s0,372 # 80006c90 <__init_array_start>
    80002b24:	40878933          	sub	s2,a5,s0
    80002b28:	40395913          	srai	s2,s2,0x3
    80002b2c:	00878e63          	beq	a5,s0,80002b48 <__libc_init_array+0x7c>
    80002b30:	00000493          	li	s1,0
    80002b34:	00043783          	ld	a5,0(s0)
    80002b38:	00148493          	addi	s1,s1,1
    80002b3c:	00840413          	addi	s0,s0,8
    80002b40:	000780e7          	jalr	a5
    80002b44:	ff24e8e3          	bltu	s1,s2,80002b34 <__libc_init_array+0x68>
    80002b48:	01813083          	ld	ra,24(sp)
    80002b4c:	01013403          	ld	s0,16(sp)
    80002b50:	00813483          	ld	s1,8(sp)
    80002b54:	00013903          	ld	s2,0(sp)
    80002b58:	02010113          	addi	sp,sp,32
    80002b5c:	00008067          	ret

0000000080002b60 <memset>:
    80002b60:	00f00313          	li	t1,15
    80002b64:	00050713          	mv	a4,a0
    80002b68:	02c37a63          	bgeu	t1,a2,80002b9c <memset+0x3c>
    80002b6c:	00f77793          	andi	a5,a4,15
    80002b70:	0a079063          	bnez	a5,80002c10 <memset+0xb0>
    80002b74:	06059e63          	bnez	a1,80002bf0 <memset+0x90>
    80002b78:	ff067693          	andi	a3,a2,-16
    80002b7c:	00f67613          	andi	a2,a2,15
    80002b80:	00e686b3          	add	a3,a3,a4
    80002b84:	00b73023          	sd	a1,0(a4)
    80002b88:	00b73423          	sd	a1,8(a4)
    80002b8c:	01070713          	addi	a4,a4,16
    80002b90:	fed76ae3          	bltu	a4,a3,80002b84 <memset+0x24>
    80002b94:	00061463          	bnez	a2,80002b9c <memset+0x3c>
    80002b98:	00008067          	ret
    80002b9c:	40c306b3          	sub	a3,t1,a2
    80002ba0:	00269693          	slli	a3,a3,0x2
    80002ba4:	00000297          	auipc	t0,0x0
    80002ba8:	005686b3          	add	a3,a3,t0
    80002bac:	00c68067          	jr	12(a3)
    80002bb0:	00b70723          	sb	a1,14(a4)
    80002bb4:	00b706a3          	sb	a1,13(a4)
    80002bb8:	00b70623          	sb	a1,12(a4)
    80002bbc:	00b705a3          	sb	a1,11(a4)
    80002bc0:	00b70523          	sb	a1,10(a4)
    80002bc4:	00b704a3          	sb	a1,9(a4)
    80002bc8:	00b70423          	sb	a1,8(a4)
    80002bcc:	00b703a3          	sb	a1,7(a4)
    80002bd0:	00b70323          	sb	a1,6(a4)
    80002bd4:	00b702a3          	sb	a1,5(a4)
    80002bd8:	00b70223          	sb	a1,4(a4)
    80002bdc:	00b701a3          	sb	a1,3(a4)
    80002be0:	00b70123          	sb	a1,2(a4)
    80002be4:	00b700a3          	sb	a1,1(a4)
    80002be8:	00b70023          	sb	a1,0(a4)
    80002bec:	00008067          	ret
    80002bf0:	0ff5f593          	zext.b	a1,a1
    80002bf4:	00859693          	slli	a3,a1,0x8
    80002bf8:	00d5e5b3          	or	a1,a1,a3
    80002bfc:	01059693          	slli	a3,a1,0x10
    80002c00:	00d5e5b3          	or	a1,a1,a3
    80002c04:	02059693          	slli	a3,a1,0x20
    80002c08:	00d5e5b3          	or	a1,a1,a3
    80002c0c:	f6dff06f          	j	80002b78 <memset+0x18>
    80002c10:	00279693          	slli	a3,a5,0x2
    80002c14:	00000297          	auipc	t0,0x0
    80002c18:	005686b3          	add	a3,a3,t0
    80002c1c:	00008293          	mv	t0,ra
    80002c20:	f98680e7          	jalr	-104(a3)
    80002c24:	00028093          	mv	ra,t0
    80002c28:	ff078793          	addi	a5,a5,-16
    80002c2c:	40f70733          	sub	a4,a4,a5
    80002c30:	00f60633          	add	a2,a2,a5
    80002c34:	f6c374e3          	bgeu	t1,a2,80002b9c <memset+0x3c>
    80002c38:	f3dff06f          	j	80002b74 <memset+0x14>

0000000080002c3c <_puts_r>:
    80002c3c:	f9010113          	addi	sp,sp,-112
    80002c40:	06813023          	sd	s0,96(sp)
    80002c44:	00050413          	mv	s0,a0
    80002c48:	00058513          	mv	a0,a1
    80002c4c:	04913c23          	sd	s1,88(sp)
    80002c50:	06113423          	sd	ra,104(sp)
    80002c54:	00058493          	mv	s1,a1
    80002c58:	0c4000ef          	jal	ra,80002d1c <strlen>
    80002c5c:	00150713          	addi	a4,a0,1
    80002c60:	00003697          	auipc	a3,0x3
    80002c64:	02868693          	addi	a3,a3,40 # 80005c88 <_exit+0x14>
    80002c68:	02e13423          	sd	a4,40(sp)
    80002c6c:	05042783          	lw	a5,80(s0)
    80002c70:	03010713          	addi	a4,sp,48
    80002c74:	04d13023          	sd	a3,64(sp)
    80002c78:	00e13c23          	sd	a4,24(sp)
    80002c7c:	00100693          	li	a3,1
    80002c80:	00200713          	li	a4,2
    80002c84:	02913823          	sd	s1,48(sp)
    80002c88:	02a13c23          	sd	a0,56(sp)
    80002c8c:	04d13423          	sd	a3,72(sp)
    80002c90:	02e12023          	sw	a4,32(sp)
    80002c94:	01043583          	ld	a1,16(s0)
    80002c98:	04078e63          	beqz	a5,80002cf4 <_puts_r+0xb8>
    80002c9c:	01059783          	lh	a5,16(a1)
    80002ca0:	03279713          	slli	a4,a5,0x32
    80002ca4:	02074263          	bltz	a4,80002cc8 <_puts_r+0x8c>
    80002ca8:	0ac5a703          	lw	a4,172(a1)
    80002cac:	000026b7          	lui	a3,0x2
    80002cb0:	00d7e7b3          	or	a5,a5,a3
    80002cb4:	ffffe6b7          	lui	a3,0xffffe
    80002cb8:	fff68693          	addi	a3,a3,-1 # ffffffffffffdfff <__BSS_END__+0xffffffff7fff632f>
    80002cbc:	00d77733          	and	a4,a4,a3
    80002cc0:	00f59823          	sh	a5,16(a1)
    80002cc4:	0ae5a623          	sw	a4,172(a1)
    80002cc8:	01810613          	addi	a2,sp,24
    80002ccc:	00040513          	mv	a0,s0
    80002cd0:	61c000ef          	jal	ra,800032ec <__sfvwrite_r>
    80002cd4:	00a00793          	li	a5,10
    80002cd8:	02051863          	bnez	a0,80002d08 <_puts_r+0xcc>
    80002cdc:	06813083          	ld	ra,104(sp)
    80002ce0:	06013403          	ld	s0,96(sp)
    80002ce4:	05813483          	ld	s1,88(sp)
    80002ce8:	00078513          	mv	a0,a5
    80002cec:	07010113          	addi	sp,sp,112
    80002cf0:	00008067          	ret
    80002cf4:	00040513          	mv	a0,s0
    80002cf8:	00b13423          	sd	a1,8(sp)
    80002cfc:	554000ef          	jal	ra,80003250 <__sinit>
    80002d00:	00813583          	ld	a1,8(sp)
    80002d04:	f99ff06f          	j	80002c9c <_puts_r+0x60>
    80002d08:	fff00793          	li	a5,-1
    80002d0c:	fd1ff06f          	j	80002cdc <_puts_r+0xa0>

0000000080002d10 <puts>:
    80002d10:	00050593          	mv	a1,a0
    80002d14:	7681b503          	ld	a0,1896(gp) # 80007c38 <_impure_ptr>
    80002d18:	f25ff06f          	j	80002c3c <_puts_r>

0000000080002d1c <strlen>:
    80002d1c:	00757793          	andi	a5,a0,7
    80002d20:	00050713          	mv	a4,a0
    80002d24:	06079c63          	bnez	a5,80002d9c <strlen+0x80>
    80002d28:	00005697          	auipc	a3,0x5
    80002d2c:	ee06b683          	ld	a3,-288(a3) # 80007c08 <__SDATA_BEGIN__>
    80002d30:	fff00593          	li	a1,-1
    80002d34:	00073603          	ld	a2,0(a4)
    80002d38:	00870713          	addi	a4,a4,8
    80002d3c:	00d677b3          	and	a5,a2,a3
    80002d40:	00d787b3          	add	a5,a5,a3
    80002d44:	00c7e7b3          	or	a5,a5,a2
    80002d48:	00d7e7b3          	or	a5,a5,a3
    80002d4c:	feb784e3          	beq	a5,a1,80002d34 <strlen+0x18>
    80002d50:	ff874683          	lbu	a3,-8(a4)
    80002d54:	40a707b3          	sub	a5,a4,a0
    80002d58:	06068463          	beqz	a3,80002dc0 <strlen+0xa4>
    80002d5c:	ff974683          	lbu	a3,-7(a4)
    80002d60:	04068c63          	beqz	a3,80002db8 <strlen+0x9c>
    80002d64:	ffa74683          	lbu	a3,-6(a4)
    80002d68:	06068463          	beqz	a3,80002dd0 <strlen+0xb4>
    80002d6c:	ffb74683          	lbu	a3,-5(a4)
    80002d70:	04068c63          	beqz	a3,80002dc8 <strlen+0xac>
    80002d74:	ffc74683          	lbu	a3,-4(a4)
    80002d78:	06068063          	beqz	a3,80002dd8 <strlen+0xbc>
    80002d7c:	ffd74683          	lbu	a3,-3(a4)
    80002d80:	06068063          	beqz	a3,80002de0 <strlen+0xc4>
    80002d84:	ffe74503          	lbu	a0,-2(a4)
    80002d88:	00a03533          	snez	a0,a0
    80002d8c:	00f50533          	add	a0,a0,a5
    80002d90:	ffe50513          	addi	a0,a0,-2
    80002d94:	00008067          	ret
    80002d98:	f80688e3          	beqz	a3,80002d28 <strlen+0xc>
    80002d9c:	00074783          	lbu	a5,0(a4)
    80002da0:	00170713          	addi	a4,a4,1
    80002da4:	00777693          	andi	a3,a4,7
    80002da8:	fe0798e3          	bnez	a5,80002d98 <strlen+0x7c>
    80002dac:	40a70733          	sub	a4,a4,a0
    80002db0:	fff70513          	addi	a0,a4,-1
    80002db4:	00008067          	ret
    80002db8:	ff978513          	addi	a0,a5,-7
    80002dbc:	00008067          	ret
    80002dc0:	ff878513          	addi	a0,a5,-8
    80002dc4:	00008067          	ret
    80002dc8:	ffb78513          	addi	a0,a5,-5
    80002dcc:	00008067          	ret
    80002dd0:	ffa78513          	addi	a0,a5,-6
    80002dd4:	00008067          	ret
    80002dd8:	ffc78513          	addi	a0,a5,-4
    80002ddc:	00008067          	ret
    80002de0:	ffd78513          	addi	a0,a5,-3
    80002de4:	00008067          	ret

0000000080002de8 <__call_exitprocs>:
    80002de8:	fb010113          	addi	sp,sp,-80
    80002dec:	03413023          	sd	s4,32(sp)
    80002df0:	7501ba03          	ld	s4,1872(gp) # 80007c20 <_global_impure_ptr>
    80002df4:	03213823          	sd	s2,48(sp)
    80002df8:	1f8a3903          	ld	s2,504(s4)
    80002dfc:	04113423          	sd	ra,72(sp)
    80002e00:	04813023          	sd	s0,64(sp)
    80002e04:	02913c23          	sd	s1,56(sp)
    80002e08:	03313423          	sd	s3,40(sp)
    80002e0c:	01513c23          	sd	s5,24(sp)
    80002e10:	01613823          	sd	s6,16(sp)
    80002e14:	01713423          	sd	s7,8(sp)
    80002e18:	01813023          	sd	s8,0(sp)
    80002e1c:	04090063          	beqz	s2,80002e5c <__call_exitprocs+0x74>
    80002e20:	00050b13          	mv	s6,a0
    80002e24:	00058b93          	mv	s7,a1
    80002e28:	00100a93          	li	s5,1
    80002e2c:	fff00993          	li	s3,-1
    80002e30:	00892483          	lw	s1,8(s2)
    80002e34:	fff4841b          	addiw	s0,s1,-1
    80002e38:	02044263          	bltz	s0,80002e5c <__call_exitprocs+0x74>
    80002e3c:	00349493          	slli	s1,s1,0x3
    80002e40:	009904b3          	add	s1,s2,s1
    80002e44:	040b8463          	beqz	s7,80002e8c <__call_exitprocs+0xa4>
    80002e48:	2084b783          	ld	a5,520(s1)
    80002e4c:	05778063          	beq	a5,s7,80002e8c <__call_exitprocs+0xa4>
    80002e50:	fff4041b          	addiw	s0,s0,-1
    80002e54:	ff848493          	addi	s1,s1,-8
    80002e58:	ff3416e3          	bne	s0,s3,80002e44 <__call_exitprocs+0x5c>
    80002e5c:	04813083          	ld	ra,72(sp)
    80002e60:	04013403          	ld	s0,64(sp)
    80002e64:	03813483          	ld	s1,56(sp)
    80002e68:	03013903          	ld	s2,48(sp)
    80002e6c:	02813983          	ld	s3,40(sp)
    80002e70:	02013a03          	ld	s4,32(sp)
    80002e74:	01813a83          	ld	s5,24(sp)
    80002e78:	01013b03          	ld	s6,16(sp)
    80002e7c:	00813b83          	ld	s7,8(sp)
    80002e80:	00013c03          	ld	s8,0(sp)
    80002e84:	05010113          	addi	sp,sp,80
    80002e88:	00008067          	ret
    80002e8c:	00892783          	lw	a5,8(s2)
    80002e90:	0084b703          	ld	a4,8(s1)
    80002e94:	fff7879b          	addiw	a5,a5,-1
    80002e98:	06878263          	beq	a5,s0,80002efc <__call_exitprocs+0x114>
    80002e9c:	0004b423          	sd	zero,8(s1)
    80002ea0:	fa0708e3          	beqz	a4,80002e50 <__call_exitprocs+0x68>
    80002ea4:	31092783          	lw	a5,784(s2)
    80002ea8:	008a96bb          	sllw	a3,s5,s0
    80002eac:	00892c03          	lw	s8,8(s2)
    80002eb0:	00d7f7b3          	and	a5,a5,a3
    80002eb4:	0007879b          	sext.w	a5,a5
    80002eb8:	02079263          	bnez	a5,80002edc <__call_exitprocs+0xf4>
    80002ebc:	000700e7          	jalr	a4
    80002ec0:	00892703          	lw	a4,8(s2)
    80002ec4:	1f8a3783          	ld	a5,504(s4)
    80002ec8:	01871463          	bne	a4,s8,80002ed0 <__call_exitprocs+0xe8>
    80002ecc:	f92782e3          	beq	a5,s2,80002e50 <__call_exitprocs+0x68>
    80002ed0:	f80786e3          	beqz	a5,80002e5c <__call_exitprocs+0x74>
    80002ed4:	00078913          	mv	s2,a5
    80002ed8:	f59ff06f          	j	80002e30 <__call_exitprocs+0x48>
    80002edc:	31492783          	lw	a5,788(s2)
    80002ee0:	1084b583          	ld	a1,264(s1)
    80002ee4:	00d7f7b3          	and	a5,a5,a3
    80002ee8:	0007879b          	sext.w	a5,a5
    80002eec:	00079c63          	bnez	a5,80002f04 <__call_exitprocs+0x11c>
    80002ef0:	000b0513          	mv	a0,s6
    80002ef4:	000700e7          	jalr	a4
    80002ef8:	fc9ff06f          	j	80002ec0 <__call_exitprocs+0xd8>
    80002efc:	00892423          	sw	s0,8(s2)
    80002f00:	fa1ff06f          	j	80002ea0 <__call_exitprocs+0xb8>
    80002f04:	00058513          	mv	a0,a1
    80002f08:	000700e7          	jalr	a4
    80002f0c:	fb5ff06f          	j	80002ec0 <__call_exitprocs+0xd8>

0000000080002f10 <__fp_lock>:
    80002f10:	00000513          	li	a0,0
    80002f14:	00008067          	ret

0000000080002f18 <_cleanup_r>:
    80002f18:	00002597          	auipc	a1,0x2
    80002f1c:	e9c58593          	addi	a1,a1,-356 # 80004db4 <_fclose_r>
    80002f20:	1310006f          	j	80003850 <_fwalk_reent>

0000000080002f24 <__fp_unlock>:
    80002f24:	00000513          	li	a0,0
    80002f28:	00008067          	ret

0000000080002f2c <__sinit.part.0>:
    80002f2c:	fc010113          	addi	sp,sp,-64
    80002f30:	02113c23          	sd	ra,56(sp)
    80002f34:	02813823          	sd	s0,48(sp)
    80002f38:	02913423          	sd	s1,40(sp)
    80002f3c:	03213023          	sd	s2,32(sp)
    80002f40:	01313c23          	sd	s3,24(sp)
    80002f44:	01413823          	sd	s4,16(sp)
    80002f48:	01513423          	sd	s5,8(sp)
    80002f4c:	01613023          	sd	s6,0(sp)
    80002f50:	00853403          	ld	s0,8(a0)
    80002f54:	00000717          	auipc	a4,0x0
    80002f58:	fc470713          	addi	a4,a4,-60 # 80002f18 <_cleanup_r>
    80002f5c:	04e53c23          	sd	a4,88(a0)
    80002f60:	53850793          	addi	a5,a0,1336
    80002f64:	00300713          	li	a4,3
    80002f68:	52e52423          	sw	a4,1320(a0)
    80002f6c:	52f53823          	sd	a5,1328(a0)
    80002f70:	52053023          	sd	zero,1312(a0)
    80002f74:	00400793          	li	a5,4
    80002f78:	00050913          	mv	s2,a0
    80002f7c:	00f42823          	sw	a5,16(s0)
    80002f80:	00800613          	li	a2,8
    80002f84:	00000593          	li	a1,0
    80002f88:	00043023          	sd	zero,0(s0)
    80002f8c:	00043423          	sd	zero,8(s0)
    80002f90:	0a042623          	sw	zero,172(s0)
    80002f94:	00043c23          	sd	zero,24(s0)
    80002f98:	02042023          	sw	zero,32(s0)
    80002f9c:	02042423          	sw	zero,40(s0)
    80002fa0:	0a440513          	addi	a0,s0,164
    80002fa4:	bbdff0ef          	jal	ra,80002b60 <memset>
    80002fa8:	01093483          	ld	s1,16(s2)
    80002fac:	00002b17          	auipc	s6,0x2
    80002fb0:	a9cb0b13          	addi	s6,s6,-1380 # 80004a48 <__sread>
    80002fb4:	00002a97          	auipc	s5,0x2
    80002fb8:	af8a8a93          	addi	s5,s5,-1288 # 80004aac <__swrite>
    80002fbc:	00002a17          	auipc	s4,0x2
    80002fc0:	b78a0a13          	addi	s4,s4,-1160 # 80004b34 <__sseek>
    80002fc4:	00002997          	auipc	s3,0x2
    80002fc8:	be898993          	addi	s3,s3,-1048 # 80004bac <__sclose>
    80002fcc:	000107b7          	lui	a5,0x10
    80002fd0:	03643c23          	sd	s6,56(s0)
    80002fd4:	05543023          	sd	s5,64(s0)
    80002fd8:	05443423          	sd	s4,72(s0)
    80002fdc:	05343823          	sd	s3,80(s0)
    80002fe0:	02843823          	sd	s0,48(s0)
    80002fe4:	00978793          	addi	a5,a5,9 # 10009 <_reset-0x7ffefff7>
    80002fe8:	00f4a823          	sw	a5,16(s1)
    80002fec:	00800613          	li	a2,8
    80002ff0:	00000593          	li	a1,0
    80002ff4:	0004b023          	sd	zero,0(s1)
    80002ff8:	0004b423          	sd	zero,8(s1)
    80002ffc:	0a04a623          	sw	zero,172(s1)
    80003000:	0004bc23          	sd	zero,24(s1)
    80003004:	0204a023          	sw	zero,32(s1)
    80003008:	0204a423          	sw	zero,40(s1)
    8000300c:	0a448513          	addi	a0,s1,164
    80003010:	b51ff0ef          	jal	ra,80002b60 <memset>
    80003014:	01893403          	ld	s0,24(s2)
    80003018:	000207b7          	lui	a5,0x20
    8000301c:	0364bc23          	sd	s6,56(s1)
    80003020:	0554b023          	sd	s5,64(s1)
    80003024:	0544b423          	sd	s4,72(s1)
    80003028:	0534b823          	sd	s3,80(s1)
    8000302c:	0294b823          	sd	s1,48(s1)
    80003030:	01278793          	addi	a5,a5,18 # 20012 <_reset-0x7ffdffee>
    80003034:	00f42823          	sw	a5,16(s0)
    80003038:	00043023          	sd	zero,0(s0)
    8000303c:	00043423          	sd	zero,8(s0)
    80003040:	0a042623          	sw	zero,172(s0)
    80003044:	00043c23          	sd	zero,24(s0)
    80003048:	02042023          	sw	zero,32(s0)
    8000304c:	02042423          	sw	zero,40(s0)
    80003050:	0a440513          	addi	a0,s0,164
    80003054:	00800613          	li	a2,8
    80003058:	00000593          	li	a1,0
    8000305c:	b05ff0ef          	jal	ra,80002b60 <memset>
    80003060:	03813083          	ld	ra,56(sp)
    80003064:	03643c23          	sd	s6,56(s0)
    80003068:	05543023          	sd	s5,64(s0)
    8000306c:	05443423          	sd	s4,72(s0)
    80003070:	05343823          	sd	s3,80(s0)
    80003074:	02843823          	sd	s0,48(s0)
    80003078:	03013403          	ld	s0,48(sp)
    8000307c:	00100793          	li	a5,1
    80003080:	04f92823          	sw	a5,80(s2)
    80003084:	02813483          	ld	s1,40(sp)
    80003088:	02013903          	ld	s2,32(sp)
    8000308c:	01813983          	ld	s3,24(sp)
    80003090:	01013a03          	ld	s4,16(sp)
    80003094:	00813a83          	ld	s5,8(sp)
    80003098:	00013b03          	ld	s6,0(sp)
    8000309c:	04010113          	addi	sp,sp,64
    800030a0:	00008067          	ret

00000000800030a4 <__sfmoreglue>:
    800030a4:	fe010113          	addi	sp,sp,-32
    800030a8:	00913423          	sd	s1,8(sp)
    800030ac:	0b000793          	li	a5,176
    800030b0:	fff5849b          	addiw	s1,a1,-1
    800030b4:	02f484b3          	mul	s1,s1,a5
    800030b8:	01213023          	sd	s2,0(sp)
    800030bc:	00058913          	mv	s2,a1
    800030c0:	00813823          	sd	s0,16(sp)
    800030c4:	00113c23          	sd	ra,24(sp)
    800030c8:	0c848593          	addi	a1,s1,200
    800030cc:	051000ef          	jal	ra,8000391c <_malloc_r>
    800030d0:	00050413          	mv	s0,a0
    800030d4:	02050063          	beqz	a0,800030f4 <__sfmoreglue+0x50>
    800030d8:	01850513          	addi	a0,a0,24
    800030dc:	00043023          	sd	zero,0(s0)
    800030e0:	01242423          	sw	s2,8(s0)
    800030e4:	00a43823          	sd	a0,16(s0)
    800030e8:	0b048613          	addi	a2,s1,176
    800030ec:	00000593          	li	a1,0
    800030f0:	a71ff0ef          	jal	ra,80002b60 <memset>
    800030f4:	01813083          	ld	ra,24(sp)
    800030f8:	00040513          	mv	a0,s0
    800030fc:	01013403          	ld	s0,16(sp)
    80003100:	00813483          	ld	s1,8(sp)
    80003104:	00013903          	ld	s2,0(sp)
    80003108:	02010113          	addi	sp,sp,32
    8000310c:	00008067          	ret

0000000080003110 <__sfp>:
    80003110:	fd010113          	addi	sp,sp,-48
    80003114:	00913c23          	sd	s1,24(sp)
    80003118:	7501b483          	ld	s1,1872(gp) # 80007c20 <_global_impure_ptr>
    8000311c:	0504a783          	lw	a5,80(s1)
    80003120:	01213823          	sd	s2,16(sp)
    80003124:	02113423          	sd	ra,40(sp)
    80003128:	02813023          	sd	s0,32(sp)
    8000312c:	01313423          	sd	s3,8(sp)
    80003130:	00050913          	mv	s2,a0
    80003134:	0a078863          	beqz	a5,800031e4 <__sfp+0xd4>
    80003138:	52048493          	addi	s1,s1,1312
    8000313c:	0b000993          	li	s3,176
    80003140:	0084a703          	lw	a4,8(s1)
    80003144:	0104b403          	ld	s0,16(s1)
    80003148:	08e05663          	blez	a4,800031d4 <__sfp+0xc4>
    8000314c:	02071713          	slli	a4,a4,0x20
    80003150:	02075713          	srli	a4,a4,0x20
    80003154:	03370733          	mul	a4,a4,s3
    80003158:	00e40733          	add	a4,s0,a4
    8000315c:	00c0006f          	j	80003168 <__sfp+0x58>
    80003160:	0b040413          	addi	s0,s0,176
    80003164:	06e40863          	beq	s0,a4,800031d4 <__sfp+0xc4>
    80003168:	01041783          	lh	a5,16(s0)
    8000316c:	fe079ae3          	bnez	a5,80003160 <__sfp+0x50>
    80003170:	ffff07b7          	lui	a5,0xffff0
    80003174:	00178793          	addi	a5,a5,1 # ffffffffffff0001 <__BSS_END__+0xffffffff7ffe8331>
    80003178:	00f42823          	sw	a5,16(s0)
    8000317c:	0a042623          	sw	zero,172(s0)
    80003180:	00043023          	sd	zero,0(s0)
    80003184:	00043423          	sd	zero,8(s0)
    80003188:	00043c23          	sd	zero,24(s0)
    8000318c:	02042023          	sw	zero,32(s0)
    80003190:	02042423          	sw	zero,40(s0)
    80003194:	00800613          	li	a2,8
    80003198:	00000593          	li	a1,0
    8000319c:	0a440513          	addi	a0,s0,164
    800031a0:	9c1ff0ef          	jal	ra,80002b60 <memset>
    800031a4:	04043c23          	sd	zero,88(s0)
    800031a8:	06042023          	sw	zero,96(s0)
    800031ac:	06043c23          	sd	zero,120(s0)
    800031b0:	08042023          	sw	zero,128(s0)
    800031b4:	02813083          	ld	ra,40(sp)
    800031b8:	00040513          	mv	a0,s0
    800031bc:	02013403          	ld	s0,32(sp)
    800031c0:	01813483          	ld	s1,24(sp)
    800031c4:	01013903          	ld	s2,16(sp)
    800031c8:	00813983          	ld	s3,8(sp)
    800031cc:	03010113          	addi	sp,sp,48
    800031d0:	00008067          	ret
    800031d4:	0004b403          	ld	s0,0(s1)
    800031d8:	00040c63          	beqz	s0,800031f0 <__sfp+0xe0>
    800031dc:	00040493          	mv	s1,s0
    800031e0:	f61ff06f          	j	80003140 <__sfp+0x30>
    800031e4:	00048513          	mv	a0,s1
    800031e8:	d45ff0ef          	jal	ra,80002f2c <__sinit.part.0>
    800031ec:	f4dff06f          	j	80003138 <__sfp+0x28>
    800031f0:	2d800593          	li	a1,728
    800031f4:	00090513          	mv	a0,s2
    800031f8:	724000ef          	jal	ra,8000391c <_malloc_r>
    800031fc:	00050413          	mv	s0,a0
    80003200:	02050863          	beqz	a0,80003230 <__sfp+0x120>
    80003204:	01850513          	addi	a0,a0,24
    80003208:	00400793          	li	a5,4
    8000320c:	00043023          	sd	zero,0(s0)
    80003210:	00f42423          	sw	a5,8(s0)
    80003214:	00a43823          	sd	a0,16(s0)
    80003218:	2c000613          	li	a2,704
    8000321c:	00000593          	li	a1,0
    80003220:	941ff0ef          	jal	ra,80002b60 <memset>
    80003224:	0084b023          	sd	s0,0(s1)
    80003228:	00040493          	mv	s1,s0
    8000322c:	f15ff06f          	j	80003140 <__sfp+0x30>
    80003230:	0004b023          	sd	zero,0(s1)
    80003234:	00c00793          	li	a5,12
    80003238:	00f92023          	sw	a5,0(s2)
    8000323c:	f79ff06f          	j	800031b4 <__sfp+0xa4>

0000000080003240 <_cleanup>:
    80003240:	00002597          	auipc	a1,0x2
    80003244:	b7458593          	addi	a1,a1,-1164 # 80004db4 <_fclose_r>
    80003248:	7501b503          	ld	a0,1872(gp) # 80007c20 <_global_impure_ptr>
    8000324c:	6040006f          	j	80003850 <_fwalk_reent>

0000000080003250 <__sinit>:
    80003250:	05052783          	lw	a5,80(a0)
    80003254:	00078463          	beqz	a5,8000325c <__sinit+0xc>
    80003258:	00008067          	ret
    8000325c:	cd1ff06f          	j	80002f2c <__sinit.part.0>

0000000080003260 <__sfp_lock_acquire>:
    80003260:	00008067          	ret

0000000080003264 <__sfp_lock_release>:
    80003264:	00008067          	ret

0000000080003268 <__sinit_lock_acquire>:
    80003268:	00008067          	ret

000000008000326c <__sinit_lock_release>:
    8000326c:	00008067          	ret

0000000080003270 <__fp_lock_all>:
    80003270:	00000597          	auipc	a1,0x0
    80003274:	ca058593          	addi	a1,a1,-864 # 80002f10 <__fp_lock>
    80003278:	7681b503          	ld	a0,1896(gp) # 80007c38 <_impure_ptr>
    8000327c:	5180006f          	j	80003794 <_fwalk>

0000000080003280 <__fp_unlock_all>:
    80003280:	00000597          	auipc	a1,0x0
    80003284:	ca458593          	addi	a1,a1,-860 # 80002f24 <__fp_unlock>
    80003288:	7681b503          	ld	a0,1896(gp) # 80007c38 <_impure_ptr>
    8000328c:	5080006f          	j	80003794 <_fwalk>

0000000080003290 <__libc_fini_array>:
    80003290:	fe010113          	addi	sp,sp,-32
    80003294:	00813823          	sd	s0,16(sp)
    80003298:	00004797          	auipc	a5,0x4
    8000329c:	a1078793          	addi	a5,a5,-1520 # 80006ca8 <__do_global_dtors_aux_fini_array_entry>
    800032a0:	00004417          	auipc	s0,0x4
    800032a4:	a1040413          	addi	s0,s0,-1520 # 80006cb0 <impure_data>
    800032a8:	40f40433          	sub	s0,s0,a5
    800032ac:	00913423          	sd	s1,8(sp)
    800032b0:	00113c23          	sd	ra,24(sp)
    800032b4:	40345493          	srai	s1,s0,0x3
    800032b8:	02048063          	beqz	s1,800032d8 <__libc_fini_array+0x48>
    800032bc:	ff840413          	addi	s0,s0,-8
    800032c0:	00f40433          	add	s0,s0,a5
    800032c4:	00043783          	ld	a5,0(s0)
    800032c8:	fff48493          	addi	s1,s1,-1
    800032cc:	ff840413          	addi	s0,s0,-8
    800032d0:	000780e7          	jalr	a5
    800032d4:	fe0498e3          	bnez	s1,800032c4 <__libc_fini_array+0x34>
    800032d8:	01813083          	ld	ra,24(sp)
    800032dc:	01013403          	ld	s0,16(sp)
    800032e0:	00813483          	ld	s1,8(sp)
    800032e4:	02010113          	addi	sp,sp,32
    800032e8:	00008067          	ret

00000000800032ec <__sfvwrite_r>:
    800032ec:	01063783          	ld	a5,16(a2)
    800032f0:	28078063          	beqz	a5,80003570 <__sfvwrite_r+0x284>
    800032f4:	01059703          	lh	a4,16(a1)
    800032f8:	fa010113          	addi	sp,sp,-96
    800032fc:	04813823          	sd	s0,80(sp)
    80003300:	03413823          	sd	s4,48(sp)
    80003304:	03613023          	sd	s6,32(sp)
    80003308:	04113c23          	sd	ra,88(sp)
    8000330c:	04913423          	sd	s1,72(sp)
    80003310:	05213023          	sd	s2,64(sp)
    80003314:	03313c23          	sd	s3,56(sp)
    80003318:	03513423          	sd	s5,40(sp)
    8000331c:	01713c23          	sd	s7,24(sp)
    80003320:	01813823          	sd	s8,16(sp)
    80003324:	01913423          	sd	s9,8(sp)
    80003328:	00877793          	andi	a5,a4,8
    8000332c:	00060b13          	mv	s6,a2
    80003330:	00050a13          	mv	s4,a0
    80003334:	00058413          	mv	s0,a1
    80003338:	08078863          	beqz	a5,800033c8 <__sfvwrite_r+0xdc>
    8000333c:	0185b783          	ld	a5,24(a1)
    80003340:	08078463          	beqz	a5,800033c8 <__sfvwrite_r+0xdc>
    80003344:	00277793          	andi	a5,a4,2
    80003348:	000b3483          	ld	s1,0(s6)
    8000334c:	08078e63          	beqz	a5,800033e8 <__sfvwrite_r+0xfc>
    80003350:	04043783          	ld	a5,64(s0)
    80003354:	03043583          	ld	a1,48(s0)
    80003358:	80000ab7          	lui	s5,0x80000
    8000335c:	00000993          	li	s3,0
    80003360:	00000913          	li	s2,0
    80003364:	c00aca93          	xori	s5,s5,-1024
    80003368:	00098613          	mv	a2,s3
    8000336c:	000a0513          	mv	a0,s4
    80003370:	04090463          	beqz	s2,800033b8 <__sfvwrite_r+0xcc>
    80003374:	00090693          	mv	a3,s2
    80003378:	012af463          	bgeu	s5,s2,80003380 <__sfvwrite_r+0x94>
    8000337c:	000a8693          	mv	a3,s5
    80003380:	0006869b          	sext.w	a3,a3
    80003384:	000780e7          	jalr	a5
    80003388:	1ca05a63          	blez	a0,8000355c <__sfvwrite_r+0x270>
    8000338c:	010b3783          	ld	a5,16(s6)
    80003390:	00a989b3          	add	s3,s3,a0
    80003394:	40a90933          	sub	s2,s2,a0
    80003398:	40a787b3          	sub	a5,a5,a0
    8000339c:	00fb3823          	sd	a5,16(s6)
    800033a0:	16078a63          	beqz	a5,80003514 <__sfvwrite_r+0x228>
    800033a4:	04043783          	ld	a5,64(s0)
    800033a8:	03043583          	ld	a1,48(s0)
    800033ac:	00098613          	mv	a2,s3
    800033b0:	000a0513          	mv	a0,s4
    800033b4:	fc0910e3          	bnez	s2,80003374 <__sfvwrite_r+0x88>
    800033b8:	0004b983          	ld	s3,0(s1)
    800033bc:	0084b903          	ld	s2,8(s1)
    800033c0:	01048493          	addi	s1,s1,16
    800033c4:	fa5ff06f          	j	80003368 <__sfvwrite_r+0x7c>
    800033c8:	00040593          	mv	a1,s0
    800033cc:	000a0513          	mv	a0,s4
    800033d0:	041010ef          	jal	ra,80004c10 <__swsetup_r>
    800033d4:	18051a63          	bnez	a0,80003568 <__sfvwrite_r+0x27c>
    800033d8:	01041703          	lh	a4,16(s0)
    800033dc:	000b3483          	ld	s1,0(s6)
    800033e0:	00277793          	andi	a5,a4,2
    800033e4:	f60796e3          	bnez	a5,80003350 <__sfvwrite_r+0x64>
    800033e8:	00177793          	andi	a5,a4,1
    800033ec:	08079e63          	bnez	a5,80003488 <__sfvwrite_r+0x19c>
    800033f0:	00c42b83          	lw	s7,12(s0)
    800033f4:	00043783          	ld	a5,0(s0)
    800033f8:	80000ab7          	lui	s5,0x80000
    800033fc:	00000c13          	li	s8,0
    80003400:	00000913          	li	s2,0
    80003404:	fffaca93          	not	s5,s5
    80003408:	00078513          	mv	a0,a5
    8000340c:	06090663          	beqz	s2,80003478 <__sfvwrite_r+0x18c>
    80003410:	20077693          	andi	a3,a4,512
    80003414:	1c068663          	beqz	a3,800035e0 <__sfvwrite_r+0x2f4>
    80003418:	27797063          	bgeu	s2,s7,80003678 <__sfvwrite_r+0x38c>
    8000341c:	00090c93          	mv	s9,s2
    80003420:	00090b93          	mv	s7,s2
    80003424:	000b8613          	mv	a2,s7
    80003428:	000c0593          	mv	a1,s8
    8000342c:	749000ef          	jal	ra,80004374 <memmove>
    80003430:	00c42703          	lw	a4,12(s0)
    80003434:	00043783          	ld	a5,0(s0)
    80003438:	00090993          	mv	s3,s2
    8000343c:	4197073b          	subw	a4,a4,s9
    80003440:	017787b3          	add	a5,a5,s7
    80003444:	00e42623          	sw	a4,12(s0)
    80003448:	00f43023          	sd	a5,0(s0)
    8000344c:	00000913          	li	s2,0
    80003450:	010b3783          	ld	a5,16(s6)
    80003454:	013c0c33          	add	s8,s8,s3
    80003458:	413787b3          	sub	a5,a5,s3
    8000345c:	00fb3823          	sd	a5,16(s6)
    80003460:	0a078a63          	beqz	a5,80003514 <__sfvwrite_r+0x228>
    80003464:	00043783          	ld	a5,0(s0)
    80003468:	01041703          	lh	a4,16(s0)
    8000346c:	00c42b83          	lw	s7,12(s0)
    80003470:	00078513          	mv	a0,a5
    80003474:	f8091ee3          	bnez	s2,80003410 <__sfvwrite_r+0x124>
    80003478:	0004bc03          	ld	s8,0(s1)
    8000347c:	0084b903          	ld	s2,8(s1)
    80003480:	01048493          	addi	s1,s1,16
    80003484:	f85ff06f          	j	80003408 <__sfvwrite_r+0x11c>
    80003488:	00000993          	li	s3,0
    8000348c:	00000513          	li	a0,0
    80003490:	00000c93          	li	s9,0
    80003494:	00000c13          	li	s8,0
    80003498:	0e0c0063          	beqz	s8,80003578 <__sfvwrite_r+0x28c>
    8000349c:	0e050863          	beqz	a0,8000358c <__sfvwrite_r+0x2a0>
    800034a0:	00098b93          	mv	s7,s3
    800034a4:	013c7463          	bgeu	s8,s3,800034ac <__sfvwrite_r+0x1c0>
    800034a8:	000c0b93          	mv	s7,s8
    800034ac:	00043503          	ld	a0,0(s0)
    800034b0:	01843703          	ld	a4,24(s0)
    800034b4:	00c42783          	lw	a5,12(s0)
    800034b8:	02042683          	lw	a3,32(s0)
    800034bc:	000b8913          	mv	s2,s7
    800034c0:	00a77663          	bgeu	a4,a0,800034cc <__sfvwrite_r+0x1e0>
    800034c4:	00d78abb          	addw	s5,a5,a3
    800034c8:	0f7ac263          	blt	s5,s7,800035ac <__sfvwrite_r+0x2c0>
    800034cc:	24dbc463          	blt	s7,a3,80003714 <__sfvwrite_r+0x428>
    800034d0:	04043783          	ld	a5,64(s0)
    800034d4:	03043583          	ld	a1,48(s0)
    800034d8:	000c8613          	mv	a2,s9
    800034dc:	000a0513          	mv	a0,s4
    800034e0:	000780e7          	jalr	a5
    800034e4:	00050913          	mv	s2,a0
    800034e8:	06a05a63          	blez	a0,8000355c <__sfvwrite_r+0x270>
    800034ec:	0005079b          	sext.w	a5,a0
    800034f0:	40f989bb          	subw	s3,s3,a5
    800034f4:	00100513          	li	a0,1
    800034f8:	04098a63          	beqz	s3,8000354c <__sfvwrite_r+0x260>
    800034fc:	010b3783          	ld	a5,16(s6)
    80003500:	012c8cb3          	add	s9,s9,s2
    80003504:	412c0c33          	sub	s8,s8,s2
    80003508:	412787b3          	sub	a5,a5,s2
    8000350c:	00fb3823          	sd	a5,16(s6)
    80003510:	f80794e3          	bnez	a5,80003498 <__sfvwrite_r+0x1ac>
    80003514:	00000513          	li	a0,0
    80003518:	05813083          	ld	ra,88(sp)
    8000351c:	05013403          	ld	s0,80(sp)
    80003520:	04813483          	ld	s1,72(sp)
    80003524:	04013903          	ld	s2,64(sp)
    80003528:	03813983          	ld	s3,56(sp)
    8000352c:	03013a03          	ld	s4,48(sp)
    80003530:	02813a83          	ld	s5,40(sp)
    80003534:	02013b03          	ld	s6,32(sp)
    80003538:	01813b83          	ld	s7,24(sp)
    8000353c:	01013c03          	ld	s8,16(sp)
    80003540:	00813c83          	ld	s9,8(sp)
    80003544:	06010113          	addi	sp,sp,96
    80003548:	00008067          	ret
    8000354c:	00040593          	mv	a1,s0
    80003550:	000a0513          	mv	a0,s4
    80003554:	3c9010ef          	jal	ra,8000511c <_fflush_r>
    80003558:	fa0502e3          	beqz	a0,800034fc <__sfvwrite_r+0x210>
    8000355c:	01041783          	lh	a5,16(s0)
    80003560:	0407e793          	ori	a5,a5,64
    80003564:	00f41823          	sh	a5,16(s0)
    80003568:	fff00513          	li	a0,-1
    8000356c:	fadff06f          	j	80003518 <__sfvwrite_r+0x22c>
    80003570:	00000513          	li	a0,0
    80003574:	00008067          	ret
    80003578:	0084bc03          	ld	s8,8(s1)
    8000357c:	00048793          	mv	a5,s1
    80003580:	01048493          	addi	s1,s1,16
    80003584:	fe0c0ae3          	beqz	s8,80003578 <__sfvwrite_r+0x28c>
    80003588:	0007bc83          	ld	s9,0(a5)
    8000358c:	000c0613          	mv	a2,s8
    80003590:	00a00593          	li	a1,10
    80003594:	000c8513          	mv	a0,s9
    80003598:	36d000ef          	jal	ra,80004104 <memchr>
    8000359c:	1e050063          	beqz	a0,8000377c <__sfvwrite_r+0x490>
    800035a0:	00150513          	addi	a0,a0,1
    800035a4:	419509bb          	subw	s3,a0,s9
    800035a8:	ef9ff06f          	j	800034a0 <__sfvwrite_r+0x1b4>
    800035ac:	000c8593          	mv	a1,s9
    800035b0:	000a8613          	mv	a2,s5
    800035b4:	5c1000ef          	jal	ra,80004374 <memmove>
    800035b8:	00043783          	ld	a5,0(s0)
    800035bc:	00040593          	mv	a1,s0
    800035c0:	000a0513          	mv	a0,s4
    800035c4:	015787b3          	add	a5,a5,s5
    800035c8:	00f43023          	sd	a5,0(s0)
    800035cc:	351010ef          	jal	ra,8000511c <_fflush_r>
    800035d0:	f80516e3          	bnez	a0,8000355c <__sfvwrite_r+0x270>
    800035d4:	000a8793          	mv	a5,s5
    800035d8:	000a8913          	mv	s2,s5
    800035dc:	f15ff06f          	j	800034f0 <__sfvwrite_r+0x204>
    800035e0:	01843703          	ld	a4,24(s0)
    800035e4:	04f76263          	bltu	a4,a5,80003628 <__sfvwrite_r+0x33c>
    800035e8:	02042703          	lw	a4,32(s0)
    800035ec:	02e96e63          	bltu	s2,a4,80003628 <__sfvwrite_r+0x33c>
    800035f0:	00090693          	mv	a3,s2
    800035f4:	012af463          	bgeu	s5,s2,800035fc <__sfvwrite_r+0x310>
    800035f8:	000a8693          	mv	a3,s5
    800035fc:	02e6e73b          	remw	a4,a3,a4
    80003600:	04043783          	ld	a5,64(s0)
    80003604:	03043583          	ld	a1,48(s0)
    80003608:	000c0613          	mv	a2,s8
    8000360c:	000a0513          	mv	a0,s4
    80003610:	40e686bb          	subw	a3,a3,a4
    80003614:	000780e7          	jalr	a5
    80003618:	00050993          	mv	s3,a0
    8000361c:	f4a050e3          	blez	a0,8000355c <__sfvwrite_r+0x270>
    80003620:	41390933          	sub	s2,s2,s3
    80003624:	e2dff06f          	j	80003450 <__sfvwrite_r+0x164>
    80003628:	000b8993          	mv	s3,s7
    8000362c:	01797463          	bgeu	s2,s7,80003634 <__sfvwrite_r+0x348>
    80003630:	00090993          	mv	s3,s2
    80003634:	00078513          	mv	a0,a5
    80003638:	00098613          	mv	a2,s3
    8000363c:	000c0593          	mv	a1,s8
    80003640:	535000ef          	jal	ra,80004374 <memmove>
    80003644:	00c42703          	lw	a4,12(s0)
    80003648:	00043783          	ld	a5,0(s0)
    8000364c:	413706bb          	subw	a3,a4,s3
    80003650:	013787b3          	add	a5,a5,s3
    80003654:	00d42623          	sw	a3,12(s0)
    80003658:	00f43023          	sd	a5,0(s0)
    8000365c:	fc0692e3          	bnez	a3,80003620 <__sfvwrite_r+0x334>
    80003660:	00040593          	mv	a1,s0
    80003664:	000a0513          	mv	a0,s4
    80003668:	2b5010ef          	jal	ra,8000511c <_fflush_r>
    8000366c:	ee0518e3          	bnez	a0,8000355c <__sfvwrite_r+0x270>
    80003670:	41390933          	sub	s2,s2,s3
    80003674:	dddff06f          	j	80003450 <__sfvwrite_r+0x164>
    80003678:	48077693          	andi	a3,a4,1152
    8000367c:	0c068263          	beqz	a3,80003740 <__sfvwrite_r+0x454>
    80003680:	02042603          	lw	a2,32(s0)
    80003684:	01843583          	ld	a1,24(s0)
    80003688:	0016169b          	slliw	a3,a2,0x1
    8000368c:	00c686bb          	addw	a3,a3,a2
    80003690:	40b787b3          	sub	a5,a5,a1
    80003694:	01f6d99b          	srliw	s3,a3,0x1f
    80003698:	00078b9b          	sext.w	s7,a5
    8000369c:	00d989bb          	addw	s3,s3,a3
    800036a0:	001b8693          	addi	a3,s7,1
    800036a4:	4019d99b          	sraiw	s3,s3,0x1
    800036a8:	012686b3          	add	a3,a3,s2
    800036ac:	00d9f663          	bgeu	s3,a3,800036b8 <__sfvwrite_r+0x3cc>
    800036b0:	0017879b          	addiw	a5,a5,1
    800036b4:	012789bb          	addw	s3,a5,s2
    800036b8:	40077713          	andi	a4,a4,1024
    800036bc:	08070663          	beqz	a4,80003748 <__sfvwrite_r+0x45c>
    800036c0:	00098593          	mv	a1,s3
    800036c4:	000a0513          	mv	a0,s4
    800036c8:	254000ef          	jal	ra,8000391c <_malloc_r>
    800036cc:	00050c93          	mv	s9,a0
    800036d0:	0a050a63          	beqz	a0,80003784 <__sfvwrite_r+0x498>
    800036d4:	01843583          	ld	a1,24(s0)
    800036d8:	000b8613          	mv	a2,s7
    800036dc:	2f5000ef          	jal	ra,800041d0 <memcpy>
    800036e0:	01045783          	lhu	a5,16(s0)
    800036e4:	b7f7f793          	andi	a5,a5,-1153
    800036e8:	0807e793          	ori	a5,a5,128
    800036ec:	00f41823          	sh	a5,16(s0)
    800036f0:	017c8533          	add	a0,s9,s7
    800036f4:	41798bbb          	subw	s7,s3,s7
    800036f8:	01943c23          	sd	s9,24(s0)
    800036fc:	01742623          	sw	s7,12(s0)
    80003700:	00a43023          	sd	a0,0(s0)
    80003704:	03342023          	sw	s3,32(s0)
    80003708:	00090c93          	mv	s9,s2
    8000370c:	00090b93          	mv	s7,s2
    80003710:	d15ff06f          	j	80003424 <__sfvwrite_r+0x138>
    80003714:	000b8613          	mv	a2,s7
    80003718:	000c8593          	mv	a1,s9
    8000371c:	459000ef          	jal	ra,80004374 <memmove>
    80003720:	00c42683          	lw	a3,12(s0)
    80003724:	00043703          	ld	a4,0(s0)
    80003728:	000b879b          	sext.w	a5,s7
    8000372c:	417686bb          	subw	a3,a3,s7
    80003730:	01770733          	add	a4,a4,s7
    80003734:	00d42623          	sw	a3,12(s0)
    80003738:	00e43023          	sd	a4,0(s0)
    8000373c:	db5ff06f          	j	800034f0 <__sfvwrite_r+0x204>
    80003740:	000b8c93          	mv	s9,s7
    80003744:	ce1ff06f          	j	80003424 <__sfvwrite_r+0x138>
    80003748:	00098613          	mv	a2,s3
    8000374c:	000a0513          	mv	a0,s4
    80003750:	549000ef          	jal	ra,80004498 <_realloc_r>
    80003754:	00050c93          	mv	s9,a0
    80003758:	f8051ce3          	bnez	a0,800036f0 <__sfvwrite_r+0x404>
    8000375c:	01843583          	ld	a1,24(s0)
    80003760:	000a0513          	mv	a0,s4
    80003764:	3d1010ef          	jal	ra,80005334 <_free_r>
    80003768:	01041783          	lh	a5,16(s0)
    8000376c:	00c00713          	li	a4,12
    80003770:	00ea2023          	sw	a4,0(s4)
    80003774:	f7f7f793          	andi	a5,a5,-129
    80003778:	de9ff06f          	j	80003560 <__sfvwrite_r+0x274>
    8000377c:	001c099b          	addiw	s3,s8,1
    80003780:	d21ff06f          	j	800034a0 <__sfvwrite_r+0x1b4>
    80003784:	00c00713          	li	a4,12
    80003788:	01041783          	lh	a5,16(s0)
    8000378c:	00ea2023          	sw	a4,0(s4)
    80003790:	dd1ff06f          	j	80003560 <__sfvwrite_r+0x274>

0000000080003794 <_fwalk>:
    80003794:	fb010113          	addi	sp,sp,-80
    80003798:	03213823          	sd	s2,48(sp)
    8000379c:	03313423          	sd	s3,40(sp)
    800037a0:	03413023          	sd	s4,32(sp)
    800037a4:	01513c23          	sd	s5,24(sp)
    800037a8:	01613823          	sd	s6,16(sp)
    800037ac:	01713423          	sd	s7,8(sp)
    800037b0:	04113423          	sd	ra,72(sp)
    800037b4:	04813023          	sd	s0,64(sp)
    800037b8:	02913c23          	sd	s1,56(sp)
    800037bc:	00058a93          	mv	s5,a1
    800037c0:	52050993          	addi	s3,a0,1312
    800037c4:	00000913          	li	s2,0
    800037c8:	0b000b13          	li	s6,176
    800037cc:	00100b93          	li	s7,1
    800037d0:	fff00a13          	li	s4,-1
    800037d4:	0089a483          	lw	s1,8(s3)
    800037d8:	0109b403          	ld	s0,16(s3)
    800037dc:	02905e63          	blez	s1,80003818 <_fwalk+0x84>
    800037e0:	02049493          	slli	s1,s1,0x20
    800037e4:	0204d493          	srli	s1,s1,0x20
    800037e8:	036484b3          	mul	s1,s1,s6
    800037ec:	009404b3          	add	s1,s0,s1
    800037f0:	01045783          	lhu	a5,16(s0)
    800037f4:	00fbfe63          	bgeu	s7,a5,80003810 <_fwalk+0x7c>
    800037f8:	01241783          	lh	a5,18(s0)
    800037fc:	00040513          	mv	a0,s0
    80003800:	01478863          	beq	a5,s4,80003810 <_fwalk+0x7c>
    80003804:	000a80e7          	jalr	s5 # ffffffff80000000 <__BSS_END__+0xfffffffeffff8330>
    80003808:	01256933          	or	s2,a0,s2
    8000380c:	0009091b          	sext.w	s2,s2
    80003810:	0b040413          	addi	s0,s0,176
    80003814:	fc849ee3          	bne	s1,s0,800037f0 <_fwalk+0x5c>
    80003818:	0009b983          	ld	s3,0(s3)
    8000381c:	fa099ce3          	bnez	s3,800037d4 <_fwalk+0x40>
    80003820:	04813083          	ld	ra,72(sp)
    80003824:	04013403          	ld	s0,64(sp)
    80003828:	03813483          	ld	s1,56(sp)
    8000382c:	02813983          	ld	s3,40(sp)
    80003830:	02013a03          	ld	s4,32(sp)
    80003834:	01813a83          	ld	s5,24(sp)
    80003838:	01013b03          	ld	s6,16(sp)
    8000383c:	00813b83          	ld	s7,8(sp)
    80003840:	00090513          	mv	a0,s2
    80003844:	03013903          	ld	s2,48(sp)
    80003848:	05010113          	addi	sp,sp,80
    8000384c:	00008067          	ret

0000000080003850 <_fwalk_reent>:
    80003850:	fb010113          	addi	sp,sp,-80
    80003854:	03213823          	sd	s2,48(sp)
    80003858:	03313423          	sd	s3,40(sp)
    8000385c:	03413023          	sd	s4,32(sp)
    80003860:	01513c23          	sd	s5,24(sp)
    80003864:	01613823          	sd	s6,16(sp)
    80003868:	01713423          	sd	s7,8(sp)
    8000386c:	01813023          	sd	s8,0(sp)
    80003870:	04113423          	sd	ra,72(sp)
    80003874:	04813023          	sd	s0,64(sp)
    80003878:	02913c23          	sd	s1,56(sp)
    8000387c:	00050993          	mv	s3,a0
    80003880:	00058b13          	mv	s6,a1
    80003884:	52050a13          	addi	s4,a0,1312
    80003888:	00000913          	li	s2,0
    8000388c:	0b000b93          	li	s7,176
    80003890:	00100c13          	li	s8,1
    80003894:	fff00a93          	li	s5,-1
    80003898:	008a2483          	lw	s1,8(s4)
    8000389c:	010a3403          	ld	s0,16(s4)
    800038a0:	04905063          	blez	s1,800038e0 <_fwalk_reent+0x90>
    800038a4:	02049493          	slli	s1,s1,0x20
    800038a8:	0204d493          	srli	s1,s1,0x20
    800038ac:	037484b3          	mul	s1,s1,s7
    800038b0:	009404b3          	add	s1,s0,s1
    800038b4:	01045783          	lhu	a5,16(s0)
    800038b8:	02fc7063          	bgeu	s8,a5,800038d8 <_fwalk_reent+0x88>
    800038bc:	01241783          	lh	a5,18(s0)
    800038c0:	00040593          	mv	a1,s0
    800038c4:	00098513          	mv	a0,s3
    800038c8:	01578863          	beq	a5,s5,800038d8 <_fwalk_reent+0x88>
    800038cc:	000b00e7          	jalr	s6
    800038d0:	01256933          	or	s2,a0,s2
    800038d4:	0009091b          	sext.w	s2,s2
    800038d8:	0b040413          	addi	s0,s0,176
    800038dc:	fc849ce3          	bne	s1,s0,800038b4 <_fwalk_reent+0x64>
    800038e0:	000a3a03          	ld	s4,0(s4)
    800038e4:	fa0a1ae3          	bnez	s4,80003898 <_fwalk_reent+0x48>
    800038e8:	04813083          	ld	ra,72(sp)
    800038ec:	04013403          	ld	s0,64(sp)
    800038f0:	03813483          	ld	s1,56(sp)
    800038f4:	02813983          	ld	s3,40(sp)
    800038f8:	02013a03          	ld	s4,32(sp)
    800038fc:	01813a83          	ld	s5,24(sp)
    80003900:	01013b03          	ld	s6,16(sp)
    80003904:	00813b83          	ld	s7,8(sp)
    80003908:	00013c03          	ld	s8,0(sp)
    8000390c:	00090513          	mv	a0,s2
    80003910:	03013903          	ld	s2,48(sp)
    80003914:	05010113          	addi	sp,sp,80
    80003918:	00008067          	ret

000000008000391c <_malloc_r>:
    8000391c:	fa010113          	addi	sp,sp,-96
    80003920:	04913423          	sd	s1,72(sp)
    80003924:	05213023          	sd	s2,64(sp)
    80003928:	04113c23          	sd	ra,88(sp)
    8000392c:	04813823          	sd	s0,80(sp)
    80003930:	03313c23          	sd	s3,56(sp)
    80003934:	03413823          	sd	s4,48(sp)
    80003938:	03513423          	sd	s5,40(sp)
    8000393c:	03613023          	sd	s6,32(sp)
    80003940:	01713c23          	sd	s7,24(sp)
    80003944:	01813823          	sd	s8,16(sp)
    80003948:	01913423          	sd	s9,8(sp)
    8000394c:	01758493          	addi	s1,a1,23
    80003950:	02e00793          	li	a5,46
    80003954:	00050913          	mv	s2,a0
    80003958:	0897ee63          	bltu	a5,s1,800039f4 <_malloc_r+0xd8>
    8000395c:	02000793          	li	a5,32
    80003960:	24b7e063          	bltu	a5,a1,80003ba0 <_malloc_r+0x284>
    80003964:	32d000ef          	jal	ra,80004490 <__malloc_lock>
    80003968:	02000493          	li	s1,32
    8000396c:	05000793          	li	a5,80
    80003970:	00400613          	li	a2,4
    80003974:	00004997          	auipc	s3,0x4
    80003978:	a8498993          	addi	s3,s3,-1404 # 800073f8 <__malloc_av_>
    8000397c:	00f987b3          	add	a5,s3,a5
    80003980:	0087b403          	ld	s0,8(a5)
    80003984:	ff078713          	addi	a4,a5,-16
    80003988:	32e40c63          	beq	s0,a4,80003cc0 <_malloc_r+0x3a4>
    8000398c:	00843783          	ld	a5,8(s0)
    80003990:	01843683          	ld	a3,24(s0)
    80003994:	01043603          	ld	a2,16(s0)
    80003998:	ffc7f793          	andi	a5,a5,-4
    8000399c:	00f407b3          	add	a5,s0,a5
    800039a0:	0087b703          	ld	a4,8(a5)
    800039a4:	00d63c23          	sd	a3,24(a2)
    800039a8:	00c6b823          	sd	a2,16(a3)
    800039ac:	00176713          	ori	a4,a4,1
    800039b0:	00090513          	mv	a0,s2
    800039b4:	00e7b423          	sd	a4,8(a5)
    800039b8:	2dd000ef          	jal	ra,80004494 <__malloc_unlock>
    800039bc:	01040513          	addi	a0,s0,16
    800039c0:	05813083          	ld	ra,88(sp)
    800039c4:	05013403          	ld	s0,80(sp)
    800039c8:	04813483          	ld	s1,72(sp)
    800039cc:	04013903          	ld	s2,64(sp)
    800039d0:	03813983          	ld	s3,56(sp)
    800039d4:	03013a03          	ld	s4,48(sp)
    800039d8:	02813a83          	ld	s5,40(sp)
    800039dc:	02013b03          	ld	s6,32(sp)
    800039e0:	01813b83          	ld	s7,24(sp)
    800039e4:	01013c03          	ld	s8,16(sp)
    800039e8:	00813c83          	ld	s9,8(sp)
    800039ec:	06010113          	addi	sp,sp,96
    800039f0:	00008067          	ret
    800039f4:	800007b7          	lui	a5,0x80000
    800039f8:	ff04f493          	andi	s1,s1,-16
    800039fc:	fff7c793          	not	a5,a5
    80003a00:	1a97e063          	bltu	a5,s1,80003ba0 <_malloc_r+0x284>
    80003a04:	18b4ee63          	bltu	s1,a1,80003ba0 <_malloc_r+0x284>
    80003a08:	289000ef          	jal	ra,80004490 <__malloc_lock>
    80003a0c:	1f700793          	li	a5,503
    80003a10:	4097f463          	bgeu	a5,s1,80003e18 <_malloc_r+0x4fc>
    80003a14:	0094d793          	srli	a5,s1,0x9
    80003a18:	18078c63          	beqz	a5,80003bb0 <_malloc_r+0x294>
    80003a1c:	00400713          	li	a4,4
    80003a20:	30f76a63          	bltu	a4,a5,80003d34 <_malloc_r+0x418>
    80003a24:	0064d793          	srli	a5,s1,0x6
    80003a28:	0397861b          	addiw	a2,a5,57 # ffffffff80000039 <__BSS_END__+0xfffffffeffff8369>
    80003a2c:	0016169b          	slliw	a3,a2,0x1
    80003a30:	0387851b          	addiw	a0,a5,56
    80003a34:	00369693          	slli	a3,a3,0x3
    80003a38:	00004997          	auipc	s3,0x4
    80003a3c:	9c098993          	addi	s3,s3,-1600 # 800073f8 <__malloc_av_>
    80003a40:	00d986b3          	add	a3,s3,a3
    80003a44:	0086b403          	ld	s0,8(a3)
    80003a48:	ff068693          	addi	a3,a3,-16
    80003a4c:	02868663          	beq	a3,s0,80003a78 <_malloc_r+0x15c>
    80003a50:	01f00593          	li	a1,31
    80003a54:	0100006f          	j	80003a64 <_malloc_r+0x148>
    80003a58:	24075e63          	bgez	a4,80003cb4 <_malloc_r+0x398>
    80003a5c:	01843403          	ld	s0,24(s0)
    80003a60:	00868c63          	beq	a3,s0,80003a78 <_malloc_r+0x15c>
    80003a64:	00843783          	ld	a5,8(s0)
    80003a68:	ffc7f793          	andi	a5,a5,-4
    80003a6c:	40978733          	sub	a4,a5,s1
    80003a70:	fee5d4e3          	bge	a1,a4,80003a58 <_malloc_r+0x13c>
    80003a74:	00050613          	mv	a2,a0
    80003a78:	0209b403          	ld	s0,32(s3)
    80003a7c:	00004897          	auipc	a7,0x4
    80003a80:	98c88893          	addi	a7,a7,-1652 # 80007408 <__malloc_av_+0x10>
    80003a84:	23140463          	beq	s0,a7,80003cac <_malloc_r+0x390>
    80003a88:	00843783          	ld	a5,8(s0)
    80003a8c:	01f00693          	li	a3,31
    80003a90:	ffc7f793          	andi	a5,a5,-4
    80003a94:	40978733          	sub	a4,a5,s1
    80003a98:	34e6c263          	blt	a3,a4,80003ddc <_malloc_r+0x4c0>
    80003a9c:	0319b423          	sd	a7,40(s3)
    80003aa0:	0319b023          	sd	a7,32(s3)
    80003aa4:	30075c63          	bgez	a4,80003dbc <_malloc_r+0x4a0>
    80003aa8:	1ff00713          	li	a4,511
    80003aac:	0089b503          	ld	a0,8(s3)
    80003ab0:	22f76063          	bltu	a4,a5,80003cd0 <_malloc_r+0x3b4>
    80003ab4:	0037d793          	srli	a5,a5,0x3
    80003ab8:	0017871b          	addiw	a4,a5,1
    80003abc:	0017171b          	slliw	a4,a4,0x1
    80003ac0:	00371713          	slli	a4,a4,0x3
    80003ac4:	00e98733          	add	a4,s3,a4
    80003ac8:	00073583          	ld	a1,0(a4)
    80003acc:	4027d79b          	sraiw	a5,a5,0x2
    80003ad0:	00100693          	li	a3,1
    80003ad4:	00f697b3          	sll	a5,a3,a5
    80003ad8:	00f56533          	or	a0,a0,a5
    80003adc:	ff070793          	addi	a5,a4,-16
    80003ae0:	00f43c23          	sd	a5,24(s0)
    80003ae4:	00b43823          	sd	a1,16(s0)
    80003ae8:	00a9b423          	sd	a0,8(s3)
    80003aec:	00873023          	sd	s0,0(a4)
    80003af0:	0085bc23          	sd	s0,24(a1)
    80003af4:	4026579b          	sraiw	a5,a2,0x2
    80003af8:	00100593          	li	a1,1
    80003afc:	00f595b3          	sll	a1,a1,a5
    80003b00:	0cb56063          	bltu	a0,a1,80003bc0 <_malloc_r+0x2a4>
    80003b04:	00a5f7b3          	and	a5,a1,a0
    80003b08:	02079463          	bnez	a5,80003b30 <_malloc_r+0x214>
    80003b0c:	00159593          	slli	a1,a1,0x1
    80003b10:	ffc67613          	andi	a2,a2,-4
    80003b14:	00a5f7b3          	and	a5,a1,a0
    80003b18:	0046061b          	addiw	a2,a2,4
    80003b1c:	00079a63          	bnez	a5,80003b30 <_malloc_r+0x214>
    80003b20:	00159593          	slli	a1,a1,0x1
    80003b24:	00a5f7b3          	and	a5,a1,a0
    80003b28:	0046061b          	addiw	a2,a2,4
    80003b2c:	fe078ae3          	beqz	a5,80003b20 <_malloc_r+0x204>
    80003b30:	01f00813          	li	a6,31
    80003b34:	0016031b          	addiw	t1,a2,1
    80003b38:	0013131b          	slliw	t1,t1,0x1
    80003b3c:	00331313          	slli	t1,t1,0x3
    80003b40:	ff030313          	addi	t1,t1,-16 # 800021d0 <frame_dummy+0x8>
    80003b44:	00698333          	add	t1,s3,t1
    80003b48:	00030513          	mv	a0,t1
    80003b4c:	01853783          	ld	a5,24(a0)
    80003b50:	00060e13          	mv	t3,a2
    80003b54:	20f50463          	beq	a0,a5,80003d5c <_malloc_r+0x440>
    80003b58:	0087b703          	ld	a4,8(a5)
    80003b5c:	00078413          	mv	s0,a5
    80003b60:	0187b783          	ld	a5,24(a5)
    80003b64:	ffc77713          	andi	a4,a4,-4
    80003b68:	409706b3          	sub	a3,a4,s1
    80003b6c:	20d84463          	blt	a6,a3,80003d74 <_malloc_r+0x458>
    80003b70:	fe06c2e3          	bltz	a3,80003b54 <_malloc_r+0x238>
    80003b74:	00e40733          	add	a4,s0,a4
    80003b78:	00873683          	ld	a3,8(a4)
    80003b7c:	01043603          	ld	a2,16(s0)
    80003b80:	00090513          	mv	a0,s2
    80003b84:	0016e693          	ori	a3,a3,1
    80003b88:	00d73423          	sd	a3,8(a4)
    80003b8c:	00f63c23          	sd	a5,24(a2)
    80003b90:	00c7b823          	sd	a2,16(a5)
    80003b94:	101000ef          	jal	ra,80004494 <__malloc_unlock>
    80003b98:	01040513          	addi	a0,s0,16
    80003b9c:	e25ff06f          	j	800039c0 <_malloc_r+0xa4>
    80003ba0:	00c00793          	li	a5,12
    80003ba4:	00f92023          	sw	a5,0(s2)
    80003ba8:	00000513          	li	a0,0
    80003bac:	e15ff06f          	j	800039c0 <_malloc_r+0xa4>
    80003bb0:	40000693          	li	a3,1024
    80003bb4:	04000613          	li	a2,64
    80003bb8:	03f00513          	li	a0,63
    80003bbc:	e7dff06f          	j	80003a38 <_malloc_r+0x11c>
    80003bc0:	0109b403          	ld	s0,16(s3)
    80003bc4:	00843783          	ld	a5,8(s0)
    80003bc8:	ffc7fa93          	andi	s5,a5,-4
    80003bcc:	009ae863          	bltu	s5,s1,80003bdc <_malloc_r+0x2c0>
    80003bd0:	409a8733          	sub	a4,s5,s1
    80003bd4:	01f00793          	li	a5,31
    80003bd8:	0ae7c663          	blt	a5,a4,80003c84 <_malloc_r+0x368>
    80003bdc:	77018c93          	addi	s9,gp,1904 # 80007c40 <__malloc_sbrk_base>
    80003be0:	000cb703          	ld	a4,0(s9)
    80003be4:	7901ba03          	ld	s4,1936(gp) # 80007c60 <__malloc_top_pad>
    80003be8:	fff00793          	li	a5,-1
    80003bec:	01540bb3          	add	s7,s0,s5
    80003bf0:	01448a33          	add	s4,s1,s4
    80003bf4:	3cf70c63          	beq	a4,a5,80003fcc <_malloc_r+0x6b0>
    80003bf8:	000017b7          	lui	a5,0x1
    80003bfc:	01f78793          	addi	a5,a5,31 # 101f <_reset-0x7fffefe1>
    80003c00:	00fa0a33          	add	s4,s4,a5
    80003c04:	fffff7b7          	lui	a5,0xfffff
    80003c08:	00fa7a33          	and	s4,s4,a5
    80003c0c:	000a0593          	mv	a1,s4
    80003c10:	00090513          	mv	a0,s2
    80003c14:	5e5000ef          	jal	ra,800049f8 <_sbrk_r>
    80003c18:	fff00793          	li	a5,-1
    80003c1c:	00050b13          	mv	s6,a0
    80003c20:	22f50663          	beq	a0,a5,80003e4c <_malloc_r+0x530>
    80003c24:	23756263          	bltu	a0,s7,80003e48 <_malloc_r+0x52c>
    80003c28:	00004c17          	auipc	s8,0x4
    80003c2c:	080c0c13          	addi	s8,s8,128 # 80007ca8 <__malloc_current_mallinfo>
    80003c30:	000c2783          	lw	a5,0(s8)
    80003c34:	0147873b          	addw	a4,a5,s4
    80003c38:	00ec2023          	sw	a4,0(s8)
    80003c3c:	00070693          	mv	a3,a4
    80003c40:	2aab9a63          	bne	s7,a0,80003ef4 <_malloc_r+0x5d8>
    80003c44:	03451793          	slli	a5,a0,0x34
    80003c48:	2a079663          	bnez	a5,80003ef4 <_malloc_r+0x5d8>
    80003c4c:	0109bb03          	ld	s6,16(s3)
    80003c50:	014a87b3          	add	a5,s5,s4
    80003c54:	0017e793          	ori	a5,a5,1
    80003c58:	00fb3423          	sd	a5,8(s6)
    80003c5c:	78818693          	addi	a3,gp,1928 # 80007c58 <__malloc_max_sbrked_mem>
    80003c60:	0006b603          	ld	a2,0(a3)
    80003c64:	00e67463          	bgeu	a2,a4,80003c6c <_malloc_r+0x350>
    80003c68:	00e6b023          	sd	a4,0(a3)
    80003c6c:	78018693          	addi	a3,gp,1920 # 80007c50 <__malloc_max_total_mem>
    80003c70:	0006b603          	ld	a2,0(a3)
    80003c74:	00e67463          	bgeu	a2,a4,80003c7c <_malloc_r+0x360>
    80003c78:	00e6b023          	sd	a4,0(a3)
    80003c7c:	000b0413          	mv	s0,s6
    80003c80:	1d40006f          	j	80003e54 <_malloc_r+0x538>
    80003c84:	0014e793          	ori	a5,s1,1
    80003c88:	00f43423          	sd	a5,8(s0)
    80003c8c:	009404b3          	add	s1,s0,s1
    80003c90:	0099b823          	sd	s1,16(s3)
    80003c94:	00176713          	ori	a4,a4,1
    80003c98:	00090513          	mv	a0,s2
    80003c9c:	00e4b423          	sd	a4,8(s1)
    80003ca0:	7f4000ef          	jal	ra,80004494 <__malloc_unlock>
    80003ca4:	01040513          	addi	a0,s0,16
    80003ca8:	d19ff06f          	j	800039c0 <_malloc_r+0xa4>
    80003cac:	0089b503          	ld	a0,8(s3)
    80003cb0:	e45ff06f          	j	80003af4 <_malloc_r+0x1d8>
    80003cb4:	01843683          	ld	a3,24(s0)
    80003cb8:	01043603          	ld	a2,16(s0)
    80003cbc:	ce1ff06f          	j	8000399c <_malloc_r+0x80>
    80003cc0:	0187b403          	ld	s0,24(a5) # fffffffffffff018 <__BSS_END__+0xffffffff7fff7348>
    80003cc4:	0026061b          	addiw	a2,a2,2
    80003cc8:	da8788e3          	beq	a5,s0,80003a78 <_malloc_r+0x15c>
    80003ccc:	cc1ff06f          	j	8000398c <_malloc_r+0x70>
    80003cd0:	0097d713          	srli	a4,a5,0x9
    80003cd4:	00400693          	li	a3,4
    80003cd8:	14e6fc63          	bgeu	a3,a4,80003e30 <_malloc_r+0x514>
    80003cdc:	01400693          	li	a3,20
    80003ce0:	32e6ec63          	bltu	a3,a4,80004018 <_malloc_r+0x6fc>
    80003ce4:	05c7059b          	addiw	a1,a4,92
    80003ce8:	0015959b          	slliw	a1,a1,0x1
    80003cec:	05b7069b          	addiw	a3,a4,91
    80003cf0:	00359593          	slli	a1,a1,0x3
    80003cf4:	00b985b3          	add	a1,s3,a1
    80003cf8:	0005b703          	ld	a4,0(a1)
    80003cfc:	ff058593          	addi	a1,a1,-16
    80003d00:	00e59863          	bne	a1,a4,80003d10 <_malloc_r+0x3f4>
    80003d04:	2d00006f          	j	80003fd4 <_malloc_r+0x6b8>
    80003d08:	01073703          	ld	a4,16(a4)
    80003d0c:	00e58863          	beq	a1,a4,80003d1c <_malloc_r+0x400>
    80003d10:	00873683          	ld	a3,8(a4)
    80003d14:	ffc6f693          	andi	a3,a3,-4
    80003d18:	fed7e8e3          	bltu	a5,a3,80003d08 <_malloc_r+0x3ec>
    80003d1c:	01873583          	ld	a1,24(a4)
    80003d20:	00b43c23          	sd	a1,24(s0)
    80003d24:	00e43823          	sd	a4,16(s0)
    80003d28:	0085b823          	sd	s0,16(a1)
    80003d2c:	00873c23          	sd	s0,24(a4)
    80003d30:	dc5ff06f          	j	80003af4 <_malloc_r+0x1d8>
    80003d34:	01400713          	li	a4,20
    80003d38:	14f77063          	bgeu	a4,a5,80003e78 <_malloc_r+0x55c>
    80003d3c:	05400713          	li	a4,84
    80003d40:	2ef76c63          	bltu	a4,a5,80004038 <_malloc_r+0x71c>
    80003d44:	00c4d793          	srli	a5,s1,0xc
    80003d48:	06f7861b          	addiw	a2,a5,111
    80003d4c:	0016169b          	slliw	a3,a2,0x1
    80003d50:	06e7851b          	addiw	a0,a5,110
    80003d54:	00369693          	slli	a3,a3,0x3
    80003d58:	ce1ff06f          	j	80003a38 <_malloc_r+0x11c>
    80003d5c:	001e0e1b          	addiw	t3,t3,1
    80003d60:	003e7793          	andi	a5,t3,3
    80003d64:	01050513          	addi	a0,a0,16
    80003d68:	12078863          	beqz	a5,80003e98 <_malloc_r+0x57c>
    80003d6c:	01853783          	ld	a5,24(a0)
    80003d70:	de5ff06f          	j	80003b54 <_malloc_r+0x238>
    80003d74:	01043603          	ld	a2,16(s0)
    80003d78:	0014e593          	ori	a1,s1,1
    80003d7c:	00b43423          	sd	a1,8(s0)
    80003d80:	00f63c23          	sd	a5,24(a2)
    80003d84:	00c7b823          	sd	a2,16(a5)
    80003d88:	009404b3          	add	s1,s0,s1
    80003d8c:	0299b423          	sd	s1,40(s3)
    80003d90:	0299b023          	sd	s1,32(s3)
    80003d94:	0016e793          	ori	a5,a3,1
    80003d98:	0114bc23          	sd	a7,24(s1)
    80003d9c:	0114b823          	sd	a7,16(s1)
    80003da0:	00f4b423          	sd	a5,8(s1)
    80003da4:	00e40733          	add	a4,s0,a4
    80003da8:	00090513          	mv	a0,s2
    80003dac:	00d73023          	sd	a3,0(a4)
    80003db0:	6e4000ef          	jal	ra,80004494 <__malloc_unlock>
    80003db4:	01040513          	addi	a0,s0,16
    80003db8:	c09ff06f          	j	800039c0 <_malloc_r+0xa4>
    80003dbc:	00f407b3          	add	a5,s0,a5
    80003dc0:	0087b703          	ld	a4,8(a5)
    80003dc4:	00090513          	mv	a0,s2
    80003dc8:	00176713          	ori	a4,a4,1
    80003dcc:	00e7b423          	sd	a4,8(a5)
    80003dd0:	6c4000ef          	jal	ra,80004494 <__malloc_unlock>
    80003dd4:	01040513          	addi	a0,s0,16
    80003dd8:	be9ff06f          	j	800039c0 <_malloc_r+0xa4>
    80003ddc:	0014e693          	ori	a3,s1,1
    80003de0:	00d43423          	sd	a3,8(s0)
    80003de4:	009404b3          	add	s1,s0,s1
    80003de8:	0299b423          	sd	s1,40(s3)
    80003dec:	0299b023          	sd	s1,32(s3)
    80003df0:	00176693          	ori	a3,a4,1
    80003df4:	0114bc23          	sd	a7,24(s1)
    80003df8:	0114b823          	sd	a7,16(s1)
    80003dfc:	00d4b423          	sd	a3,8(s1)
    80003e00:	00f407b3          	add	a5,s0,a5
    80003e04:	00090513          	mv	a0,s2
    80003e08:	00e7b023          	sd	a4,0(a5)
    80003e0c:	688000ef          	jal	ra,80004494 <__malloc_unlock>
    80003e10:	01040513          	addi	a0,s0,16
    80003e14:	badff06f          	j	800039c0 <_malloc_r+0xa4>
    80003e18:	0034d613          	srli	a2,s1,0x3
    80003e1c:	0016079b          	addiw	a5,a2,1
    80003e20:	0017979b          	slliw	a5,a5,0x1
    80003e24:	0006061b          	sext.w	a2,a2
    80003e28:	00379793          	slli	a5,a5,0x3
    80003e2c:	b49ff06f          	j	80003974 <_malloc_r+0x58>
    80003e30:	0067d713          	srli	a4,a5,0x6
    80003e34:	0397059b          	addiw	a1,a4,57
    80003e38:	0015959b          	slliw	a1,a1,0x1
    80003e3c:	0387069b          	addiw	a3,a4,56
    80003e40:	00359593          	slli	a1,a1,0x3
    80003e44:	eb1ff06f          	j	80003cf4 <_malloc_r+0x3d8>
    80003e48:	09340c63          	beq	s0,s3,80003ee0 <_malloc_r+0x5c4>
    80003e4c:	0109b403          	ld	s0,16(s3)
    80003e50:	00843783          	ld	a5,8(s0)
    80003e54:	ffc7f793          	andi	a5,a5,-4
    80003e58:	40978733          	sub	a4,a5,s1
    80003e5c:	0097e663          	bltu	a5,s1,80003e68 <_malloc_r+0x54c>
    80003e60:	01f00793          	li	a5,31
    80003e64:	e2e7c0e3          	blt	a5,a4,80003c84 <_malloc_r+0x368>
    80003e68:	00090513          	mv	a0,s2
    80003e6c:	628000ef          	jal	ra,80004494 <__malloc_unlock>
    80003e70:	00000513          	li	a0,0
    80003e74:	b4dff06f          	j	800039c0 <_malloc_r+0xa4>
    80003e78:	05c7861b          	addiw	a2,a5,92
    80003e7c:	0016169b          	slliw	a3,a2,0x1
    80003e80:	05b7851b          	addiw	a0,a5,91
    80003e84:	00369693          	slli	a3,a3,0x3
    80003e88:	bb1ff06f          	j	80003a38 <_malloc_r+0x11c>
    80003e8c:	01033783          	ld	a5,16(t1)
    80003e90:	fff6061b          	addiw	a2,a2,-1
    80003e94:	26679463          	bne	a5,t1,800040fc <_malloc_r+0x7e0>
    80003e98:	00367793          	andi	a5,a2,3
    80003e9c:	ff030313          	addi	t1,t1,-16
    80003ea0:	fe0796e3          	bnez	a5,80003e8c <_malloc_r+0x570>
    80003ea4:	0089b703          	ld	a4,8(s3)
    80003ea8:	fff5c793          	not	a5,a1
    80003eac:	00e7f7b3          	and	a5,a5,a4
    80003eb0:	00f9b423          	sd	a5,8(s3)
    80003eb4:	00159593          	slli	a1,a1,0x1
    80003eb8:	d0b7e4e3          	bltu	a5,a1,80003bc0 <_malloc_r+0x2a4>
    80003ebc:	d00582e3          	beqz	a1,80003bc0 <_malloc_r+0x2a4>
    80003ec0:	00f5f733          	and	a4,a1,a5
    80003ec4:	00071a63          	bnez	a4,80003ed8 <_malloc_r+0x5bc>
    80003ec8:	00159593          	slli	a1,a1,0x1
    80003ecc:	00f5f733          	and	a4,a1,a5
    80003ed0:	004e0e1b          	addiw	t3,t3,4
    80003ed4:	fe070ae3          	beqz	a4,80003ec8 <_malloc_r+0x5ac>
    80003ed8:	000e0613          	mv	a2,t3
    80003edc:	c59ff06f          	j	80003b34 <_malloc_r+0x218>
    80003ee0:	00004c17          	auipc	s8,0x4
    80003ee4:	dc8c0c13          	addi	s8,s8,-568 # 80007ca8 <__malloc_current_mallinfo>
    80003ee8:	000c2783          	lw	a5,0(s8)
    80003eec:	014786bb          	addw	a3,a5,s4
    80003ef0:	00dc2023          	sw	a3,0(s8)
    80003ef4:	000cb703          	ld	a4,0(s9)
    80003ef8:	fff00793          	li	a5,-1
    80003efc:	14f70e63          	beq	a4,a5,80004058 <_malloc_r+0x73c>
    80003f00:	417b07b3          	sub	a5,s6,s7
    80003f04:	00d787bb          	addw	a5,a5,a3
    80003f08:	00fc2023          	sw	a5,0(s8)
    80003f0c:	00fb7c93          	andi	s9,s6,15
    80003f10:	0c0c8e63          	beqz	s9,80003fec <_malloc_r+0x6d0>
    80003f14:	00001737          	lui	a4,0x1
    80003f18:	419b0b33          	sub	s6,s6,s9
    80003f1c:	01070b93          	addi	s7,a4,16 # 1010 <_reset-0x7fffeff0>
    80003f20:	010b0b13          	addi	s6,s6,16
    80003f24:	419b8bb3          	sub	s7,s7,s9
    80003f28:	014b0a33          	add	s4,s6,s4
    80003f2c:	fff70713          	addi	a4,a4,-1
    80003f30:	414b8bb3          	sub	s7,s7,s4
    80003f34:	00ebfbb3          	and	s7,s7,a4
    80003f38:	000b8593          	mv	a1,s7
    80003f3c:	00090513          	mv	a0,s2
    80003f40:	2b9000ef          	jal	ra,800049f8 <_sbrk_r>
    80003f44:	fff00793          	li	a5,-1
    80003f48:	16f50263          	beq	a0,a5,800040ac <_malloc_r+0x790>
    80003f4c:	41650533          	sub	a0,a0,s6
    80003f50:	000b869b          	sext.w	a3,s7
    80003f54:	01750a33          	add	s4,a0,s7
    80003f58:	000c2703          	lw	a4,0(s8)
    80003f5c:	0169b823          	sd	s6,16(s3)
    80003f60:	001a6793          	ori	a5,s4,1
    80003f64:	00d7073b          	addw	a4,a4,a3
    80003f68:	00ec2023          	sw	a4,0(s8)
    80003f6c:	00fb3423          	sd	a5,8(s6)
    80003f70:	cf3406e3          	beq	s0,s3,80003c5c <_malloc_r+0x340>
    80003f74:	01f00613          	li	a2,31
    80003f78:	0f567463          	bgeu	a2,s5,80004060 <_malloc_r+0x744>
    80003f7c:	00843683          	ld	a3,8(s0)
    80003f80:	fe8a8793          	addi	a5,s5,-24
    80003f84:	ff07f793          	andi	a5,a5,-16
    80003f88:	0016f693          	andi	a3,a3,1
    80003f8c:	00f6e6b3          	or	a3,a3,a5
    80003f90:	00d43423          	sd	a3,8(s0)
    80003f94:	00900593          	li	a1,9
    80003f98:	00f406b3          	add	a3,s0,a5
    80003f9c:	00b6b423          	sd	a1,8(a3)
    80003fa0:	00b6b823          	sd	a1,16(a3)
    80003fa4:	00f66663          	bltu	a2,a5,80003fb0 <_malloc_r+0x694>
    80003fa8:	008b3783          	ld	a5,8(s6)
    80003fac:	cb1ff06f          	j	80003c5c <_malloc_r+0x340>
    80003fb0:	01040593          	addi	a1,s0,16
    80003fb4:	00090513          	mv	a0,s2
    80003fb8:	37c010ef          	jal	ra,80005334 <_free_r>
    80003fbc:	0109bb03          	ld	s6,16(s3)
    80003fc0:	000c2703          	lw	a4,0(s8)
    80003fc4:	008b3783          	ld	a5,8(s6)
    80003fc8:	c95ff06f          	j	80003c5c <_malloc_r+0x340>
    80003fcc:	020a0a13          	addi	s4,s4,32
    80003fd0:	c3dff06f          	j	80003c0c <_malloc_r+0x2f0>
    80003fd4:	4026d69b          	sraiw	a3,a3,0x2
    80003fd8:	00100793          	li	a5,1
    80003fdc:	00d797b3          	sll	a5,a5,a3
    80003fe0:	00f56533          	or	a0,a0,a5
    80003fe4:	00a9b423          	sd	a0,8(s3)
    80003fe8:	d39ff06f          	j	80003d20 <_malloc_r+0x404>
    80003fec:	014b0bb3          	add	s7,s6,s4
    80003ff0:	41700bb3          	neg	s7,s7
    80003ff4:	034b9b93          	slli	s7,s7,0x34
    80003ff8:	034bdb93          	srli	s7,s7,0x34
    80003ffc:	000b8593          	mv	a1,s7
    80004000:	00090513          	mv	a0,s2
    80004004:	1f5000ef          	jal	ra,800049f8 <_sbrk_r>
    80004008:	fff00793          	li	a5,-1
    8000400c:	00000693          	li	a3,0
    80004010:	f2f51ee3          	bne	a0,a5,80003f4c <_malloc_r+0x630>
    80004014:	f45ff06f          	j	80003f58 <_malloc_r+0x63c>
    80004018:	05400693          	li	a3,84
    8000401c:	04e6e863          	bltu	a3,a4,8000406c <_malloc_r+0x750>
    80004020:	00c7d713          	srli	a4,a5,0xc
    80004024:	06f7059b          	addiw	a1,a4,111
    80004028:	0015959b          	slliw	a1,a1,0x1
    8000402c:	06e7069b          	addiw	a3,a4,110
    80004030:	00359593          	slli	a1,a1,0x3
    80004034:	cc1ff06f          	j	80003cf4 <_malloc_r+0x3d8>
    80004038:	15400713          	li	a4,340
    8000403c:	04f76863          	bltu	a4,a5,8000408c <_malloc_r+0x770>
    80004040:	00f4d793          	srli	a5,s1,0xf
    80004044:	0787861b          	addiw	a2,a5,120
    80004048:	0016169b          	slliw	a3,a2,0x1
    8000404c:	0777851b          	addiw	a0,a5,119
    80004050:	00369693          	slli	a3,a3,0x3
    80004054:	9e5ff06f          	j	80003a38 <_malloc_r+0x11c>
    80004058:	016cb023          	sd	s6,0(s9)
    8000405c:	eb1ff06f          	j	80003f0c <_malloc_r+0x5f0>
    80004060:	00100793          	li	a5,1
    80004064:	00fb3423          	sd	a5,8(s6)
    80004068:	e01ff06f          	j	80003e68 <_malloc_r+0x54c>
    8000406c:	15400693          	li	a3,340
    80004070:	04e6e863          	bltu	a3,a4,800040c0 <_malloc_r+0x7a4>
    80004074:	00f7d713          	srli	a4,a5,0xf
    80004078:	0787059b          	addiw	a1,a4,120
    8000407c:	0015959b          	slliw	a1,a1,0x1
    80004080:	0777069b          	addiw	a3,a4,119
    80004084:	00359593          	slli	a1,a1,0x3
    80004088:	c6dff06f          	j	80003cf4 <_malloc_r+0x3d8>
    8000408c:	55400713          	li	a4,1364
    80004090:	04f76863          	bltu	a4,a5,800040e0 <_malloc_r+0x7c4>
    80004094:	0124d793          	srli	a5,s1,0x12
    80004098:	07d7861b          	addiw	a2,a5,125
    8000409c:	0016169b          	slliw	a3,a2,0x1
    800040a0:	07c7851b          	addiw	a0,a5,124
    800040a4:	00369693          	slli	a3,a3,0x3
    800040a8:	991ff06f          	j	80003a38 <_malloc_r+0x11c>
    800040ac:	ff0c8c93          	addi	s9,s9,-16
    800040b0:	019a0a33          	add	s4,s4,s9
    800040b4:	416a0a33          	sub	s4,s4,s6
    800040b8:	00000693          	li	a3,0
    800040bc:	e9dff06f          	j	80003f58 <_malloc_r+0x63c>
    800040c0:	55400693          	li	a3,1364
    800040c4:	02e6e663          	bltu	a3,a4,800040f0 <_malloc_r+0x7d4>
    800040c8:	0127d713          	srli	a4,a5,0x12
    800040cc:	07d7059b          	addiw	a1,a4,125
    800040d0:	0015959b          	slliw	a1,a1,0x1
    800040d4:	07c7069b          	addiw	a3,a4,124
    800040d8:	00359593          	slli	a1,a1,0x3
    800040dc:	c19ff06f          	j	80003cf4 <_malloc_r+0x3d8>
    800040e0:	7f000693          	li	a3,2032
    800040e4:	07f00613          	li	a2,127
    800040e8:	07e00513          	li	a0,126
    800040ec:	94dff06f          	j	80003a38 <_malloc_r+0x11c>
    800040f0:	7f000593          	li	a1,2032
    800040f4:	07e00693          	li	a3,126
    800040f8:	bfdff06f          	j	80003cf4 <_malloc_r+0x3d8>
    800040fc:	0089b783          	ld	a5,8(s3)
    80004100:	db5ff06f          	j	80003eb4 <_malloc_r+0x598>

0000000080004104 <memchr>:
    80004104:	00757793          	andi	a5,a0,7
    80004108:	0ff5f693          	zext.b	a3,a1
    8000410c:	02078e63          	beqz	a5,80004148 <memchr+0x44>
    80004110:	fff60793          	addi	a5,a2,-1
    80004114:	02060663          	beqz	a2,80004140 <memchr+0x3c>
    80004118:	fff00613          	li	a2,-1
    8000411c:	0180006f          	j	80004134 <memchr+0x30>
    80004120:	00150513          	addi	a0,a0,1
    80004124:	00757713          	andi	a4,a0,7
    80004128:	02070263          	beqz	a4,8000414c <memchr+0x48>
    8000412c:	fff78793          	addi	a5,a5,-1
    80004130:	00c78863          	beq	a5,a2,80004140 <memchr+0x3c>
    80004134:	00054703          	lbu	a4,0(a0)
    80004138:	fed714e3          	bne	a4,a3,80004120 <memchr+0x1c>
    8000413c:	00008067          	ret
    80004140:	00000513          	li	a0,0
    80004144:	00008067          	ret
    80004148:	00060793          	mv	a5,a2
    8000414c:	00700713          	li	a4,7
    80004150:	06f77063          	bgeu	a4,a5,800041b0 <memchr+0xac>
    80004154:	0ff5f593          	zext.b	a1,a1
    80004158:	00859713          	slli	a4,a1,0x8
    8000415c:	00b70733          	add	a4,a4,a1
    80004160:	01071593          	slli	a1,a4,0x10
    80004164:	00e585b3          	add	a1,a1,a4
    80004168:	02059713          	slli	a4,a1,0x20
    8000416c:	00e585b3          	add	a1,a1,a4
    80004170:	00004897          	auipc	a7,0x4
    80004174:	aa08b883          	ld	a7,-1376(a7) # 80007c10 <__SDATA_BEGIN__+0x8>
    80004178:	00004817          	auipc	a6,0x4
    8000417c:	aa083803          	ld	a6,-1376(a6) # 80007c18 <__SDATA_BEGIN__+0x10>
    80004180:	00700313          	li	t1,7
    80004184:	0100006f          	j	80004194 <memchr+0x90>
    80004188:	ff878793          	addi	a5,a5,-8
    8000418c:	00850513          	addi	a0,a0,8
    80004190:	02f37063          	bgeu	t1,a5,800041b0 <memchr+0xac>
    80004194:	00053703          	ld	a4,0(a0)
    80004198:	00e5c733          	xor	a4,a1,a4
    8000419c:	01170633          	add	a2,a4,a7
    800041a0:	fff74713          	not	a4,a4
    800041a4:	00e67733          	and	a4,a2,a4
    800041a8:	01077733          	and	a4,a4,a6
    800041ac:	fc070ee3          	beqz	a4,80004188 <memchr+0x84>
    800041b0:	00f50733          	add	a4,a0,a5
    800041b4:	00079863          	bnez	a5,800041c4 <memchr+0xc0>
    800041b8:	f89ff06f          	j	80004140 <memchr+0x3c>
    800041bc:	00150513          	addi	a0,a0,1
    800041c0:	f8a700e3          	beq	a4,a0,80004140 <memchr+0x3c>
    800041c4:	00054783          	lbu	a5,0(a0)
    800041c8:	fed79ae3          	bne	a5,a3,800041bc <memchr+0xb8>
    800041cc:	00008067          	ret

00000000800041d0 <memcpy>:
    800041d0:	00b547b3          	xor	a5,a0,a1
    800041d4:	0077f793          	andi	a5,a5,7
    800041d8:	00c508b3          	add	a7,a0,a2
    800041dc:	06079463          	bnez	a5,80004244 <memcpy+0x74>
    800041e0:	00700793          	li	a5,7
    800041e4:	06c7f063          	bgeu	a5,a2,80004244 <memcpy+0x74>
    800041e8:	00757793          	andi	a5,a0,7
    800041ec:	00050713          	mv	a4,a0
    800041f0:	06079a63          	bnez	a5,80004264 <memcpy+0x94>
    800041f4:	ff88f613          	andi	a2,a7,-8
    800041f8:	40e606b3          	sub	a3,a2,a4
    800041fc:	04000793          	li	a5,64
    80004200:	08d7ce63          	blt	a5,a3,8000429c <memcpy+0xcc>
    80004204:	00058693          	mv	a3,a1
    80004208:	00070793          	mv	a5,a4
    8000420c:	02c77863          	bgeu	a4,a2,8000423c <memcpy+0x6c>
    80004210:	0006b803          	ld	a6,0(a3)
    80004214:	00878793          	addi	a5,a5,8
    80004218:	00868693          	addi	a3,a3,8
    8000421c:	ff07bc23          	sd	a6,-8(a5)
    80004220:	fec7e8e3          	bltu	a5,a2,80004210 <memcpy+0x40>
    80004224:	fff60793          	addi	a5,a2,-1
    80004228:	40e787b3          	sub	a5,a5,a4
    8000422c:	ff87f793          	andi	a5,a5,-8
    80004230:	00878793          	addi	a5,a5,8
    80004234:	00f70733          	add	a4,a4,a5
    80004238:	00f585b3          	add	a1,a1,a5
    8000423c:	01176863          	bltu	a4,a7,8000424c <memcpy+0x7c>
    80004240:	00008067          	ret
    80004244:	00050713          	mv	a4,a0
    80004248:	05157863          	bgeu	a0,a7,80004298 <memcpy+0xc8>
    8000424c:	0005c783          	lbu	a5,0(a1)
    80004250:	00170713          	addi	a4,a4,1
    80004254:	00158593          	addi	a1,a1,1
    80004258:	fef70fa3          	sb	a5,-1(a4)
    8000425c:	fee898e3          	bne	a7,a4,8000424c <memcpy+0x7c>
    80004260:	00008067          	ret
    80004264:	0005c683          	lbu	a3,0(a1)
    80004268:	00170713          	addi	a4,a4,1
    8000426c:	00777793          	andi	a5,a4,7
    80004270:	fed70fa3          	sb	a3,-1(a4)
    80004274:	00158593          	addi	a1,a1,1
    80004278:	f6078ee3          	beqz	a5,800041f4 <memcpy+0x24>
    8000427c:	0005c683          	lbu	a3,0(a1)
    80004280:	00170713          	addi	a4,a4,1
    80004284:	00777793          	andi	a5,a4,7
    80004288:	fed70fa3          	sb	a3,-1(a4)
    8000428c:	00158593          	addi	a1,a1,1
    80004290:	fc079ae3          	bnez	a5,80004264 <memcpy+0x94>
    80004294:	f61ff06f          	j	800041f4 <memcpy+0x24>
    80004298:	00008067          	ret
    8000429c:	ff010113          	addi	sp,sp,-16
    800042a0:	00813423          	sd	s0,8(sp)
    800042a4:	04000413          	li	s0,64
    800042a8:	0005b383          	ld	t2,0(a1)
    800042ac:	0085b283          	ld	t0,8(a1)
    800042b0:	0105bf83          	ld	t6,16(a1)
    800042b4:	0185bf03          	ld	t5,24(a1)
    800042b8:	0205be83          	ld	t4,32(a1)
    800042bc:	0285be03          	ld	t3,40(a1)
    800042c0:	0305b303          	ld	t1,48(a1)
    800042c4:	0385b803          	ld	a6,56(a1)
    800042c8:	0405b683          	ld	a3,64(a1)
    800042cc:	04870713          	addi	a4,a4,72
    800042d0:	40e607b3          	sub	a5,a2,a4
    800042d4:	fa773c23          	sd	t2,-72(a4)
    800042d8:	fc573023          	sd	t0,-64(a4)
    800042dc:	fdf73423          	sd	t6,-56(a4)
    800042e0:	fde73823          	sd	t5,-48(a4)
    800042e4:	fdd73c23          	sd	t4,-40(a4)
    800042e8:	ffc73023          	sd	t3,-32(a4)
    800042ec:	fe673423          	sd	t1,-24(a4)
    800042f0:	ff073823          	sd	a6,-16(a4)
    800042f4:	fed73c23          	sd	a3,-8(a4)
    800042f8:	04858593          	addi	a1,a1,72
    800042fc:	faf446e3          	blt	s0,a5,800042a8 <memcpy+0xd8>
    80004300:	00058693          	mv	a3,a1
    80004304:	00070793          	mv	a5,a4
    80004308:	02c77863          	bgeu	a4,a2,80004338 <memcpy+0x168>
    8000430c:	0006b803          	ld	a6,0(a3)
    80004310:	00878793          	addi	a5,a5,8
    80004314:	00868693          	addi	a3,a3,8
    80004318:	ff07bc23          	sd	a6,-8(a5)
    8000431c:	fec7e8e3          	bltu	a5,a2,8000430c <memcpy+0x13c>
    80004320:	fff60793          	addi	a5,a2,-1
    80004324:	40e787b3          	sub	a5,a5,a4
    80004328:	ff87f793          	andi	a5,a5,-8
    8000432c:	00878793          	addi	a5,a5,8
    80004330:	00f70733          	add	a4,a4,a5
    80004334:	00f585b3          	add	a1,a1,a5
    80004338:	01176863          	bltu	a4,a7,80004348 <memcpy+0x178>
    8000433c:	00813403          	ld	s0,8(sp)
    80004340:	01010113          	addi	sp,sp,16
    80004344:	00008067          	ret
    80004348:	0005c783          	lbu	a5,0(a1)
    8000434c:	00170713          	addi	a4,a4,1
    80004350:	00158593          	addi	a1,a1,1
    80004354:	fef70fa3          	sb	a5,-1(a4)
    80004358:	fee882e3          	beq	a7,a4,8000433c <memcpy+0x16c>
    8000435c:	0005c783          	lbu	a5,0(a1)
    80004360:	00170713          	addi	a4,a4,1
    80004364:	00158593          	addi	a1,a1,1
    80004368:	fef70fa3          	sb	a5,-1(a4)
    8000436c:	fce89ee3          	bne	a7,a4,80004348 <memcpy+0x178>
    80004370:	fcdff06f          	j	8000433c <memcpy+0x16c>

0000000080004374 <memmove>:
    80004374:	02a5f663          	bgeu	a1,a0,800043a0 <memmove+0x2c>
    80004378:	00c58733          	add	a4,a1,a2
    8000437c:	02e57263          	bgeu	a0,a4,800043a0 <memmove+0x2c>
    80004380:	00c507b3          	add	a5,a0,a2
    80004384:	04060663          	beqz	a2,800043d0 <memmove+0x5c>
    80004388:	fff74683          	lbu	a3,-1(a4)
    8000438c:	fff78793          	addi	a5,a5,-1
    80004390:	fff70713          	addi	a4,a4,-1
    80004394:	00d78023          	sb	a3,0(a5)
    80004398:	fef518e3          	bne	a0,a5,80004388 <memmove+0x14>
    8000439c:	00008067          	ret
    800043a0:	01f00793          	li	a5,31
    800043a4:	02c7e863          	bltu	a5,a2,800043d4 <memmove+0x60>
    800043a8:	00050793          	mv	a5,a0
    800043ac:	fff60693          	addi	a3,a2,-1
    800043b0:	0c060a63          	beqz	a2,80004484 <memmove+0x110>
    800043b4:	00168693          	addi	a3,a3,1
    800043b8:	00d786b3          	add	a3,a5,a3
    800043bc:	0005c703          	lbu	a4,0(a1)
    800043c0:	00178793          	addi	a5,a5,1
    800043c4:	00158593          	addi	a1,a1,1
    800043c8:	fee78fa3          	sb	a4,-1(a5)
    800043cc:	fed798e3          	bne	a5,a3,800043bc <memmove+0x48>
    800043d0:	00008067          	ret
    800043d4:	00b567b3          	or	a5,a0,a1
    800043d8:	0077f793          	andi	a5,a5,7
    800043dc:	08079e63          	bnez	a5,80004478 <memmove+0x104>
    800043e0:	fe060893          	addi	a7,a2,-32
    800043e4:	fe08f893          	andi	a7,a7,-32
    800043e8:	02088893          	addi	a7,a7,32
    800043ec:	011507b3          	add	a5,a0,a7
    800043f0:	00058693          	mv	a3,a1
    800043f4:	00050713          	mv	a4,a0
    800043f8:	0006b803          	ld	a6,0(a3)
    800043fc:	02068693          	addi	a3,a3,32
    80004400:	02070713          	addi	a4,a4,32
    80004404:	ff073023          	sd	a6,-32(a4)
    80004408:	fe86b803          	ld	a6,-24(a3)
    8000440c:	ff073423          	sd	a6,-24(a4)
    80004410:	ff06b803          	ld	a6,-16(a3)
    80004414:	ff073823          	sd	a6,-16(a4)
    80004418:	ff86b803          	ld	a6,-8(a3)
    8000441c:	ff073c23          	sd	a6,-8(a4)
    80004420:	fcf71ce3          	bne	a4,a5,800043f8 <memmove+0x84>
    80004424:	01867713          	andi	a4,a2,24
    80004428:	011585b3          	add	a1,a1,a7
    8000442c:	01f67813          	andi	a6,a2,31
    80004430:	04070c63          	beqz	a4,80004488 <memmove+0x114>
    80004434:	00058693          	mv	a3,a1
    80004438:	00078713          	mv	a4,a5
    8000443c:	01078eb3          	add	t4,a5,a6
    80004440:	00700e13          	li	t3,7
    80004444:	0006b303          	ld	t1,0(a3)
    80004448:	00870713          	addi	a4,a4,8
    8000444c:	40ee88b3          	sub	a7,t4,a4
    80004450:	fe673c23          	sd	t1,-8(a4)
    80004454:	00868693          	addi	a3,a3,8
    80004458:	ff1e66e3          	bltu	t3,a7,80004444 <memmove+0xd0>
    8000445c:	ff880713          	addi	a4,a6,-8
    80004460:	ff877713          	andi	a4,a4,-8
    80004464:	00870713          	addi	a4,a4,8
    80004468:	00767613          	andi	a2,a2,7
    8000446c:	00e787b3          	add	a5,a5,a4
    80004470:	00e585b3          	add	a1,a1,a4
    80004474:	f39ff06f          	j	800043ac <memmove+0x38>
    80004478:	fff60693          	addi	a3,a2,-1
    8000447c:	00050793          	mv	a5,a0
    80004480:	f35ff06f          	j	800043b4 <memmove+0x40>
    80004484:	00008067          	ret
    80004488:	00080613          	mv	a2,a6
    8000448c:	f21ff06f          	j	800043ac <memmove+0x38>

0000000080004490 <__malloc_lock>:
    80004490:	00008067          	ret

0000000080004494 <__malloc_unlock>:
    80004494:	00008067          	ret

0000000080004498 <_realloc_r>:
    80004498:	fb010113          	addi	sp,sp,-80
    8000449c:	03213823          	sd	s2,48(sp)
    800044a0:	04113423          	sd	ra,72(sp)
    800044a4:	04813023          	sd	s0,64(sp)
    800044a8:	02913c23          	sd	s1,56(sp)
    800044ac:	03313423          	sd	s3,40(sp)
    800044b0:	03413023          	sd	s4,32(sp)
    800044b4:	01513c23          	sd	s5,24(sp)
    800044b8:	01613823          	sd	s6,16(sp)
    800044bc:	01713423          	sd	s7,8(sp)
    800044c0:	01813023          	sd	s8,0(sp)
    800044c4:	00060913          	mv	s2,a2
    800044c8:	1c058663          	beqz	a1,80004694 <_realloc_r+0x1fc>
    800044cc:	00058413          	mv	s0,a1
    800044d0:	00050993          	mv	s3,a0
    800044d4:	fbdff0ef          	jal	ra,80004490 <__malloc_lock>
    800044d8:	ff843783          	ld	a5,-8(s0)
    800044dc:	01790493          	addi	s1,s2,23
    800044e0:	02e00713          	li	a4,46
    800044e4:	ff040a93          	addi	s5,s0,-16
    800044e8:	ffc7fa13          	andi	s4,a5,-4
    800044ec:	0e977a63          	bgeu	a4,s1,800045e0 <_realloc_r+0x148>
    800044f0:	80000737          	lui	a4,0x80000
    800044f4:	ff04f493          	andi	s1,s1,-16
    800044f8:	fff74713          	not	a4,a4
    800044fc:	0e976663          	bltu	a4,s1,800045e8 <_realloc_r+0x150>
    80004500:	0f24e463          	bltu	s1,s2,800045e8 <_realloc_r+0x150>
    80004504:	109a5463          	bge	s4,s1,8000460c <_realloc_r+0x174>
    80004508:	00003c17          	auipc	s8,0x3
    8000450c:	ef0c0c13          	addi	s8,s8,-272 # 800073f8 <__malloc_av_>
    80004510:	010c3603          	ld	a2,16(s8)
    80004514:	014a86b3          	add	a3,s5,s4
    80004518:	0086b703          	ld	a4,8(a3)
    8000451c:	1cd60e63          	beq	a2,a3,800046f8 <_realloc_r+0x260>
    80004520:	ffe77613          	andi	a2,a4,-2
    80004524:	00c68633          	add	a2,a3,a2
    80004528:	00863603          	ld	a2,8(a2)
    8000452c:	00167613          	andi	a2,a2,1
    80004530:	14061463          	bnez	a2,80004678 <_realloc_r+0x1e0>
    80004534:	ffc77713          	andi	a4,a4,-4
    80004538:	00ea0633          	add	a2,s4,a4
    8000453c:	0a965e63          	bge	a2,s1,800045f8 <_realloc_r+0x160>
    80004540:	0017f793          	andi	a5,a5,1
    80004544:	02079463          	bnez	a5,8000456c <_realloc_r+0xd4>
    80004548:	ff043b83          	ld	s7,-16(s0)
    8000454c:	417a8bb3          	sub	s7,s5,s7
    80004550:	008bb783          	ld	a5,8(s7)
    80004554:	ffc7f793          	andi	a5,a5,-4
    80004558:	00f70733          	add	a4,a4,a5
    8000455c:	01470b33          	add	s6,a4,s4
    80004560:	329b5463          	bge	s6,s1,80004888 <_realloc_r+0x3f0>
    80004564:	00fa0b33          	add	s6,s4,a5
    80004568:	289b5663          	bge	s6,s1,800047f4 <_realloc_r+0x35c>
    8000456c:	00090593          	mv	a1,s2
    80004570:	00098513          	mv	a0,s3
    80004574:	ba8ff0ef          	jal	ra,8000391c <_malloc_r>
    80004578:	00050913          	mv	s2,a0
    8000457c:	40050263          	beqz	a0,80004980 <_realloc_r+0x4e8>
    80004580:	ff843783          	ld	a5,-8(s0)
    80004584:	ff050713          	addi	a4,a0,-16
    80004588:	ffe7f793          	andi	a5,a5,-2
    8000458c:	00fa87b3          	add	a5,s5,a5
    80004590:	24e78a63          	beq	a5,a4,800047e4 <_realloc_r+0x34c>
    80004594:	ff8a0613          	addi	a2,s4,-8
    80004598:	04800793          	li	a5,72
    8000459c:	2ec7e063          	bltu	a5,a2,8000487c <_realloc_r+0x3e4>
    800045a0:	02700713          	li	a4,39
    800045a4:	20c76e63          	bltu	a4,a2,800047c0 <_realloc_r+0x328>
    800045a8:	00050793          	mv	a5,a0
    800045ac:	00040713          	mv	a4,s0
    800045b0:	00073683          	ld	a3,0(a4) # ffffffff80000000 <__BSS_END__+0xfffffffeffff8330>
    800045b4:	00d7b023          	sd	a3,0(a5)
    800045b8:	00873683          	ld	a3,8(a4)
    800045bc:	00d7b423          	sd	a3,8(a5)
    800045c0:	01073703          	ld	a4,16(a4)
    800045c4:	00e7b823          	sd	a4,16(a5)
    800045c8:	00098513          	mv	a0,s3
    800045cc:	00040593          	mv	a1,s0
    800045d0:	565000ef          	jal	ra,80005334 <_free_r>
    800045d4:	00098513          	mv	a0,s3
    800045d8:	ebdff0ef          	jal	ra,80004494 <__malloc_unlock>
    800045dc:	0680006f          	j	80004644 <_realloc_r+0x1ac>
    800045e0:	02000493          	li	s1,32
    800045e4:	f324f0e3          	bgeu	s1,s2,80004504 <_realloc_r+0x6c>
    800045e8:	00c00793          	li	a5,12
    800045ec:	00f9a023          	sw	a5,0(s3)
    800045f0:	00000913          	li	s2,0
    800045f4:	0500006f          	j	80004644 <_realloc_r+0x1ac>
    800045f8:	0186b783          	ld	a5,24(a3)
    800045fc:	0106b703          	ld	a4,16(a3)
    80004600:	00060a13          	mv	s4,a2
    80004604:	00f73c23          	sd	a5,24(a4)
    80004608:	00e7b823          	sd	a4,16(a5)
    8000460c:	008ab783          	ld	a5,8(s5)
    80004610:	409a06b3          	sub	a3,s4,s1
    80004614:	01f00613          	li	a2,31
    80004618:	0017f793          	andi	a5,a5,1
    8000461c:	014a8733          	add	a4,s5,s4
    80004620:	0ad66463          	bltu	a2,a3,800046c8 <_realloc_r+0x230>
    80004624:	0147e7b3          	or	a5,a5,s4
    80004628:	00fab423          	sd	a5,8(s5)
    8000462c:	00873783          	ld	a5,8(a4)
    80004630:	0017e793          	ori	a5,a5,1
    80004634:	00f73423          	sd	a5,8(a4)
    80004638:	00098513          	mv	a0,s3
    8000463c:	e59ff0ef          	jal	ra,80004494 <__malloc_unlock>
    80004640:	00040913          	mv	s2,s0
    80004644:	04813083          	ld	ra,72(sp)
    80004648:	04013403          	ld	s0,64(sp)
    8000464c:	03813483          	ld	s1,56(sp)
    80004650:	02813983          	ld	s3,40(sp)
    80004654:	02013a03          	ld	s4,32(sp)
    80004658:	01813a83          	ld	s5,24(sp)
    8000465c:	01013b03          	ld	s6,16(sp)
    80004660:	00813b83          	ld	s7,8(sp)
    80004664:	00013c03          	ld	s8,0(sp)
    80004668:	00090513          	mv	a0,s2
    8000466c:	03013903          	ld	s2,48(sp)
    80004670:	05010113          	addi	sp,sp,80
    80004674:	00008067          	ret
    80004678:	0017f793          	andi	a5,a5,1
    8000467c:	ee0798e3          	bnez	a5,8000456c <_realloc_r+0xd4>
    80004680:	ff043b83          	ld	s7,-16(s0)
    80004684:	417a8bb3          	sub	s7,s5,s7
    80004688:	008bb783          	ld	a5,8(s7)
    8000468c:	ffc7f793          	andi	a5,a5,-4
    80004690:	ed5ff06f          	j	80004564 <_realloc_r+0xcc>
    80004694:	04013403          	ld	s0,64(sp)
    80004698:	04813083          	ld	ra,72(sp)
    8000469c:	03813483          	ld	s1,56(sp)
    800046a0:	03013903          	ld	s2,48(sp)
    800046a4:	02813983          	ld	s3,40(sp)
    800046a8:	02013a03          	ld	s4,32(sp)
    800046ac:	01813a83          	ld	s5,24(sp)
    800046b0:	01013b03          	ld	s6,16(sp)
    800046b4:	00813b83          	ld	s7,8(sp)
    800046b8:	00013c03          	ld	s8,0(sp)
    800046bc:	00060593          	mv	a1,a2
    800046c0:	05010113          	addi	sp,sp,80
    800046c4:	a58ff06f          	j	8000391c <_malloc_r>
    800046c8:	0097e7b3          	or	a5,a5,s1
    800046cc:	00fab423          	sd	a5,8(s5)
    800046d0:	009a85b3          	add	a1,s5,s1
    800046d4:	0016e693          	ori	a3,a3,1
    800046d8:	00d5b423          	sd	a3,8(a1)
    800046dc:	00873783          	ld	a5,8(a4)
    800046e0:	01058593          	addi	a1,a1,16
    800046e4:	00098513          	mv	a0,s3
    800046e8:	0017e793          	ori	a5,a5,1
    800046ec:	00f73423          	sd	a5,8(a4)
    800046f0:	445000ef          	jal	ra,80005334 <_free_r>
    800046f4:	f45ff06f          	j	80004638 <_realloc_r+0x1a0>
    800046f8:	ffc77713          	andi	a4,a4,-4
    800046fc:	014706b3          	add	a3,a4,s4
    80004700:	02048613          	addi	a2,s1,32
    80004704:	22c6de63          	bge	a3,a2,80004940 <_realloc_r+0x4a8>
    80004708:	0017f793          	andi	a5,a5,1
    8000470c:	e60790e3          	bnez	a5,8000456c <_realloc_r+0xd4>
    80004710:	ff043b83          	ld	s7,-16(s0)
    80004714:	417a8bb3          	sub	s7,s5,s7
    80004718:	008bb783          	ld	a5,8(s7)
    8000471c:	ffc7f793          	andi	a5,a5,-4
    80004720:	00f70733          	add	a4,a4,a5
    80004724:	01470b33          	add	s6,a4,s4
    80004728:	e2cb4ee3          	blt	s6,a2,80004564 <_realloc_r+0xcc>
    8000472c:	018bb783          	ld	a5,24(s7)
    80004730:	010bb703          	ld	a4,16(s7)
    80004734:	ff8a0613          	addi	a2,s4,-8
    80004738:	04800693          	li	a3,72
    8000473c:	00f73c23          	sd	a5,24(a4)
    80004740:	00e7b823          	sd	a4,16(a5)
    80004744:	010b8913          	addi	s2,s7,16
    80004748:	26c6e263          	bltu	a3,a2,800049ac <_realloc_r+0x514>
    8000474c:	02700713          	li	a4,39
    80004750:	00090793          	mv	a5,s2
    80004754:	02c77263          	bgeu	a4,a2,80004778 <_realloc_r+0x2e0>
    80004758:	00043703          	ld	a4,0(s0)
    8000475c:	03700793          	li	a5,55
    80004760:	00ebb823          	sd	a4,16(s7)
    80004764:	00843703          	ld	a4,8(s0)
    80004768:	00ebbc23          	sd	a4,24(s7)
    8000476c:	24c7e863          	bltu	a5,a2,800049bc <_realloc_r+0x524>
    80004770:	01040413          	addi	s0,s0,16
    80004774:	020b8793          	addi	a5,s7,32
    80004778:	00043703          	ld	a4,0(s0)
    8000477c:	00e7b023          	sd	a4,0(a5)
    80004780:	00843703          	ld	a4,8(s0)
    80004784:	00e7b423          	sd	a4,8(a5)
    80004788:	01043703          	ld	a4,16(s0)
    8000478c:	00e7b823          	sd	a4,16(a5)
    80004790:	009b8733          	add	a4,s7,s1
    80004794:	409b07b3          	sub	a5,s6,s1
    80004798:	00ec3823          	sd	a4,16(s8)
    8000479c:	0017e793          	ori	a5,a5,1
    800047a0:	00f73423          	sd	a5,8(a4)
    800047a4:	008bb783          	ld	a5,8(s7)
    800047a8:	00098513          	mv	a0,s3
    800047ac:	0017f793          	andi	a5,a5,1
    800047b0:	0097e7b3          	or	a5,a5,s1
    800047b4:	00fbb423          	sd	a5,8(s7)
    800047b8:	cddff0ef          	jal	ra,80004494 <__malloc_unlock>
    800047bc:	e89ff06f          	j	80004644 <_realloc_r+0x1ac>
    800047c0:	00043683          	ld	a3,0(s0)
    800047c4:	03700713          	li	a4,55
    800047c8:	00d53023          	sd	a3,0(a0)
    800047cc:	00843683          	ld	a3,8(s0)
    800047d0:	00d53423          	sd	a3,8(a0)
    800047d4:	14c76663          	bltu	a4,a2,80004920 <_realloc_r+0x488>
    800047d8:	01040713          	addi	a4,s0,16
    800047dc:	01050793          	addi	a5,a0,16
    800047e0:	dd1ff06f          	j	800045b0 <_realloc_r+0x118>
    800047e4:	ff853783          	ld	a5,-8(a0)
    800047e8:	ffc7f793          	andi	a5,a5,-4
    800047ec:	00fa0a33          	add	s4,s4,a5
    800047f0:	e1dff06f          	j	8000460c <_realloc_r+0x174>
    800047f4:	018bb783          	ld	a5,24(s7)
    800047f8:	010bb703          	ld	a4,16(s7)
    800047fc:	ff8a0613          	addi	a2,s4,-8
    80004800:	04800693          	li	a3,72
    80004804:	00f73c23          	sd	a5,24(a4)
    80004808:	00e7b823          	sd	a4,16(a5)
    8000480c:	010b8913          	addi	s2,s7,16
    80004810:	10c6e063          	bltu	a3,a2,80004910 <_realloc_r+0x478>
    80004814:	02700713          	li	a4,39
    80004818:	00090793          	mv	a5,s2
    8000481c:	02c77c63          	bgeu	a4,a2,80004854 <_realloc_r+0x3bc>
    80004820:	00043703          	ld	a4,0(s0)
    80004824:	03700793          	li	a5,55
    80004828:	00ebb823          	sd	a4,16(s7)
    8000482c:	00843703          	ld	a4,8(s0)
    80004830:	00ebbc23          	sd	a4,24(s7)
    80004834:	14c7f063          	bgeu	a5,a2,80004974 <_realloc_r+0x4dc>
    80004838:	01043783          	ld	a5,16(s0)
    8000483c:	02fbb023          	sd	a5,32(s7)
    80004840:	01843783          	ld	a5,24(s0)
    80004844:	02fbb423          	sd	a5,40(s7)
    80004848:	0ad60663          	beq	a2,a3,800048f4 <_realloc_r+0x45c>
    8000484c:	02040413          	addi	s0,s0,32
    80004850:	030b8793          	addi	a5,s7,48
    80004854:	00043703          	ld	a4,0(s0)
    80004858:	00e7b023          	sd	a4,0(a5)
    8000485c:	00843703          	ld	a4,8(s0)
    80004860:	00e7b423          	sd	a4,8(a5)
    80004864:	01043703          	ld	a4,16(s0)
    80004868:	00e7b823          	sd	a4,16(a5)
    8000486c:	00090413          	mv	s0,s2
    80004870:	000b0a13          	mv	s4,s6
    80004874:	000b8a93          	mv	s5,s7
    80004878:	d95ff06f          	j	8000460c <_realloc_r+0x174>
    8000487c:	00040593          	mv	a1,s0
    80004880:	af5ff0ef          	jal	ra,80004374 <memmove>
    80004884:	d45ff06f          	j	800045c8 <_realloc_r+0x130>
    80004888:	0186b783          	ld	a5,24(a3)
    8000488c:	0106b703          	ld	a4,16(a3)
    80004890:	ff8a0613          	addi	a2,s4,-8
    80004894:	04800693          	li	a3,72
    80004898:	00f73c23          	sd	a5,24(a4)
    8000489c:	00e7b823          	sd	a4,16(a5)
    800048a0:	010bb703          	ld	a4,16(s7)
    800048a4:	018bb783          	ld	a5,24(s7)
    800048a8:	010b8913          	addi	s2,s7,16
    800048ac:	00f73c23          	sd	a5,24(a4)
    800048b0:	00e7b823          	sd	a4,16(a5)
    800048b4:	04c6ee63          	bltu	a3,a2,80004910 <_realloc_r+0x478>
    800048b8:	02700713          	li	a4,39
    800048bc:	00090793          	mv	a5,s2
    800048c0:	f8c77ae3          	bgeu	a4,a2,80004854 <_realloc_r+0x3bc>
    800048c4:	00043703          	ld	a4,0(s0)
    800048c8:	03700793          	li	a5,55
    800048cc:	00ebb823          	sd	a4,16(s7)
    800048d0:	00843703          	ld	a4,8(s0)
    800048d4:	00ebbc23          	sd	a4,24(s7)
    800048d8:	08c7fe63          	bgeu	a5,a2,80004974 <_realloc_r+0x4dc>
    800048dc:	01043703          	ld	a4,16(s0)
    800048e0:	04800793          	li	a5,72
    800048e4:	02ebb023          	sd	a4,32(s7)
    800048e8:	01843703          	ld	a4,24(s0)
    800048ec:	02ebb423          	sd	a4,40(s7)
    800048f0:	f4f61ee3          	bne	a2,a5,8000484c <_realloc_r+0x3b4>
    800048f4:	02043703          	ld	a4,32(s0)
    800048f8:	040b8793          	addi	a5,s7,64
    800048fc:	03040413          	addi	s0,s0,48
    80004900:	02ebb823          	sd	a4,48(s7)
    80004904:	ff843703          	ld	a4,-8(s0)
    80004908:	02ebbc23          	sd	a4,56(s7)
    8000490c:	f49ff06f          	j	80004854 <_realloc_r+0x3bc>
    80004910:	00040593          	mv	a1,s0
    80004914:	00090513          	mv	a0,s2
    80004918:	a5dff0ef          	jal	ra,80004374 <memmove>
    8000491c:	f51ff06f          	j	8000486c <_realloc_r+0x3d4>
    80004920:	01043703          	ld	a4,16(s0)
    80004924:	00e53823          	sd	a4,16(a0)
    80004928:	01843703          	ld	a4,24(s0)
    8000492c:	00e53c23          	sd	a4,24(a0)
    80004930:	06f60063          	beq	a2,a5,80004990 <_realloc_r+0x4f8>
    80004934:	02040713          	addi	a4,s0,32
    80004938:	02050793          	addi	a5,a0,32
    8000493c:	c75ff06f          	j	800045b0 <_realloc_r+0x118>
    80004940:	009a8ab3          	add	s5,s5,s1
    80004944:	409687b3          	sub	a5,a3,s1
    80004948:	015c3823          	sd	s5,16(s8)
    8000494c:	0017e793          	ori	a5,a5,1
    80004950:	00fab423          	sd	a5,8(s5)
    80004954:	ff843783          	ld	a5,-8(s0)
    80004958:	00098513          	mv	a0,s3
    8000495c:	00040913          	mv	s2,s0
    80004960:	0017f793          	andi	a5,a5,1
    80004964:	0097e7b3          	or	a5,a5,s1
    80004968:	fef43c23          	sd	a5,-8(s0)
    8000496c:	b29ff0ef          	jal	ra,80004494 <__malloc_unlock>
    80004970:	cd5ff06f          	j	80004644 <_realloc_r+0x1ac>
    80004974:	01040413          	addi	s0,s0,16
    80004978:	020b8793          	addi	a5,s7,32
    8000497c:	ed9ff06f          	j	80004854 <_realloc_r+0x3bc>
    80004980:	00098513          	mv	a0,s3
    80004984:	b11ff0ef          	jal	ra,80004494 <__malloc_unlock>
    80004988:	00000913          	li	s2,0
    8000498c:	cb9ff06f          	j	80004644 <_realloc_r+0x1ac>
    80004990:	02043683          	ld	a3,32(s0)
    80004994:	03040713          	addi	a4,s0,48
    80004998:	03050793          	addi	a5,a0,48
    8000499c:	02d53023          	sd	a3,32(a0)
    800049a0:	02843683          	ld	a3,40(s0)
    800049a4:	02d53423          	sd	a3,40(a0)
    800049a8:	c09ff06f          	j	800045b0 <_realloc_r+0x118>
    800049ac:	00040593          	mv	a1,s0
    800049b0:	00090513          	mv	a0,s2
    800049b4:	9c1ff0ef          	jal	ra,80004374 <memmove>
    800049b8:	dd9ff06f          	j	80004790 <_realloc_r+0x2f8>
    800049bc:	01043783          	ld	a5,16(s0)
    800049c0:	02fbb023          	sd	a5,32(s7)
    800049c4:	01843783          	ld	a5,24(s0)
    800049c8:	02fbb423          	sd	a5,40(s7)
    800049cc:	00d60863          	beq	a2,a3,800049dc <_realloc_r+0x544>
    800049d0:	02040413          	addi	s0,s0,32
    800049d4:	030b8793          	addi	a5,s7,48
    800049d8:	da1ff06f          	j	80004778 <_realloc_r+0x2e0>
    800049dc:	02043703          	ld	a4,32(s0)
    800049e0:	040b8793          	addi	a5,s7,64
    800049e4:	03040413          	addi	s0,s0,48
    800049e8:	02ebb823          	sd	a4,48(s7)
    800049ec:	ff843703          	ld	a4,-8(s0)
    800049f0:	02ebbc23          	sd	a4,56(s7)
    800049f4:	d85ff06f          	j	80004778 <_realloc_r+0x2e0>

00000000800049f8 <_sbrk_r>:
    800049f8:	ff010113          	addi	sp,sp,-16
    800049fc:	00813023          	sd	s0,0(sp)
    80004a00:	00050413          	mv	s0,a0
    80004a04:	00058513          	mv	a0,a1
    80004a08:	7801ac23          	sw	zero,1944(gp) # 80007c68 <errno>
    80004a0c:	00113423          	sd	ra,8(sp)
    80004a10:	a35fd0ef          	jal	ra,80002444 <_sbrk>
    80004a14:	fff00793          	li	a5,-1
    80004a18:	00f50a63          	beq	a0,a5,80004a2c <_sbrk_r+0x34>
    80004a1c:	00813083          	ld	ra,8(sp)
    80004a20:	00013403          	ld	s0,0(sp)
    80004a24:	01010113          	addi	sp,sp,16
    80004a28:	00008067          	ret
    80004a2c:	7981a783          	lw	a5,1944(gp) # 80007c68 <errno>
    80004a30:	fe0786e3          	beqz	a5,80004a1c <_sbrk_r+0x24>
    80004a34:	00813083          	ld	ra,8(sp)
    80004a38:	00f42023          	sw	a5,0(s0)
    80004a3c:	00013403          	ld	s0,0(sp)
    80004a40:	01010113          	addi	sp,sp,16
    80004a44:	00008067          	ret

0000000080004a48 <__sread>:
    80004a48:	ff010113          	addi	sp,sp,-16
    80004a4c:	00813023          	sd	s0,0(sp)
    80004a50:	00058413          	mv	s0,a1
    80004a54:	01259583          	lh	a1,18(a1)
    80004a58:	00113423          	sd	ra,8(sp)
    80004a5c:	6bd000ef          	jal	ra,80005918 <_read_r>
    80004a60:	02054063          	bltz	a0,80004a80 <__sread+0x38>
    80004a64:	09043783          	ld	a5,144(s0)
    80004a68:	00813083          	ld	ra,8(sp)
    80004a6c:	00a787b3          	add	a5,a5,a0
    80004a70:	08f43823          	sd	a5,144(s0)
    80004a74:	00013403          	ld	s0,0(sp)
    80004a78:	01010113          	addi	sp,sp,16
    80004a7c:	00008067          	ret
    80004a80:	01045783          	lhu	a5,16(s0)
    80004a84:	fffff737          	lui	a4,0xfffff
    80004a88:	fff70713          	addi	a4,a4,-1 # ffffffffffffefff <__BSS_END__+0xffffffff7fff732f>
    80004a8c:	00e7f7b3          	and	a5,a5,a4
    80004a90:	00813083          	ld	ra,8(sp)
    80004a94:	00f41823          	sh	a5,16(s0)
    80004a98:	00013403          	ld	s0,0(sp)
    80004a9c:	01010113          	addi	sp,sp,16
    80004aa0:	00008067          	ret

0000000080004aa4 <__seofread>:
    80004aa4:	00000513          	li	a0,0
    80004aa8:	00008067          	ret

0000000080004aac <__swrite>:
    80004aac:	01059783          	lh	a5,16(a1)
    80004ab0:	fd010113          	addi	sp,sp,-48
    80004ab4:	02813023          	sd	s0,32(sp)
    80004ab8:	00913c23          	sd	s1,24(sp)
    80004abc:	01213823          	sd	s2,16(sp)
    80004ac0:	01313423          	sd	s3,8(sp)
    80004ac4:	02113423          	sd	ra,40(sp)
    80004ac8:	1007f713          	andi	a4,a5,256
    80004acc:	00058413          	mv	s0,a1
    80004ad0:	00050493          	mv	s1,a0
    80004ad4:	00060913          	mv	s2,a2
    80004ad8:	00068993          	mv	s3,a3
    80004adc:	04071063          	bnez	a4,80004b1c <__swrite+0x70>
    80004ae0:	fffff737          	lui	a4,0xfffff
    80004ae4:	fff70713          	addi	a4,a4,-1 # ffffffffffffefff <__BSS_END__+0xffffffff7fff732f>
    80004ae8:	00e7f7b3          	and	a5,a5,a4
    80004aec:	01241583          	lh	a1,18(s0)
    80004af0:	00f41823          	sh	a5,16(s0)
    80004af4:	02013403          	ld	s0,32(sp)
    80004af8:	02813083          	ld	ra,40(sp)
    80004afc:	00098693          	mv	a3,s3
    80004b00:	00090613          	mv	a2,s2
    80004b04:	00813983          	ld	s3,8(sp)
    80004b08:	01013903          	ld	s2,16(sp)
    80004b0c:	00048513          	mv	a0,s1
    80004b10:	01813483          	ld	s1,24(sp)
    80004b14:	03010113          	addi	sp,sp,48
    80004b18:	09c0006f          	j	80004bb4 <_write_r>
    80004b1c:	01259583          	lh	a1,18(a1)
    80004b20:	00200693          	li	a3,2
    80004b24:	00000613          	li	a2,0
    80004b28:	32d000ef          	jal	ra,80005654 <_lseek_r>
    80004b2c:	01041783          	lh	a5,16(s0)
    80004b30:	fb1ff06f          	j	80004ae0 <__swrite+0x34>

0000000080004b34 <__sseek>:
    80004b34:	ff010113          	addi	sp,sp,-16
    80004b38:	00813023          	sd	s0,0(sp)
    80004b3c:	00058413          	mv	s0,a1
    80004b40:	01259583          	lh	a1,18(a1)
    80004b44:	00113423          	sd	ra,8(sp)
    80004b48:	30d000ef          	jal	ra,80005654 <_lseek_r>
    80004b4c:	fff00793          	li	a5,-1
    80004b50:	02f50863          	beq	a0,a5,80004b80 <__sseek+0x4c>
    80004b54:	01045783          	lhu	a5,16(s0)
    80004b58:	00001737          	lui	a4,0x1
    80004b5c:	00813083          	ld	ra,8(sp)
    80004b60:	00e7e7b3          	or	a5,a5,a4
    80004b64:	0107979b          	slliw	a5,a5,0x10
    80004b68:	4107d79b          	sraiw	a5,a5,0x10
    80004b6c:	08a43823          	sd	a0,144(s0)
    80004b70:	00f41823          	sh	a5,16(s0)
    80004b74:	00013403          	ld	s0,0(sp)
    80004b78:	01010113          	addi	sp,sp,16
    80004b7c:	00008067          	ret
    80004b80:	01045783          	lhu	a5,16(s0)
    80004b84:	fffff737          	lui	a4,0xfffff
    80004b88:	fff70713          	addi	a4,a4,-1 # ffffffffffffefff <__BSS_END__+0xffffffff7fff732f>
    80004b8c:	00e7f7b3          	and	a5,a5,a4
    80004b90:	0107979b          	slliw	a5,a5,0x10
    80004b94:	4107d79b          	sraiw	a5,a5,0x10
    80004b98:	00813083          	ld	ra,8(sp)
    80004b9c:	00f41823          	sh	a5,16(s0)
    80004ba0:	00013403          	ld	s0,0(sp)
    80004ba4:	01010113          	addi	sp,sp,16
    80004ba8:	00008067          	ret

0000000080004bac <__sclose>:
    80004bac:	01259583          	lh	a1,18(a1)
    80004bb0:	1b40006f          	j	80004d64 <_close_r>

0000000080004bb4 <_write_r>:
    80004bb4:	ff010113          	addi	sp,sp,-16
    80004bb8:	00058713          	mv	a4,a1
    80004bbc:	00813023          	sd	s0,0(sp)
    80004bc0:	00060593          	mv	a1,a2
    80004bc4:	00050413          	mv	s0,a0
    80004bc8:	00068613          	mv	a2,a3
    80004bcc:	00070513          	mv	a0,a4
    80004bd0:	7801ac23          	sw	zero,1944(gp) # 80007c68 <errno>
    80004bd4:	00113423          	sd	ra,8(sp)
    80004bd8:	8adfd0ef          	jal	ra,80002484 <_write>
    80004bdc:	fff00793          	li	a5,-1
    80004be0:	00f50a63          	beq	a0,a5,80004bf4 <_write_r+0x40>
    80004be4:	00813083          	ld	ra,8(sp)
    80004be8:	00013403          	ld	s0,0(sp)
    80004bec:	01010113          	addi	sp,sp,16
    80004bf0:	00008067          	ret
    80004bf4:	7981a783          	lw	a5,1944(gp) # 80007c68 <errno>
    80004bf8:	fe0786e3          	beqz	a5,80004be4 <_write_r+0x30>
    80004bfc:	00813083          	ld	ra,8(sp)
    80004c00:	00f42023          	sw	a5,0(s0)
    80004c04:	00013403          	ld	s0,0(sp)
    80004c08:	01010113          	addi	sp,sp,16
    80004c0c:	00008067          	ret

0000000080004c10 <__swsetup_r>:
    80004c10:	fe010113          	addi	sp,sp,-32
    80004c14:	00813823          	sd	s0,16(sp)
    80004c18:	00913423          	sd	s1,8(sp)
    80004c1c:	00113c23          	sd	ra,24(sp)
    80004c20:	7681b783          	ld	a5,1896(gp) # 80007c38 <_impure_ptr>
    80004c24:	00050493          	mv	s1,a0
    80004c28:	00058413          	mv	s0,a1
    80004c2c:	00078663          	beqz	a5,80004c38 <__swsetup_r+0x28>
    80004c30:	0507a703          	lw	a4,80(a5)
    80004c34:	08070063          	beqz	a4,80004cb4 <__swsetup_r+0xa4>
    80004c38:	01041783          	lh	a5,16(s0)
    80004c3c:	0087f713          	andi	a4,a5,8
    80004c40:	08070463          	beqz	a4,80004cc8 <__swsetup_r+0xb8>
    80004c44:	01843703          	ld	a4,24(s0)
    80004c48:	0a070063          	beqz	a4,80004ce8 <__swsetup_r+0xd8>
    80004c4c:	0017f693          	andi	a3,a5,1
    80004c50:	02068863          	beqz	a3,80004c80 <__swsetup_r+0x70>
    80004c54:	02042683          	lw	a3,32(s0)
    80004c58:	00042623          	sw	zero,12(s0)
    80004c5c:	00000513          	li	a0,0
    80004c60:	40d006bb          	negw	a3,a3
    80004c64:	02d42423          	sw	a3,40(s0)
    80004c68:	02070a63          	beqz	a4,80004c9c <__swsetup_r+0x8c>
    80004c6c:	01813083          	ld	ra,24(sp)
    80004c70:	01013403          	ld	s0,16(sp)
    80004c74:	00813483          	ld	s1,8(sp)
    80004c78:	02010113          	addi	sp,sp,32
    80004c7c:	00008067          	ret
    80004c80:	0027f693          	andi	a3,a5,2
    80004c84:	00000613          	li	a2,0
    80004c88:	00069463          	bnez	a3,80004c90 <__swsetup_r+0x80>
    80004c8c:	02042603          	lw	a2,32(s0)
    80004c90:	00c42623          	sw	a2,12(s0)
    80004c94:	00000513          	li	a0,0
    80004c98:	fc071ae3          	bnez	a4,80004c6c <__swsetup_r+0x5c>
    80004c9c:	0807f713          	andi	a4,a5,128
    80004ca0:	fc0706e3          	beqz	a4,80004c6c <__swsetup_r+0x5c>
    80004ca4:	0407e793          	ori	a5,a5,64
    80004ca8:	00f41823          	sh	a5,16(s0)
    80004cac:	fff00513          	li	a0,-1
    80004cb0:	fbdff06f          	j	80004c6c <__swsetup_r+0x5c>
    80004cb4:	00078513          	mv	a0,a5
    80004cb8:	d98fe0ef          	jal	ra,80003250 <__sinit>
    80004cbc:	01041783          	lh	a5,16(s0)
    80004cc0:	0087f713          	andi	a4,a5,8
    80004cc4:	f80710e3          	bnez	a4,80004c44 <__swsetup_r+0x34>
    80004cc8:	0107f713          	andi	a4,a5,16
    80004ccc:	06070a63          	beqz	a4,80004d40 <__swsetup_r+0x130>
    80004cd0:	0047f713          	andi	a4,a5,4
    80004cd4:	02071c63          	bnez	a4,80004d0c <__swsetup_r+0xfc>
    80004cd8:	01843703          	ld	a4,24(s0)
    80004cdc:	0087e793          	ori	a5,a5,8
    80004ce0:	00f41823          	sh	a5,16(s0)
    80004ce4:	f60714e3          	bnez	a4,80004c4c <__swsetup_r+0x3c>
    80004ce8:	2807f693          	andi	a3,a5,640
    80004cec:	20000613          	li	a2,512
    80004cf0:	f4c68ee3          	beq	a3,a2,80004c4c <__swsetup_r+0x3c>
    80004cf4:	00040593          	mv	a1,s0
    80004cf8:	00048513          	mv	a0,s1
    80004cfc:	1b5000ef          	jal	ra,800056b0 <__smakebuf_r>
    80004d00:	01041783          	lh	a5,16(s0)
    80004d04:	01843703          	ld	a4,24(s0)
    80004d08:	f45ff06f          	j	80004c4c <__swsetup_r+0x3c>
    80004d0c:	05843583          	ld	a1,88(s0)
    80004d10:	00058e63          	beqz	a1,80004d2c <__swsetup_r+0x11c>
    80004d14:	07440713          	addi	a4,s0,116
    80004d18:	00e58863          	beq	a1,a4,80004d28 <__swsetup_r+0x118>
    80004d1c:	00048513          	mv	a0,s1
    80004d20:	614000ef          	jal	ra,80005334 <_free_r>
    80004d24:	01041783          	lh	a5,16(s0)
    80004d28:	04043c23          	sd	zero,88(s0)
    80004d2c:	01843703          	ld	a4,24(s0)
    80004d30:	fdb7f793          	andi	a5,a5,-37
    80004d34:	00042423          	sw	zero,8(s0)
    80004d38:	00e43023          	sd	a4,0(s0)
    80004d3c:	fa1ff06f          	j	80004cdc <__swsetup_r+0xcc>
    80004d40:	00900713          	li	a4,9
    80004d44:	00e4a023          	sw	a4,0(s1)
    80004d48:	0407e793          	ori	a5,a5,64
    80004d4c:	f5dff06f          	j	80004ca8 <__swsetup_r+0x98>

0000000080004d50 <atexit>:
    80004d50:	00050593          	mv	a1,a0
    80004d54:	00000693          	li	a3,0
    80004d58:	00000613          	li	a2,0
    80004d5c:	00000513          	li	a0,0
    80004d60:	5c50006f          	j	80005b24 <__register_exitproc>

0000000080004d64 <_close_r>:
    80004d64:	ff010113          	addi	sp,sp,-16
    80004d68:	00813023          	sd	s0,0(sp)
    80004d6c:	00050413          	mv	s0,a0
    80004d70:	00058513          	mv	a0,a1
    80004d74:	7801ac23          	sw	zero,1944(gp) # 80007c68 <errno>
    80004d78:	00113423          	sd	ra,8(sp)
    80004d7c:	f90fd0ef          	jal	ra,8000250c <_close>
    80004d80:	fff00793          	li	a5,-1
    80004d84:	00f50a63          	beq	a0,a5,80004d98 <_close_r+0x34>
    80004d88:	00813083          	ld	ra,8(sp)
    80004d8c:	00013403          	ld	s0,0(sp)
    80004d90:	01010113          	addi	sp,sp,16
    80004d94:	00008067          	ret
    80004d98:	7981a783          	lw	a5,1944(gp) # 80007c68 <errno>
    80004d9c:	fe0786e3          	beqz	a5,80004d88 <_close_r+0x24>
    80004da0:	00813083          	ld	ra,8(sp)
    80004da4:	00f42023          	sw	a5,0(s0)
    80004da8:	00013403          	ld	s0,0(sp)
    80004dac:	01010113          	addi	sp,sp,16
    80004db0:	00008067          	ret

0000000080004db4 <_fclose_r>:
    80004db4:	fe010113          	addi	sp,sp,-32
    80004db8:	00113c23          	sd	ra,24(sp)
    80004dbc:	00813823          	sd	s0,16(sp)
    80004dc0:	00913423          	sd	s1,8(sp)
    80004dc4:	01213023          	sd	s2,0(sp)
    80004dc8:	02058063          	beqz	a1,80004de8 <_fclose_r+0x34>
    80004dcc:	00058413          	mv	s0,a1
    80004dd0:	00050493          	mv	s1,a0
    80004dd4:	00050663          	beqz	a0,80004de0 <_fclose_r+0x2c>
    80004dd8:	05052783          	lw	a5,80(a0)
    80004ddc:	0a078c63          	beqz	a5,80004e94 <_fclose_r+0xe0>
    80004de0:	01041783          	lh	a5,16(s0)
    80004de4:	02079263          	bnez	a5,80004e08 <_fclose_r+0x54>
    80004de8:	01813083          	ld	ra,24(sp)
    80004dec:	01013403          	ld	s0,16(sp)
    80004df0:	00000913          	li	s2,0
    80004df4:	00813483          	ld	s1,8(sp)
    80004df8:	00090513          	mv	a0,s2
    80004dfc:	00013903          	ld	s2,0(sp)
    80004e00:	02010113          	addi	sp,sp,32
    80004e04:	00008067          	ret
    80004e08:	00040593          	mv	a1,s0
    80004e0c:	00048513          	mv	a0,s1
    80004e10:	0c0000ef          	jal	ra,80004ed0 <__sflush_r>
    80004e14:	05043783          	ld	a5,80(s0)
    80004e18:	00050913          	mv	s2,a0
    80004e1c:	00078a63          	beqz	a5,80004e30 <_fclose_r+0x7c>
    80004e20:	03043583          	ld	a1,48(s0)
    80004e24:	00048513          	mv	a0,s1
    80004e28:	000780e7          	jalr	a5
    80004e2c:	06054c63          	bltz	a0,80004ea4 <_fclose_r+0xf0>
    80004e30:	01045783          	lhu	a5,16(s0)
    80004e34:	0807f793          	andi	a5,a5,128
    80004e38:	06079e63          	bnez	a5,80004eb4 <_fclose_r+0x100>
    80004e3c:	05843583          	ld	a1,88(s0)
    80004e40:	00058c63          	beqz	a1,80004e58 <_fclose_r+0xa4>
    80004e44:	07440793          	addi	a5,s0,116
    80004e48:	00f58663          	beq	a1,a5,80004e54 <_fclose_r+0xa0>
    80004e4c:	00048513          	mv	a0,s1
    80004e50:	4e4000ef          	jal	ra,80005334 <_free_r>
    80004e54:	04043c23          	sd	zero,88(s0)
    80004e58:	07843583          	ld	a1,120(s0)
    80004e5c:	00058863          	beqz	a1,80004e6c <_fclose_r+0xb8>
    80004e60:	00048513          	mv	a0,s1
    80004e64:	4d0000ef          	jal	ra,80005334 <_free_r>
    80004e68:	06043c23          	sd	zero,120(s0)
    80004e6c:	bf4fe0ef          	jal	ra,80003260 <__sfp_lock_acquire>
    80004e70:	00041823          	sh	zero,16(s0)
    80004e74:	bf0fe0ef          	jal	ra,80003264 <__sfp_lock_release>
    80004e78:	01813083          	ld	ra,24(sp)
    80004e7c:	01013403          	ld	s0,16(sp)
    80004e80:	00813483          	ld	s1,8(sp)
    80004e84:	00090513          	mv	a0,s2
    80004e88:	00013903          	ld	s2,0(sp)
    80004e8c:	02010113          	addi	sp,sp,32
    80004e90:	00008067          	ret
    80004e94:	bbcfe0ef          	jal	ra,80003250 <__sinit>
    80004e98:	01041783          	lh	a5,16(s0)
    80004e9c:	f40786e3          	beqz	a5,80004de8 <_fclose_r+0x34>
    80004ea0:	f69ff06f          	j	80004e08 <_fclose_r+0x54>
    80004ea4:	01045783          	lhu	a5,16(s0)
    80004ea8:	fff00913          	li	s2,-1
    80004eac:	0807f793          	andi	a5,a5,128
    80004eb0:	f80786e3          	beqz	a5,80004e3c <_fclose_r+0x88>
    80004eb4:	01843583          	ld	a1,24(s0)
    80004eb8:	00048513          	mv	a0,s1
    80004ebc:	478000ef          	jal	ra,80005334 <_free_r>
    80004ec0:	f7dff06f          	j	80004e3c <_fclose_r+0x88>

0000000080004ec4 <fclose>:
    80004ec4:	00050593          	mv	a1,a0
    80004ec8:	7681b503          	ld	a0,1896(gp) # 80007c38 <_impure_ptr>
    80004ecc:	ee9ff06f          	j	80004db4 <_fclose_r>

0000000080004ed0 <__sflush_r>:
    80004ed0:	01059783          	lh	a5,16(a1)
    80004ed4:	fd010113          	addi	sp,sp,-48
    80004ed8:	02813023          	sd	s0,32(sp)
    80004edc:	01313423          	sd	s3,8(sp)
    80004ee0:	02113423          	sd	ra,40(sp)
    80004ee4:	00913c23          	sd	s1,24(sp)
    80004ee8:	01213823          	sd	s2,16(sp)
    80004eec:	0087f713          	andi	a4,a5,8
    80004ef0:	00058413          	mv	s0,a1
    80004ef4:	00050993          	mv	s3,a0
    80004ef8:	12071263          	bnez	a4,8000501c <__sflush_r+0x14c>
    80004efc:	00001737          	lui	a4,0x1
    80004f00:	80070713          	addi	a4,a4,-2048 # 800 <_reset-0x7ffff800>
    80004f04:	0085a683          	lw	a3,8(a1)
    80004f08:	00e7e733          	or	a4,a5,a4
    80004f0c:	00e59823          	sh	a4,16(a1)
    80004f10:	18d05863          	blez	a3,800050a0 <__sflush_r+0x1d0>
    80004f14:	04843803          	ld	a6,72(s0)
    80004f18:	0e080263          	beqz	a6,80004ffc <__sflush_r+0x12c>
    80004f1c:	00c7d793          	srli	a5,a5,0xc
    80004f20:	0009a483          	lw	s1,0(s3)
    80004f24:	0017f793          	andi	a5,a5,1
    80004f28:	0009a023          	sw	zero,0(s3)
    80004f2c:	03043583          	ld	a1,48(s0)
    80004f30:	18079063          	bnez	a5,800050b0 <__sflush_r+0x1e0>
    80004f34:	00000613          	li	a2,0
    80004f38:	00100693          	li	a3,1
    80004f3c:	00098513          	mv	a0,s3
    80004f40:	000800e7          	jalr	a6
    80004f44:	fff00793          	li	a5,-1
    80004f48:	00050613          	mv	a2,a0
    80004f4c:	1af50063          	beq	a0,a5,800050ec <__sflush_r+0x21c>
    80004f50:	01041703          	lh	a4,16(s0)
    80004f54:	04843803          	ld	a6,72(s0)
    80004f58:	03043583          	ld	a1,48(s0)
    80004f5c:	00477713          	andi	a4,a4,4
    80004f60:	00070e63          	beqz	a4,80004f7c <__sflush_r+0xac>
    80004f64:	00842703          	lw	a4,8(s0)
    80004f68:	05843783          	ld	a5,88(s0)
    80004f6c:	40e60633          	sub	a2,a2,a4
    80004f70:	00078663          	beqz	a5,80004f7c <__sflush_r+0xac>
    80004f74:	07042783          	lw	a5,112(s0)
    80004f78:	40f60633          	sub	a2,a2,a5
    80004f7c:	00000693          	li	a3,0
    80004f80:	00098513          	mv	a0,s3
    80004f84:	000800e7          	jalr	a6
    80004f88:	fff00793          	li	a5,-1
    80004f8c:	12f51663          	bne	a0,a5,800050b8 <__sflush_r+0x1e8>
    80004f90:	0009a683          	lw	a3,0(s3)
    80004f94:	01d00793          	li	a5,29
    80004f98:	0cd7ee63          	bltu	a5,a3,80005074 <__sflush_r+0x1a4>
    80004f9c:	dfc00737          	lui	a4,0xdfc00
    80004fa0:	ffe70713          	addi	a4,a4,-2 # ffffffffdfbffffe <__BSS_END__+0xffffffff5fbf832e>
    80004fa4:	40d75733          	sra	a4,a4,a3
    80004fa8:	00177713          	andi	a4,a4,1
    80004fac:	01041783          	lh	a5,16(s0)
    80004fb0:	0c071463          	bnez	a4,80005078 <__sflush_r+0x1a8>
    80004fb4:	01843603          	ld	a2,24(s0)
    80004fb8:	fffff737          	lui	a4,0xfffff
    80004fbc:	7ff70713          	addi	a4,a4,2047 # fffffffffffff7ff <__BSS_END__+0xffffffff7fff7b2f>
    80004fc0:	00e7f733          	and	a4,a5,a4
    80004fc4:	00c7d793          	srli	a5,a5,0xc
    80004fc8:	00e41823          	sh	a4,16(s0)
    80004fcc:	00042423          	sw	zero,8(s0)
    80004fd0:	00c43023          	sd	a2,0(s0)
    80004fd4:	0017f793          	andi	a5,a5,1
    80004fd8:	12079c63          	bnez	a5,80005110 <__sflush_r+0x240>
    80004fdc:	05843583          	ld	a1,88(s0)
    80004fe0:	0099a023          	sw	s1,0(s3)
    80004fe4:	00058c63          	beqz	a1,80004ffc <__sflush_r+0x12c>
    80004fe8:	07440793          	addi	a5,s0,116
    80004fec:	00f58663          	beq	a1,a5,80004ff8 <__sflush_r+0x128>
    80004ff0:	00098513          	mv	a0,s3
    80004ff4:	340000ef          	jal	ra,80005334 <_free_r>
    80004ff8:	04043c23          	sd	zero,88(s0)
    80004ffc:	00000513          	li	a0,0
    80005000:	02813083          	ld	ra,40(sp)
    80005004:	02013403          	ld	s0,32(sp)
    80005008:	01813483          	ld	s1,24(sp)
    8000500c:	01013903          	ld	s2,16(sp)
    80005010:	00813983          	ld	s3,8(sp)
    80005014:	03010113          	addi	sp,sp,48
    80005018:	00008067          	ret
    8000501c:	0185b903          	ld	s2,24(a1)
    80005020:	fc090ee3          	beqz	s2,80004ffc <__sflush_r+0x12c>
    80005024:	0005b483          	ld	s1,0(a1)
    80005028:	0037f793          	andi	a5,a5,3
    8000502c:	0125b023          	sd	s2,0(a1)
    80005030:	412484bb          	subw	s1,s1,s2
    80005034:	00000713          	li	a4,0
    80005038:	00079463          	bnez	a5,80005040 <__sflush_r+0x170>
    8000503c:	0205a703          	lw	a4,32(a1)
    80005040:	00e42623          	sw	a4,12(s0)
    80005044:	00904863          	bgtz	s1,80005054 <__sflush_r+0x184>
    80005048:	fb5ff06f          	j	80004ffc <__sflush_r+0x12c>
    8000504c:	00a90933          	add	s2,s2,a0
    80005050:	fa9056e3          	blez	s1,80004ffc <__sflush_r+0x12c>
    80005054:	04043783          	ld	a5,64(s0)
    80005058:	03043583          	ld	a1,48(s0)
    8000505c:	00048693          	mv	a3,s1
    80005060:	00090613          	mv	a2,s2
    80005064:	00098513          	mv	a0,s3
    80005068:	000780e7          	jalr	a5
    8000506c:	40a484bb          	subw	s1,s1,a0
    80005070:	fca04ee3          	bgtz	a0,8000504c <__sflush_r+0x17c>
    80005074:	01041783          	lh	a5,16(s0)
    80005078:	0407e793          	ori	a5,a5,64
    8000507c:	02813083          	ld	ra,40(sp)
    80005080:	00f41823          	sh	a5,16(s0)
    80005084:	02013403          	ld	s0,32(sp)
    80005088:	01813483          	ld	s1,24(sp)
    8000508c:	01013903          	ld	s2,16(sp)
    80005090:	00813983          	ld	s3,8(sp)
    80005094:	fff00513          	li	a0,-1
    80005098:	03010113          	addi	sp,sp,48
    8000509c:	00008067          	ret
    800050a0:	0705a683          	lw	a3,112(a1)
    800050a4:	e6d048e3          	bgtz	a3,80004f14 <__sflush_r+0x44>
    800050a8:	00000513          	li	a0,0
    800050ac:	f55ff06f          	j	80005000 <__sflush_r+0x130>
    800050b0:	09043603          	ld	a2,144(s0)
    800050b4:	ea9ff06f          	j	80004f5c <__sflush_r+0x8c>
    800050b8:	01041783          	lh	a5,16(s0)
    800050bc:	01843683          	ld	a3,24(s0)
    800050c0:	fffff737          	lui	a4,0xfffff
    800050c4:	7ff70713          	addi	a4,a4,2047 # fffffffffffff7ff <__BSS_END__+0xffffffff7fff7b2f>
    800050c8:	00e7f733          	and	a4,a5,a4
    800050cc:	00c7d793          	srli	a5,a5,0xc
    800050d0:	00e41823          	sh	a4,16(s0)
    800050d4:	00042423          	sw	zero,8(s0)
    800050d8:	00d43023          	sd	a3,0(s0)
    800050dc:	0017f793          	andi	a5,a5,1
    800050e0:	ee078ee3          	beqz	a5,80004fdc <__sflush_r+0x10c>
    800050e4:	08a43823          	sd	a0,144(s0)
    800050e8:	ef5ff06f          	j	80004fdc <__sflush_r+0x10c>
    800050ec:	0009a783          	lw	a5,0(s3)
    800050f0:	e60780e3          	beqz	a5,80004f50 <__sflush_r+0x80>
    800050f4:	01d00713          	li	a4,29
    800050f8:	00e78663          	beq	a5,a4,80005104 <__sflush_r+0x234>
    800050fc:	01600713          	li	a4,22
    80005100:	f6e79ae3          	bne	a5,a4,80005074 <__sflush_r+0x1a4>
    80005104:	0099a023          	sw	s1,0(s3)
    80005108:	00000513          	li	a0,0
    8000510c:	ef5ff06f          	j	80005000 <__sflush_r+0x130>
    80005110:	ec0696e3          	bnez	a3,80004fdc <__sflush_r+0x10c>
    80005114:	08a43823          	sd	a0,144(s0)
    80005118:	ec5ff06f          	j	80004fdc <__sflush_r+0x10c>

000000008000511c <_fflush_r>:
    8000511c:	fe010113          	addi	sp,sp,-32
    80005120:	00813823          	sd	s0,16(sp)
    80005124:	00113c23          	sd	ra,24(sp)
    80005128:	00050413          	mv	s0,a0
    8000512c:	00050663          	beqz	a0,80005138 <_fflush_r+0x1c>
    80005130:	05052783          	lw	a5,80(a0)
    80005134:	02078063          	beqz	a5,80005154 <_fflush_r+0x38>
    80005138:	01059783          	lh	a5,16(a1)
    8000513c:	02079663          	bnez	a5,80005168 <_fflush_r+0x4c>
    80005140:	01813083          	ld	ra,24(sp)
    80005144:	01013403          	ld	s0,16(sp)
    80005148:	00000513          	li	a0,0
    8000514c:	02010113          	addi	sp,sp,32
    80005150:	00008067          	ret
    80005154:	00b13423          	sd	a1,8(sp)
    80005158:	8f8fe0ef          	jal	ra,80003250 <__sinit>
    8000515c:	00813583          	ld	a1,8(sp)
    80005160:	01059783          	lh	a5,16(a1)
    80005164:	fc078ee3          	beqz	a5,80005140 <_fflush_r+0x24>
    80005168:	00040513          	mv	a0,s0
    8000516c:	01013403          	ld	s0,16(sp)
    80005170:	01813083          	ld	ra,24(sp)
    80005174:	02010113          	addi	sp,sp,32
    80005178:	d59ff06f          	j	80004ed0 <__sflush_r>

000000008000517c <fflush>:
    8000517c:	06050663          	beqz	a0,800051e8 <fflush+0x6c>
    80005180:	fe010113          	addi	sp,sp,-32
    80005184:	00813823          	sd	s0,16(sp)
    80005188:	00113c23          	sd	ra,24(sp)
    8000518c:	00050413          	mv	s0,a0
    80005190:	7681b503          	ld	a0,1896(gp) # 80007c38 <_impure_ptr>
    80005194:	00050663          	beqz	a0,800051a0 <fflush+0x24>
    80005198:	05052783          	lw	a5,80(a0)
    8000519c:	02078a63          	beqz	a5,800051d0 <fflush+0x54>
    800051a0:	01041783          	lh	a5,16(s0)
    800051a4:	00079c63          	bnez	a5,800051bc <fflush+0x40>
    800051a8:	01813083          	ld	ra,24(sp)
    800051ac:	01013403          	ld	s0,16(sp)
    800051b0:	00000513          	li	a0,0
    800051b4:	02010113          	addi	sp,sp,32
    800051b8:	00008067          	ret
    800051bc:	00040593          	mv	a1,s0
    800051c0:	01013403          	ld	s0,16(sp)
    800051c4:	01813083          	ld	ra,24(sp)
    800051c8:	02010113          	addi	sp,sp,32
    800051cc:	d05ff06f          	j	80004ed0 <__sflush_r>
    800051d0:	00a13423          	sd	a0,8(sp)
    800051d4:	87cfe0ef          	jal	ra,80003250 <__sinit>
    800051d8:	01041783          	lh	a5,16(s0)
    800051dc:	00813503          	ld	a0,8(sp)
    800051e0:	fc0784e3          	beqz	a5,800051a8 <fflush+0x2c>
    800051e4:	fd9ff06f          	j	800051bc <fflush+0x40>
    800051e8:	00000597          	auipc	a1,0x0
    800051ec:	f3458593          	addi	a1,a1,-204 # 8000511c <_fflush_r>
    800051f0:	7501b503          	ld	a0,1872(gp) # 80007c20 <_global_impure_ptr>
    800051f4:	e5cfe06f          	j	80003850 <_fwalk_reent>

00000000800051f8 <_malloc_trim_r>:
    800051f8:	fd010113          	addi	sp,sp,-48
    800051fc:	02813023          	sd	s0,32(sp)
    80005200:	00913c23          	sd	s1,24(sp)
    80005204:	01213823          	sd	s2,16(sp)
    80005208:	01313423          	sd	s3,8(sp)
    8000520c:	01413023          	sd	s4,0(sp)
    80005210:	00058993          	mv	s3,a1
    80005214:	02113423          	sd	ra,40(sp)
    80005218:	00002a17          	auipc	s4,0x2
    8000521c:	1e0a0a13          	addi	s4,s4,480 # 800073f8 <__malloc_av_>
    80005220:	00050913          	mv	s2,a0
    80005224:	a6cff0ef          	jal	ra,80004490 <__malloc_lock>
    80005228:	010a3703          	ld	a4,16(s4)
    8000522c:	000017b7          	lui	a5,0x1
    80005230:	fdf78413          	addi	s0,a5,-33 # fdf <_reset-0x7ffff021>
    80005234:	00873483          	ld	s1,8(a4)
    80005238:	ffc4f493          	andi	s1,s1,-4
    8000523c:	00848433          	add	s0,s1,s0
    80005240:	41340433          	sub	s0,s0,s3
    80005244:	00c45413          	srli	s0,s0,0xc
    80005248:	fff40413          	addi	s0,s0,-1
    8000524c:	00c41413          	slli	s0,s0,0xc
    80005250:	00f44e63          	blt	s0,a5,8000526c <_malloc_trim_r+0x74>
    80005254:	00000593          	li	a1,0
    80005258:	00090513          	mv	a0,s2
    8000525c:	f9cff0ef          	jal	ra,800049f8 <_sbrk_r>
    80005260:	010a3783          	ld	a5,16(s4)
    80005264:	009787b3          	add	a5,a5,s1
    80005268:	02f50863          	beq	a0,a5,80005298 <_malloc_trim_r+0xa0>
    8000526c:	00090513          	mv	a0,s2
    80005270:	a24ff0ef          	jal	ra,80004494 <__malloc_unlock>
    80005274:	02813083          	ld	ra,40(sp)
    80005278:	02013403          	ld	s0,32(sp)
    8000527c:	01813483          	ld	s1,24(sp)
    80005280:	01013903          	ld	s2,16(sp)
    80005284:	00813983          	ld	s3,8(sp)
    80005288:	00013a03          	ld	s4,0(sp)
    8000528c:	00000513          	li	a0,0
    80005290:	03010113          	addi	sp,sp,48
    80005294:	00008067          	ret
    80005298:	408005b3          	neg	a1,s0
    8000529c:	00090513          	mv	a0,s2
    800052a0:	f58ff0ef          	jal	ra,800049f8 <_sbrk_r>
    800052a4:	fff00793          	li	a5,-1
    800052a8:	04f50a63          	beq	a0,a5,800052fc <_malloc_trim_r+0x104>
    800052ac:	00003717          	auipc	a4,0x3
    800052b0:	9fc70713          	addi	a4,a4,-1540 # 80007ca8 <__malloc_current_mallinfo>
    800052b4:	00072783          	lw	a5,0(a4)
    800052b8:	010a3683          	ld	a3,16(s4)
    800052bc:	408484b3          	sub	s1,s1,s0
    800052c0:	0014e493          	ori	s1,s1,1
    800052c4:	408787bb          	subw	a5,a5,s0
    800052c8:	00090513          	mv	a0,s2
    800052cc:	0096b423          	sd	s1,8(a3)
    800052d0:	00f72023          	sw	a5,0(a4)
    800052d4:	9c0ff0ef          	jal	ra,80004494 <__malloc_unlock>
    800052d8:	02813083          	ld	ra,40(sp)
    800052dc:	02013403          	ld	s0,32(sp)
    800052e0:	01813483          	ld	s1,24(sp)
    800052e4:	01013903          	ld	s2,16(sp)
    800052e8:	00813983          	ld	s3,8(sp)
    800052ec:	00013a03          	ld	s4,0(sp)
    800052f0:	00100513          	li	a0,1
    800052f4:	03010113          	addi	sp,sp,48
    800052f8:	00008067          	ret
    800052fc:	00000593          	li	a1,0
    80005300:	00090513          	mv	a0,s2
    80005304:	ef4ff0ef          	jal	ra,800049f8 <_sbrk_r>
    80005308:	010a3703          	ld	a4,16(s4)
    8000530c:	01f00693          	li	a3,31
    80005310:	40e507b3          	sub	a5,a0,a4
    80005314:	f4f6dce3          	bge	a3,a5,8000526c <_malloc_trim_r+0x74>
    80005318:	7701b683          	ld	a3,1904(gp) # 80007c40 <__malloc_sbrk_base>
    8000531c:	40d50533          	sub	a0,a0,a3
    80005320:	0017e793          	ori	a5,a5,1
    80005324:	00003697          	auipc	a3,0x3
    80005328:	98a6a223          	sw	a0,-1660(a3) # 80007ca8 <__malloc_current_mallinfo>
    8000532c:	00f73423          	sd	a5,8(a4)
    80005330:	f3dff06f          	j	8000526c <_malloc_trim_r+0x74>

0000000080005334 <_free_r>:
    80005334:	18058863          	beqz	a1,800054c4 <_free_r+0x190>
    80005338:	fe010113          	addi	sp,sp,-32
    8000533c:	00813823          	sd	s0,16(sp)
    80005340:	00913423          	sd	s1,8(sp)
    80005344:	00058413          	mv	s0,a1
    80005348:	00050493          	mv	s1,a0
    8000534c:	00113c23          	sd	ra,24(sp)
    80005350:	940ff0ef          	jal	ra,80004490 <__malloc_lock>
    80005354:	ff843583          	ld	a1,-8(s0)
    80005358:	ff040713          	addi	a4,s0,-16
    8000535c:	00002517          	auipc	a0,0x2
    80005360:	09c50513          	addi	a0,a0,156 # 800073f8 <__malloc_av_>
    80005364:	ffe5f793          	andi	a5,a1,-2
    80005368:	00f70633          	add	a2,a4,a5
    8000536c:	00863683          	ld	a3,8(a2)
    80005370:	01053803          	ld	a6,16(a0)
    80005374:	ffc6f693          	andi	a3,a3,-4
    80005378:	1ac80863          	beq	a6,a2,80005528 <_free_r+0x1f4>
    8000537c:	00d63423          	sd	a3,8(a2)
    80005380:	0015f593          	andi	a1,a1,1
    80005384:	00d60833          	add	a6,a2,a3
    80005388:	0a059463          	bnez	a1,80005430 <_free_r+0xfc>
    8000538c:	ff043303          	ld	t1,-16(s0)
    80005390:	00883583          	ld	a1,8(a6)
    80005394:	00002897          	auipc	a7,0x2
    80005398:	07488893          	addi	a7,a7,116 # 80007408 <__malloc_av_+0x10>
    8000539c:	40670733          	sub	a4,a4,t1
    800053a0:	01073803          	ld	a6,16(a4)
    800053a4:	006787b3          	add	a5,a5,t1
    800053a8:	0015f593          	andi	a1,a1,1
    800053ac:	15180863          	beq	a6,a7,800054fc <_free_r+0x1c8>
    800053b0:	01873303          	ld	t1,24(a4)
    800053b4:	00683c23          	sd	t1,24(a6)
    800053b8:	01033823          	sd	a6,16(t1)
    800053bc:	1a058c63          	beqz	a1,80005574 <_free_r+0x240>
    800053c0:	0017e693          	ori	a3,a5,1
    800053c4:	00d73423          	sd	a3,8(a4)
    800053c8:	00f63023          	sd	a5,0(a2)
    800053cc:	1ff00693          	li	a3,511
    800053d0:	08f6e063          	bltu	a3,a5,80005450 <_free_r+0x11c>
    800053d4:	0037d793          	srli	a5,a5,0x3
    800053d8:	0017869b          	addiw	a3,a5,1
    800053dc:	0016969b          	slliw	a3,a3,0x1
    800053e0:	00369693          	slli	a3,a3,0x3
    800053e4:	00853803          	ld	a6,8(a0)
    800053e8:	00d506b3          	add	a3,a0,a3
    800053ec:	0006b583          	ld	a1,0(a3)
    800053f0:	4027d61b          	sraiw	a2,a5,0x2
    800053f4:	00100793          	li	a5,1
    800053f8:	00c797b3          	sll	a5,a5,a2
    800053fc:	0107e7b3          	or	a5,a5,a6
    80005400:	ff068613          	addi	a2,a3,-16
    80005404:	00c73c23          	sd	a2,24(a4)
    80005408:	00b73823          	sd	a1,16(a4)
    8000540c:	00f53423          	sd	a5,8(a0)
    80005410:	00e6b023          	sd	a4,0(a3)
    80005414:	00e5bc23          	sd	a4,24(a1)
    80005418:	01013403          	ld	s0,16(sp)
    8000541c:	01813083          	ld	ra,24(sp)
    80005420:	00048513          	mv	a0,s1
    80005424:	00813483          	ld	s1,8(sp)
    80005428:	02010113          	addi	sp,sp,32
    8000542c:	868ff06f          	j	80004494 <__malloc_unlock>
    80005430:	00883583          	ld	a1,8(a6)
    80005434:	0015f593          	andi	a1,a1,1
    80005438:	08058863          	beqz	a1,800054c8 <_free_r+0x194>
    8000543c:	0017e693          	ori	a3,a5,1
    80005440:	fed43c23          	sd	a3,-8(s0)
    80005444:	00f63023          	sd	a5,0(a2)
    80005448:	1ff00693          	li	a3,511
    8000544c:	f8f6f4e3          	bgeu	a3,a5,800053d4 <_free_r+0xa0>
    80005450:	0097d693          	srli	a3,a5,0x9
    80005454:	00400613          	li	a2,4
    80005458:	12d66263          	bltu	a2,a3,8000557c <_free_r+0x248>
    8000545c:	0067d693          	srli	a3,a5,0x6
    80005460:	0396859b          	addiw	a1,a3,57
    80005464:	0015959b          	slliw	a1,a1,0x1
    80005468:	0386861b          	addiw	a2,a3,56
    8000546c:	00359593          	slli	a1,a1,0x3
    80005470:	00b505b3          	add	a1,a0,a1
    80005474:	0005b683          	ld	a3,0(a1)
    80005478:	ff058593          	addi	a1,a1,-16
    8000547c:	00d59863          	bne	a1,a3,8000548c <_free_r+0x158>
    80005480:	15c0006f          	j	800055dc <_free_r+0x2a8>
    80005484:	0106b683          	ld	a3,16(a3)
    80005488:	00d58863          	beq	a1,a3,80005498 <_free_r+0x164>
    8000548c:	0086b603          	ld	a2,8(a3)
    80005490:	ffc67613          	andi	a2,a2,-4
    80005494:	fec7e8e3          	bltu	a5,a2,80005484 <_free_r+0x150>
    80005498:	0186b583          	ld	a1,24(a3)
    8000549c:	00b73c23          	sd	a1,24(a4)
    800054a0:	00d73823          	sd	a3,16(a4)
    800054a4:	01013403          	ld	s0,16(sp)
    800054a8:	01813083          	ld	ra,24(sp)
    800054ac:	00e5b823          	sd	a4,16(a1)
    800054b0:	00048513          	mv	a0,s1
    800054b4:	00813483          	ld	s1,8(sp)
    800054b8:	00e6bc23          	sd	a4,24(a3)
    800054bc:	02010113          	addi	sp,sp,32
    800054c0:	fd5fe06f          	j	80004494 <__malloc_unlock>
    800054c4:	00008067          	ret
    800054c8:	00d787b3          	add	a5,a5,a3
    800054cc:	00002897          	auipc	a7,0x2
    800054d0:	f3c88893          	addi	a7,a7,-196 # 80007408 <__malloc_av_+0x10>
    800054d4:	01063683          	ld	a3,16(a2)
    800054d8:	0f168063          	beq	a3,a7,800055b8 <_free_r+0x284>
    800054dc:	01863803          	ld	a6,24(a2)
    800054e0:	0017e593          	ori	a1,a5,1
    800054e4:	00f70633          	add	a2,a4,a5
    800054e8:	0106bc23          	sd	a6,24(a3)
    800054ec:	00d83823          	sd	a3,16(a6)
    800054f0:	00b73423          	sd	a1,8(a4)
    800054f4:	00f63023          	sd	a5,0(a2)
    800054f8:	ed5ff06f          	j	800053cc <_free_r+0x98>
    800054fc:	14059463          	bnez	a1,80005644 <_free_r+0x310>
    80005500:	01063583          	ld	a1,16(a2)
    80005504:	01863603          	ld	a2,24(a2)
    80005508:	00f686b3          	add	a3,a3,a5
    8000550c:	0016e793          	ori	a5,a3,1
    80005510:	00c5bc23          	sd	a2,24(a1)
    80005514:	00b63823          	sd	a1,16(a2)
    80005518:	00f73423          	sd	a5,8(a4)
    8000551c:	00d70733          	add	a4,a4,a3
    80005520:	00d73023          	sd	a3,0(a4)
    80005524:	ef5ff06f          	j	80005418 <_free_r+0xe4>
    80005528:	0015f593          	andi	a1,a1,1
    8000552c:	00d786b3          	add	a3,a5,a3
    80005530:	02059063          	bnez	a1,80005550 <_free_r+0x21c>
    80005534:	ff043583          	ld	a1,-16(s0)
    80005538:	40b70733          	sub	a4,a4,a1
    8000553c:	01873783          	ld	a5,24(a4)
    80005540:	01073603          	ld	a2,16(a4)
    80005544:	00b686b3          	add	a3,a3,a1
    80005548:	00f63c23          	sd	a5,24(a2)
    8000554c:	00c7b823          	sd	a2,16(a5)
    80005550:	0016e793          	ori	a5,a3,1
    80005554:	00f73423          	sd	a5,8(a4)
    80005558:	00e53823          	sd	a4,16(a0)
    8000555c:	7781b783          	ld	a5,1912(gp) # 80007c48 <__malloc_trim_threshold>
    80005560:	eaf6ece3          	bltu	a3,a5,80005418 <_free_r+0xe4>
    80005564:	7901b583          	ld	a1,1936(gp) # 80007c60 <__malloc_top_pad>
    80005568:	00048513          	mv	a0,s1
    8000556c:	c8dff0ef          	jal	ra,800051f8 <_malloc_trim_r>
    80005570:	ea9ff06f          	j	80005418 <_free_r+0xe4>
    80005574:	00d787b3          	add	a5,a5,a3
    80005578:	f5dff06f          	j	800054d4 <_free_r+0x1a0>
    8000557c:	01400613          	li	a2,20
    80005580:	02d67263          	bgeu	a2,a3,800055a4 <_free_r+0x270>
    80005584:	05400613          	li	a2,84
    80005588:	06d66863          	bltu	a2,a3,800055f8 <_free_r+0x2c4>
    8000558c:	00c7d693          	srli	a3,a5,0xc
    80005590:	06f6859b          	addiw	a1,a3,111
    80005594:	0015959b          	slliw	a1,a1,0x1
    80005598:	06e6861b          	addiw	a2,a3,110
    8000559c:	00359593          	slli	a1,a1,0x3
    800055a0:	ed1ff06f          	j	80005470 <_free_r+0x13c>
    800055a4:	05c6859b          	addiw	a1,a3,92
    800055a8:	0015959b          	slliw	a1,a1,0x1
    800055ac:	05b6861b          	addiw	a2,a3,91
    800055b0:	00359593          	slli	a1,a1,0x3
    800055b4:	ebdff06f          	j	80005470 <_free_r+0x13c>
    800055b8:	02e53423          	sd	a4,40(a0)
    800055bc:	02e53023          	sd	a4,32(a0)
    800055c0:	0017e693          	ori	a3,a5,1
    800055c4:	01173c23          	sd	a7,24(a4)
    800055c8:	01173823          	sd	a7,16(a4)
    800055cc:	00d73423          	sd	a3,8(a4)
    800055d0:	00f70733          	add	a4,a4,a5
    800055d4:	00f73023          	sd	a5,0(a4)
    800055d8:	e41ff06f          	j	80005418 <_free_r+0xe4>
    800055dc:	00853803          	ld	a6,8(a0)
    800055e0:	4026561b          	sraiw	a2,a2,0x2
    800055e4:	00100793          	li	a5,1
    800055e8:	00c797b3          	sll	a5,a5,a2
    800055ec:	0107e7b3          	or	a5,a5,a6
    800055f0:	00f53423          	sd	a5,8(a0)
    800055f4:	ea9ff06f          	j	8000549c <_free_r+0x168>
    800055f8:	15400613          	li	a2,340
    800055fc:	00d66e63          	bltu	a2,a3,80005618 <_free_r+0x2e4>
    80005600:	00f7d693          	srli	a3,a5,0xf
    80005604:	0786859b          	addiw	a1,a3,120
    80005608:	0015959b          	slliw	a1,a1,0x1
    8000560c:	0776861b          	addiw	a2,a3,119
    80005610:	00359593          	slli	a1,a1,0x3
    80005614:	e5dff06f          	j	80005470 <_free_r+0x13c>
    80005618:	55400613          	li	a2,1364
    8000561c:	00d66e63          	bltu	a2,a3,80005638 <_free_r+0x304>
    80005620:	0127d693          	srli	a3,a5,0x12
    80005624:	07d6859b          	addiw	a1,a3,125
    80005628:	0015959b          	slliw	a1,a1,0x1
    8000562c:	07c6861b          	addiw	a2,a3,124
    80005630:	00359593          	slli	a1,a1,0x3
    80005634:	e3dff06f          	j	80005470 <_free_r+0x13c>
    80005638:	7f000593          	li	a1,2032
    8000563c:	07e00613          	li	a2,126
    80005640:	e31ff06f          	j	80005470 <_free_r+0x13c>
    80005644:	0017e693          	ori	a3,a5,1
    80005648:	00d73423          	sd	a3,8(a4)
    8000564c:	00f63023          	sd	a5,0(a2)
    80005650:	dc9ff06f          	j	80005418 <_free_r+0xe4>

0000000080005654 <_lseek_r>:
    80005654:	ff010113          	addi	sp,sp,-16
    80005658:	00058713          	mv	a4,a1
    8000565c:	00813023          	sd	s0,0(sp)
    80005660:	00060593          	mv	a1,a2
    80005664:	00050413          	mv	s0,a0
    80005668:	00068613          	mv	a2,a3
    8000566c:	00070513          	mv	a0,a4
    80005670:	7801ac23          	sw	zero,1944(gp) # 80007c68 <errno>
    80005674:	00113423          	sd	ra,8(sp)
    80005678:	ed5fc0ef          	jal	ra,8000254c <_lseek>
    8000567c:	fff00793          	li	a5,-1
    80005680:	00f50a63          	beq	a0,a5,80005694 <_lseek_r+0x40>
    80005684:	00813083          	ld	ra,8(sp)
    80005688:	00013403          	ld	s0,0(sp)
    8000568c:	01010113          	addi	sp,sp,16
    80005690:	00008067          	ret
    80005694:	7981a783          	lw	a5,1944(gp) # 80007c68 <errno>
    80005698:	fe0786e3          	beqz	a5,80005684 <_lseek_r+0x30>
    8000569c:	00813083          	ld	ra,8(sp)
    800056a0:	00f42023          	sw	a5,0(s0)
    800056a4:	00013403          	ld	s0,0(sp)
    800056a8:	01010113          	addi	sp,sp,16
    800056ac:	00008067          	ret

00000000800056b0 <__smakebuf_r>:
    800056b0:	01059783          	lh	a5,16(a1)
    800056b4:	f6010113          	addi	sp,sp,-160
    800056b8:	08813823          	sd	s0,144(sp)
    800056bc:	08113c23          	sd	ra,152(sp)
    800056c0:	08913423          	sd	s1,136(sp)
    800056c4:	09213023          	sd	s2,128(sp)
    800056c8:	07313c23          	sd	s3,120(sp)
    800056cc:	07413823          	sd	s4,112(sp)
    800056d0:	0027f713          	andi	a4,a5,2
    800056d4:	00058413          	mv	s0,a1
    800056d8:	02070c63          	beqz	a4,80005710 <__smakebuf_r+0x60>
    800056dc:	07758793          	addi	a5,a1,119
    800056e0:	00f5b023          	sd	a5,0(a1)
    800056e4:	00f5bc23          	sd	a5,24(a1)
    800056e8:	00100793          	li	a5,1
    800056ec:	02f5a023          	sw	a5,32(a1)
    800056f0:	09813083          	ld	ra,152(sp)
    800056f4:	09013403          	ld	s0,144(sp)
    800056f8:	08813483          	ld	s1,136(sp)
    800056fc:	08013903          	ld	s2,128(sp)
    80005700:	07813983          	ld	s3,120(sp)
    80005704:	07013a03          	ld	s4,112(sp)
    80005708:	0a010113          	addi	sp,sp,160
    8000570c:	00008067          	ret
    80005710:	01259583          	lh	a1,18(a1)
    80005714:	00050493          	mv	s1,a0
    80005718:	0805cc63          	bltz	a1,800057b0 <__smakebuf_r+0x100>
    8000571c:	00810613          	addi	a2,sp,8
    80005720:	4ac000ef          	jal	ra,80005bcc <_fstat_r>
    80005724:	08054463          	bltz	a0,800057ac <__smakebuf_r+0xfc>
    80005728:	00c12903          	lw	s2,12(sp)
    8000572c:	0000f7b7          	lui	a5,0xf
    80005730:	00001a37          	lui	s4,0x1
    80005734:	00f97933          	and	s2,s2,a5
    80005738:	000027b7          	lui	a5,0x2
    8000573c:	40f90933          	sub	s2,s2,a5
    80005740:	00193913          	seqz	s2,s2
    80005744:	40000993          	li	s3,1024
    80005748:	800a0a13          	addi	s4,s4,-2048 # 800 <_reset-0x7ffff800>
    8000574c:	00098593          	mv	a1,s3
    80005750:	00048513          	mv	a0,s1
    80005754:	9c8fe0ef          	jal	ra,8000391c <_malloc_r>
    80005758:	01041783          	lh	a5,16(s0)
    8000575c:	06050e63          	beqz	a0,800057d8 <__smakebuf_r+0x128>
    80005760:	ffffd717          	auipc	a4,0xffffd
    80005764:	7b870713          	addi	a4,a4,1976 # 80002f18 <_cleanup_r>
    80005768:	04e4bc23          	sd	a4,88(s1)
    8000576c:	0807e793          	ori	a5,a5,128
    80005770:	00f41823          	sh	a5,16(s0)
    80005774:	00a43023          	sd	a0,0(s0)
    80005778:	00a43c23          	sd	a0,24(s0)
    8000577c:	03342023          	sw	s3,32(s0)
    80005780:	08091863          	bnez	s2,80005810 <__smakebuf_r+0x160>
    80005784:	0147e7b3          	or	a5,a5,s4
    80005788:	09813083          	ld	ra,152(sp)
    8000578c:	00f41823          	sh	a5,16(s0)
    80005790:	09013403          	ld	s0,144(sp)
    80005794:	08813483          	ld	s1,136(sp)
    80005798:	08013903          	ld	s2,128(sp)
    8000579c:	07813983          	ld	s3,120(sp)
    800057a0:	07013a03          	ld	s4,112(sp)
    800057a4:	0a010113          	addi	sp,sp,160
    800057a8:	00008067          	ret
    800057ac:	01041783          	lh	a5,16(s0)
    800057b0:	0807f793          	andi	a5,a5,128
    800057b4:	00000913          	li	s2,0
    800057b8:	04078663          	beqz	a5,80005804 <__smakebuf_r+0x154>
    800057bc:	04000993          	li	s3,64
    800057c0:	00098593          	mv	a1,s3
    800057c4:	00048513          	mv	a0,s1
    800057c8:	954fe0ef          	jal	ra,8000391c <_malloc_r>
    800057cc:	01041783          	lh	a5,16(s0)
    800057d0:	00000a13          	li	s4,0
    800057d4:	f80516e3          	bnez	a0,80005760 <__smakebuf_r+0xb0>
    800057d8:	2007f713          	andi	a4,a5,512
    800057dc:	f0071ae3          	bnez	a4,800056f0 <__smakebuf_r+0x40>
    800057e0:	ffc7f793          	andi	a5,a5,-4
    800057e4:	0027e793          	ori	a5,a5,2
    800057e8:	07740713          	addi	a4,s0,119
    800057ec:	00f41823          	sh	a5,16(s0)
    800057f0:	00100793          	li	a5,1
    800057f4:	00e43023          	sd	a4,0(s0)
    800057f8:	00e43c23          	sd	a4,24(s0)
    800057fc:	02f42023          	sw	a5,32(s0)
    80005800:	ef1ff06f          	j	800056f0 <__smakebuf_r+0x40>
    80005804:	40000993          	li	s3,1024
    80005808:	00000a13          	li	s4,0
    8000580c:	f41ff06f          	j	8000574c <__smakebuf_r+0x9c>
    80005810:	01241583          	lh	a1,18(s0)
    80005814:	00048513          	mv	a0,s1
    80005818:	40c000ef          	jal	ra,80005c24 <_isatty_r>
    8000581c:	00051663          	bnez	a0,80005828 <__smakebuf_r+0x178>
    80005820:	01041783          	lh	a5,16(s0)
    80005824:	f61ff06f          	j	80005784 <__smakebuf_r+0xd4>
    80005828:	01045783          	lhu	a5,16(s0)
    8000582c:	ffc7f793          	andi	a5,a5,-4
    80005830:	0017e793          	ori	a5,a5,1
    80005834:	0107979b          	slliw	a5,a5,0x10
    80005838:	4107d79b          	sraiw	a5,a5,0x10
    8000583c:	f49ff06f          	j	80005784 <__smakebuf_r+0xd4>

0000000080005840 <__swhatbuf_r>:
    80005840:	f7010113          	addi	sp,sp,-144
    80005844:	08813023          	sd	s0,128(sp)
    80005848:	00058413          	mv	s0,a1
    8000584c:	01259583          	lh	a1,18(a1)
    80005850:	06913c23          	sd	s1,120(sp)
    80005854:	07213823          	sd	s2,112(sp)
    80005858:	08113423          	sd	ra,136(sp)
    8000585c:	00060493          	mv	s1,a2
    80005860:	00068913          	mv	s2,a3
    80005864:	0405ca63          	bltz	a1,800058b8 <__swhatbuf_r+0x78>
    80005868:	00810613          	addi	a2,sp,8
    8000586c:	360000ef          	jal	ra,80005bcc <_fstat_r>
    80005870:	04054463          	bltz	a0,800058b8 <__swhatbuf_r+0x78>
    80005874:	00c12783          	lw	a5,12(sp)
    80005878:	0000f737          	lui	a4,0xf
    8000587c:	08813083          	ld	ra,136(sp)
    80005880:	00e7f7b3          	and	a5,a5,a4
    80005884:	00002737          	lui	a4,0x2
    80005888:	40e787b3          	sub	a5,a5,a4
    8000588c:	08013403          	ld	s0,128(sp)
    80005890:	0017b793          	seqz	a5,a5
    80005894:	00f92023          	sw	a5,0(s2)
    80005898:	40000713          	li	a4,1024
    8000589c:	00e4b023          	sd	a4,0(s1)
    800058a0:	00001537          	lui	a0,0x1
    800058a4:	07813483          	ld	s1,120(sp)
    800058a8:	07013903          	ld	s2,112(sp)
    800058ac:	80050513          	addi	a0,a0,-2048 # 800 <_reset-0x7ffff800>
    800058b0:	09010113          	addi	sp,sp,144
    800058b4:	00008067          	ret
    800058b8:	01045783          	lhu	a5,16(s0)
    800058bc:	0807f793          	andi	a5,a5,128
    800058c0:	02078863          	beqz	a5,800058f0 <__swhatbuf_r+0xb0>
    800058c4:	08813083          	ld	ra,136(sp)
    800058c8:	08013403          	ld	s0,128(sp)
    800058cc:	00000793          	li	a5,0
    800058d0:	00f92023          	sw	a5,0(s2)
    800058d4:	04000713          	li	a4,64
    800058d8:	00e4b023          	sd	a4,0(s1)
    800058dc:	07013903          	ld	s2,112(sp)
    800058e0:	07813483          	ld	s1,120(sp)
    800058e4:	00000513          	li	a0,0
    800058e8:	09010113          	addi	sp,sp,144
    800058ec:	00008067          	ret
    800058f0:	08813083          	ld	ra,136(sp)
    800058f4:	08013403          	ld	s0,128(sp)
    800058f8:	00f92023          	sw	a5,0(s2)
    800058fc:	40000713          	li	a4,1024
    80005900:	00e4b023          	sd	a4,0(s1)
    80005904:	07013903          	ld	s2,112(sp)
    80005908:	07813483          	ld	s1,120(sp)
    8000590c:	00000513          	li	a0,0
    80005910:	09010113          	addi	sp,sp,144
    80005914:	00008067          	ret

0000000080005918 <_read_r>:
    80005918:	ff010113          	addi	sp,sp,-16
    8000591c:	00058713          	mv	a4,a1
    80005920:	00813023          	sd	s0,0(sp)
    80005924:	00060593          	mv	a1,a2
    80005928:	00050413          	mv	s0,a0
    8000592c:	00068613          	mv	a2,a3
    80005930:	00070513          	mv	a0,a4
    80005934:	7801ac23          	sw	zero,1944(gp) # 80007c68 <errno>
    80005938:	00113423          	sd	ra,8(sp)
    8000593c:	c61fc0ef          	jal	ra,8000259c <_read>
    80005940:	fff00793          	li	a5,-1
    80005944:	00f50a63          	beq	a0,a5,80005958 <_read_r+0x40>
    80005948:	00813083          	ld	ra,8(sp)
    8000594c:	00013403          	ld	s0,0(sp)
    80005950:	01010113          	addi	sp,sp,16
    80005954:	00008067          	ret
    80005958:	7981a783          	lw	a5,1944(gp) # 80007c68 <errno>
    8000595c:	fe0786e3          	beqz	a5,80005948 <_read_r+0x30>
    80005960:	00813083          	ld	ra,8(sp)
    80005964:	00f42023          	sw	a5,0(s0)
    80005968:	00013403          	ld	s0,0(sp)
    8000596c:	01010113          	addi	sp,sp,16
    80005970:	00008067          	ret

0000000080005974 <cleanup_glue>:
    80005974:	fd010113          	addi	sp,sp,-48
    80005978:	01213823          	sd	s2,16(sp)
    8000597c:	0005b903          	ld	s2,0(a1)
    80005980:	02813023          	sd	s0,32(sp)
    80005984:	00913c23          	sd	s1,24(sp)
    80005988:	02113423          	sd	ra,40(sp)
    8000598c:	01313423          	sd	s3,8(sp)
    80005990:	01413023          	sd	s4,0(sp)
    80005994:	00058413          	mv	s0,a1
    80005998:	00050493          	mv	s1,a0
    8000599c:	04090263          	beqz	s2,800059e0 <cleanup_glue+0x6c>
    800059a0:	00093983          	ld	s3,0(s2)
    800059a4:	02098863          	beqz	s3,800059d4 <cleanup_glue+0x60>
    800059a8:	0009ba03          	ld	s4,0(s3)
    800059ac:	000a0e63          	beqz	s4,800059c8 <cleanup_glue+0x54>
    800059b0:	000a3583          	ld	a1,0(s4)
    800059b4:	00058463          	beqz	a1,800059bc <cleanup_glue+0x48>
    800059b8:	fbdff0ef          	jal	ra,80005974 <cleanup_glue>
    800059bc:	000a0593          	mv	a1,s4
    800059c0:	00048513          	mv	a0,s1
    800059c4:	971ff0ef          	jal	ra,80005334 <_free_r>
    800059c8:	00098593          	mv	a1,s3
    800059cc:	00048513          	mv	a0,s1
    800059d0:	965ff0ef          	jal	ra,80005334 <_free_r>
    800059d4:	00090593          	mv	a1,s2
    800059d8:	00048513          	mv	a0,s1
    800059dc:	959ff0ef          	jal	ra,80005334 <_free_r>
    800059e0:	00040593          	mv	a1,s0
    800059e4:	02013403          	ld	s0,32(sp)
    800059e8:	02813083          	ld	ra,40(sp)
    800059ec:	01013903          	ld	s2,16(sp)
    800059f0:	00813983          	ld	s3,8(sp)
    800059f4:	00013a03          	ld	s4,0(sp)
    800059f8:	00048513          	mv	a0,s1
    800059fc:	01813483          	ld	s1,24(sp)
    80005a00:	03010113          	addi	sp,sp,48
    80005a04:	931ff06f          	j	80005334 <_free_r>

0000000080005a08 <_reclaim_reent>:
    80005a08:	7681b783          	ld	a5,1896(gp) # 80007c38 <_impure_ptr>
    80005a0c:	10a78a63          	beq	a5,a0,80005b20 <_reclaim_reent+0x118>
    80005a10:	07853583          	ld	a1,120(a0)
    80005a14:	fd010113          	addi	sp,sp,-48
    80005a18:	00913c23          	sd	s1,24(sp)
    80005a1c:	02113423          	sd	ra,40(sp)
    80005a20:	02813023          	sd	s0,32(sp)
    80005a24:	01213823          	sd	s2,16(sp)
    80005a28:	01313423          	sd	s3,8(sp)
    80005a2c:	00050493          	mv	s1,a0
    80005a30:	04058063          	beqz	a1,80005a70 <_reclaim_reent+0x68>
    80005a34:	00000913          	li	s2,0
    80005a38:	20000993          	li	s3,512
    80005a3c:	012587b3          	add	a5,a1,s2
    80005a40:	0007b403          	ld	s0,0(a5) # 2000 <_reset-0x7fffe000>
    80005a44:	00040e63          	beqz	s0,80005a60 <_reclaim_reent+0x58>
    80005a48:	00040593          	mv	a1,s0
    80005a4c:	00043403          	ld	s0,0(s0)
    80005a50:	00048513          	mv	a0,s1
    80005a54:	8e1ff0ef          	jal	ra,80005334 <_free_r>
    80005a58:	fe0418e3          	bnez	s0,80005a48 <_reclaim_reent+0x40>
    80005a5c:	0784b583          	ld	a1,120(s1)
    80005a60:	00890913          	addi	s2,s2,8
    80005a64:	fd391ce3          	bne	s2,s3,80005a3c <_reclaim_reent+0x34>
    80005a68:	00048513          	mv	a0,s1
    80005a6c:	8c9ff0ef          	jal	ra,80005334 <_free_r>
    80005a70:	0604b583          	ld	a1,96(s1)
    80005a74:	00058663          	beqz	a1,80005a80 <_reclaim_reent+0x78>
    80005a78:	00048513          	mv	a0,s1
    80005a7c:	8b9ff0ef          	jal	ra,80005334 <_free_r>
    80005a80:	1f84b403          	ld	s0,504(s1)
    80005a84:	02040063          	beqz	s0,80005aa4 <_reclaim_reent+0x9c>
    80005a88:	20048913          	addi	s2,s1,512
    80005a8c:	01240c63          	beq	s0,s2,80005aa4 <_reclaim_reent+0x9c>
    80005a90:	00040593          	mv	a1,s0
    80005a94:	00043403          	ld	s0,0(s0)
    80005a98:	00048513          	mv	a0,s1
    80005a9c:	899ff0ef          	jal	ra,80005334 <_free_r>
    80005aa0:	fe8918e3          	bne	s2,s0,80005a90 <_reclaim_reent+0x88>
    80005aa4:	0884b583          	ld	a1,136(s1)
    80005aa8:	00058663          	beqz	a1,80005ab4 <_reclaim_reent+0xac>
    80005aac:	00048513          	mv	a0,s1
    80005ab0:	885ff0ef          	jal	ra,80005334 <_free_r>
    80005ab4:	0504a783          	lw	a5,80(s1)
    80005ab8:	04078663          	beqz	a5,80005b04 <_reclaim_reent+0xfc>
    80005abc:	0584b783          	ld	a5,88(s1)
    80005ac0:	00048513          	mv	a0,s1
    80005ac4:	000780e7          	jalr	a5
    80005ac8:	5204b403          	ld	s0,1312(s1)
    80005acc:	02040c63          	beqz	s0,80005b04 <_reclaim_reent+0xfc>
    80005ad0:	00043583          	ld	a1,0(s0)
    80005ad4:	00058663          	beqz	a1,80005ae0 <_reclaim_reent+0xd8>
    80005ad8:	00048513          	mv	a0,s1
    80005adc:	e99ff0ef          	jal	ra,80005974 <cleanup_glue>
    80005ae0:	00040593          	mv	a1,s0
    80005ae4:	02013403          	ld	s0,32(sp)
    80005ae8:	02813083          	ld	ra,40(sp)
    80005aec:	01013903          	ld	s2,16(sp)
    80005af0:	00813983          	ld	s3,8(sp)
    80005af4:	00048513          	mv	a0,s1
    80005af8:	01813483          	ld	s1,24(sp)
    80005afc:	03010113          	addi	sp,sp,48
    80005b00:	835ff06f          	j	80005334 <_free_r>
    80005b04:	02813083          	ld	ra,40(sp)
    80005b08:	02013403          	ld	s0,32(sp)
    80005b0c:	01813483          	ld	s1,24(sp)
    80005b10:	01013903          	ld	s2,16(sp)
    80005b14:	00813983          	ld	s3,8(sp)
    80005b18:	03010113          	addi	sp,sp,48
    80005b1c:	00008067          	ret
    80005b20:	00008067          	ret

0000000080005b24 <__register_exitproc>:
    80005b24:	7501b703          	ld	a4,1872(gp) # 80007c20 <_global_impure_ptr>
    80005b28:	1f873783          	ld	a5,504(a4) # 21f8 <_reset-0x7fffde08>
    80005b2c:	06078063          	beqz	a5,80005b8c <__register_exitproc+0x68>
    80005b30:	0087a703          	lw	a4,8(a5)
    80005b34:	01f00813          	li	a6,31
    80005b38:	08e84663          	blt	a6,a4,80005bc4 <__register_exitproc+0xa0>
    80005b3c:	02050863          	beqz	a0,80005b6c <__register_exitproc+0x48>
    80005b40:	00371813          	slli	a6,a4,0x3
    80005b44:	01078833          	add	a6,a5,a6
    80005b48:	10c83823          	sd	a2,272(a6)
    80005b4c:	3107a883          	lw	a7,784(a5)
    80005b50:	00100613          	li	a2,1
    80005b54:	00e6163b          	sllw	a2,a2,a4
    80005b58:	00c8e8b3          	or	a7,a7,a2
    80005b5c:	3117a823          	sw	a7,784(a5)
    80005b60:	20d83823          	sd	a3,528(a6)
    80005b64:	00200693          	li	a3,2
    80005b68:	02d50863          	beq	a0,a3,80005b98 <__register_exitproc+0x74>
    80005b6c:	00270693          	addi	a3,a4,2
    80005b70:	00369693          	slli	a3,a3,0x3
    80005b74:	0017071b          	addiw	a4,a4,1
    80005b78:	00e7a423          	sw	a4,8(a5)
    80005b7c:	00d787b3          	add	a5,a5,a3
    80005b80:	00b7b023          	sd	a1,0(a5)
    80005b84:	00000513          	li	a0,0
    80005b88:	00008067          	ret
    80005b8c:	20070793          	addi	a5,a4,512
    80005b90:	1ef73c23          	sd	a5,504(a4)
    80005b94:	f9dff06f          	j	80005b30 <__register_exitproc+0xc>
    80005b98:	3147a683          	lw	a3,788(a5)
    80005b9c:	00000513          	li	a0,0
    80005ba0:	00c6e6b3          	or	a3,a3,a2
    80005ba4:	30d7aa23          	sw	a3,788(a5)
    80005ba8:	00270693          	addi	a3,a4,2
    80005bac:	00369693          	slli	a3,a3,0x3
    80005bb0:	0017071b          	addiw	a4,a4,1
    80005bb4:	00e7a423          	sw	a4,8(a5)
    80005bb8:	00d787b3          	add	a5,a5,a3
    80005bbc:	00b7b023          	sd	a1,0(a5)
    80005bc0:	00008067          	ret
    80005bc4:	fff00513          	li	a0,-1
    80005bc8:	00008067          	ret

0000000080005bcc <_fstat_r>:
    80005bcc:	ff010113          	addi	sp,sp,-16
    80005bd0:	00058713          	mv	a4,a1
    80005bd4:	00813023          	sd	s0,0(sp)
    80005bd8:	00060593          	mv	a1,a2
    80005bdc:	00050413          	mv	s0,a0
    80005be0:	00070513          	mv	a0,a4
    80005be4:	7801ac23          	sw	zero,1944(gp) # 80007c68 <errno>
    80005be8:	00113423          	sd	ra,8(sp)
    80005bec:	a01fc0ef          	jal	ra,800025ec <_fstat>
    80005bf0:	fff00793          	li	a5,-1
    80005bf4:	00f50a63          	beq	a0,a5,80005c08 <_fstat_r+0x3c>
    80005bf8:	00813083          	ld	ra,8(sp)
    80005bfc:	00013403          	ld	s0,0(sp)
    80005c00:	01010113          	addi	sp,sp,16
    80005c04:	00008067          	ret
    80005c08:	7981a783          	lw	a5,1944(gp) # 80007c68 <errno>
    80005c0c:	fe0786e3          	beqz	a5,80005bf8 <_fstat_r+0x2c>
    80005c10:	00813083          	ld	ra,8(sp)
    80005c14:	00f42023          	sw	a5,0(s0)
    80005c18:	00013403          	ld	s0,0(sp)
    80005c1c:	01010113          	addi	sp,sp,16
    80005c20:	00008067          	ret

0000000080005c24 <_isatty_r>:
    80005c24:	ff010113          	addi	sp,sp,-16
    80005c28:	00813023          	sd	s0,0(sp)
    80005c2c:	00050413          	mv	s0,a0
    80005c30:	00058513          	mv	a0,a1
    80005c34:	7801ac23          	sw	zero,1944(gp) # 80007c68 <errno>
    80005c38:	00113423          	sd	ra,8(sp)
    80005c3c:	9f5fc0ef          	jal	ra,80002630 <_isatty>
    80005c40:	fff00793          	li	a5,-1
    80005c44:	00f50a63          	beq	a0,a5,80005c58 <_isatty_r+0x34>
    80005c48:	00813083          	ld	ra,8(sp)
    80005c4c:	00013403          	ld	s0,0(sp)
    80005c50:	01010113          	addi	sp,sp,16
    80005c54:	00008067          	ret
    80005c58:	7981a783          	lw	a5,1944(gp) # 80007c68 <errno>
    80005c5c:	fe0786e3          	beqz	a5,80005c48 <_isatty_r+0x24>
    80005c60:	00813083          	ld	ra,8(sp)
    80005c64:	00f42023          	sw	a5,0(s0)
    80005c68:	00013403          	ld	s0,0(sp)
    80005c6c:	01010113          	addi	sp,sp,16
    80005c70:	00008067          	ret

0000000080005c74 <_exit>:
    80005c74:	0000006f          	j	80005c74 <_exit>

Disassembly of section .text.init:

0000000080000000 <_reset>:
	.section ".text.init"
	.globl	_reset

_reset:
	li	sp, 0x800f0000
    80000000:	00008137          	lui	sp,0x8
    80000004:	00f1011b          	addiw	sp,sp,15 # 800f <_reset-0x7fff7ff1>
    80000008:	01011113          	slli	sp,sp,0x10
	// Place an illegal instruction (0) at the stack pointer
	// so that the program ends if the value is used
#if __riscv_xlen == 64
	sd	zero, 0(sp)
    8000000c:	00013023          	sd	zero,0(sp)
	sd	zero, -8(sp)
    80000010:	fe013c23          	sd	zero,-8(sp)
	sw	zero, -4(sp)
#endif
	// Set MSTATUS
	// Enable MIE and SIE
	// Set FS to 2 = Dirty
	li      s0, 0x600a
    80000014:	00006437          	lui	s0,0x6
    80000018:	00a4041b          	addiw	s0,s0,10 # 600a <_reset-0x7fff9ff6>
	csrw    mstatus, s0
    8000001c:	30041073          	csrw	mstatus,s0
	// Set MTVEC to an address (also to 0x800f0000?)
	// and place an illegal instruction (0) at that location
	// so that the program ends if there is a trap
	li	s0, 0x800f0000
    80000020:	00008437          	lui	s0,0x8
    80000024:	00f4041b          	addiw	s0,s0,15 # 800f <_reset-0x7fff7ff1>
    80000028:	01041413          	slli	s0,s0,0x10
#if __riscv_xlen == 64
	sd	zero, 0xC0(s0)
    8000002c:	0c043023          	sd	zero,192(s0)
#else
	sw	zero, 0xC0(s0)
#endif
	csrw	mtvec, s0
    80000030:	30541073          	csrw	mtvec,s0
#ifdef __riscv_float_abi_double
	// Set MSTATUS
	// Set FS to 1 = Initial
	li	s0, 0x2000
    80000034:	00002437          	lui	s0,0x2
	csrs	mstatus, s0
    80000038:	30042073          	csrs	mstatus,s0
#endif

	/* zero out the bss */
	.option push
	.option norelax
        la      t1, __bss_start
    8000003c:	00008317          	auipc	t1,0x8
    80000040:	c1430313          	addi	t1,t1,-1004 # 80007c50 <__malloc_max_total_mem>
        la      t2, _end
    80000044:	00008397          	auipc	t2,0x8
    80000048:	c8c38393          	addi	t2,t2,-884 # 80007cd0 <__BSS_END__>

000000008000004c <zinit>:
#if __riscv_xlen == 64
zinit:  sd      zero, 0(t1)
    8000004c:	00033023          	sd	zero,0(t1)
        add     t1, t1, 0x8
    80000050:	00830313          	addi	t1,t1,8
        bne     t1, t2, zinit
    80000054:	fe731ce3          	bne	t1,t2,8000004c <zinit>
	.option pop

	// TODO: Use xRET to switch to S or U mode?
	// TODO: (Previous version for v1.7 priv spec set PRV to S
	// TODO: when setting the MSTATUS above.)
	j _start
    80000058:	0d80206f          	j	80002130 <_start>
