
rv32uf-v-fcvt_w:     file format elf32-littleriscv


Disassembly of section .text.init:

80000000 <_start>:
80000000:	0180006f          	j	80000018 <handle_reset>

80000004 <nmi_vector>:
80000004:	29c0106f          	j	800012a0 <wtf>

80000008 <trap_vector>:
80000008:	34202f73          	csrr	t5,mcause
8000000c:	00900f93          	li	t6,9
80000010:	1fff0a63          	beq	t5,t6,80000204 <write_tohost>
80000014:	28c0106f          	j	800012a0 <wtf>

80000018 <handle_reset>:
80000018:	00000093          	li	ra,0
8000001c:	00000113          	li	sp,0
80000020:	00000193          	li	gp,0
80000024:	00000213          	li	tp,0
80000028:	00000293          	li	t0,0
8000002c:	00000313          	li	t1,0
80000030:	00000393          	li	t2,0
80000034:	00000413          	li	s0,0
80000038:	00000493          	li	s1,0
8000003c:	00000513          	li	a0,0
80000040:	00000593          	li	a1,0
80000044:	00000613          	li	a2,0
80000048:	00000693          	li	a3,0
8000004c:	00000713          	li	a4,0
80000050:	00000793          	li	a5,0
80000054:	00000813          	li	a6,0
80000058:	00000893          	li	a7,0
8000005c:	00000913          	li	s2,0
80000060:	00000993          	li	s3,0
80000064:	00000a13          	li	s4,0
80000068:	00000a93          	li	s5,0
8000006c:	00000b13          	li	s6,0
80000070:	00000b93          	li	s7,0
80000074:	00000c13          	li	s8,0
80000078:	00000c93          	li	s9,0
8000007c:	00000d13          	li	s10,0
80000080:	00000d93          	li	s11,0
80000084:	00000e13          	li	t3,0
80000088:	00000e93          	li	t4,0
8000008c:	00000f13          	li	t5,0
80000090:	00000f93          	li	t6,0
80000094:	00000297          	auipc	t0,0x0
80000098:	f7428293          	addi	t0,t0,-140 # 80000008 <trap_vector>
8000009c:	30529073          	csrw	mtvec,t0
800000a0:	00007117          	auipc	sp,0x7
800000a4:	ed010113          	addi	sp,sp,-304 # 80006f70 <freelist_head+0xf6c>
800000a8:	f14022f3          	csrr	t0,mhartid
800000ac:	00c29293          	slli	t0,t0,0xc
800000b0:	00510133          	add	sp,sp,t0
800000b4:	34011073          	csrw	mscratch,sp
800000b8:	035010ef          	jal	ra,800018ec <extra_boot>
800000bc:	00002517          	auipc	a0,0x2
800000c0:	83450513          	addi	a0,a0,-1996 # 800018f0 <userstart>
800000c4:	6440106f          	j	80001708 <vm_boot>

800000c8 <pop_tf>:
800000c8:	08452283          	lw	t0,132(a0)
800000cc:	14129073          	csrw	sepc,t0
800000d0:	00452083          	lw	ra,4(a0)
800000d4:	00852103          	lw	sp,8(a0)
800000d8:	00c52183          	lw	gp,12(a0)
800000dc:	01052203          	lw	tp,16(a0)
800000e0:	01452283          	lw	t0,20(a0)
800000e4:	01852303          	lw	t1,24(a0)
800000e8:	01c52383          	lw	t2,28(a0)
800000ec:	02052403          	lw	s0,32(a0)
800000f0:	02452483          	lw	s1,36(a0)
800000f4:	02c52583          	lw	a1,44(a0)
800000f8:	03052603          	lw	a2,48(a0)
800000fc:	03452683          	lw	a3,52(a0)
80000100:	03852703          	lw	a4,56(a0)
80000104:	03c52783          	lw	a5,60(a0)
80000108:	04052803          	lw	a6,64(a0)
8000010c:	04452883          	lw	a7,68(a0)
80000110:	04852903          	lw	s2,72(a0)
80000114:	04c52983          	lw	s3,76(a0)
80000118:	05052a03          	lw	s4,80(a0)
8000011c:	05452a83          	lw	s5,84(a0)
80000120:	05852b03          	lw	s6,88(a0)
80000124:	05c52b83          	lw	s7,92(a0)
80000128:	06052c03          	lw	s8,96(a0)
8000012c:	06452c83          	lw	s9,100(a0)
80000130:	06852d03          	lw	s10,104(a0)
80000134:	06c52d83          	lw	s11,108(a0)
80000138:	07052e03          	lw	t3,112(a0)
8000013c:	07452e83          	lw	t4,116(a0)
80000140:	07852f03          	lw	t5,120(a0)
80000144:	07c52f83          	lw	t6,124(a0)
80000148:	02852503          	lw	a0,40(a0)
8000014c:	10200073          	sret

80000150 <trap_entry>:
80000150:	14011173          	csrrw	sp,sscratch,sp
80000154:	00112223          	sw	ra,4(sp)
80000158:	00312623          	sw	gp,12(sp)
8000015c:	00412823          	sw	tp,16(sp)
80000160:	00512a23          	sw	t0,20(sp)
80000164:	00612c23          	sw	t1,24(sp)
80000168:	00712e23          	sw	t2,28(sp)
8000016c:	02812023          	sw	s0,32(sp)
80000170:	02912223          	sw	s1,36(sp)
80000174:	02a12423          	sw	a0,40(sp)
80000178:	02b12623          	sw	a1,44(sp)
8000017c:	02c12823          	sw	a2,48(sp)
80000180:	02d12a23          	sw	a3,52(sp)
80000184:	02e12c23          	sw	a4,56(sp)
80000188:	02f12e23          	sw	a5,60(sp)
8000018c:	05012023          	sw	a6,64(sp)
80000190:	05112223          	sw	a7,68(sp)
80000194:	05212423          	sw	s2,72(sp)
80000198:	05312623          	sw	s3,76(sp)
8000019c:	05412823          	sw	s4,80(sp)
800001a0:	05512a23          	sw	s5,84(sp)
800001a4:	05612c23          	sw	s6,88(sp)
800001a8:	05712e23          	sw	s7,92(sp)
800001ac:	07812023          	sw	s8,96(sp)
800001b0:	07912223          	sw	s9,100(sp)
800001b4:	07a12423          	sw	s10,104(sp)
800001b8:	07b12623          	sw	s11,108(sp)
800001bc:	07c12823          	sw	t3,112(sp)
800001c0:	07d12a23          	sw	t4,116(sp)
800001c4:	07e12c23          	sw	t5,120(sp)
800001c8:	07f12e23          	sw	t6,124(sp)
800001cc:	140112f3          	csrrw	t0,sscratch,sp
800001d0:	00512423          	sw	t0,8(sp)
800001d4:	100022f3          	csrr	t0,sstatus
800001d8:	08512023          	sw	t0,128(sp)
800001dc:	141022f3          	csrr	t0,sepc
800001e0:	08512223          	sw	t0,132(sp)
800001e4:	143022f3          	csrr	t0,stval
800001e8:	08512423          	sw	t0,136(sp)
800001ec:	142022f3          	csrr	t0,scause
800001f0:	08512623          	sw	t0,140(sp)
800001f4:	00010513          	mv	a0,sp
800001f8:	2f40106f          	j	800014ec <handle_trap>

800001fc <do_tohost>:
800001fc:	00000073          	ecall
80000200:	00008067          	ret

80000204 <write_tohost>:
80000204:	efff0f17          	auipc	t5,0xefff0
80000208:	e0af2623          	sw	a0,-500(t5) # 6fff0010 <tohost>
8000020c:	ff9ff06f          	j	80000204 <write_tohost>

Disassembly of section .text:

80001000 <memcpy>:
80001000:	00b567b3          	or	a5,a0,a1
80001004:	00c7e7b3          	or	a5,a5,a2
80001008:	0037f793          	andi	a5,a5,3
8000100c:	00c506b3          	add	a3,a0,a2
80001010:	02078463          	beqz	a5,80001038 <memcpy+0x38>
80001014:	00c58633          	add	a2,a1,a2
80001018:	00050793          	mv	a5,a0
8000101c:	02d57e63          	bgeu	a0,a3,80001058 <memcpy+0x58>
80001020:	0005c703          	lbu	a4,0(a1)
80001024:	00158593          	addi	a1,a1,1
80001028:	00178793          	addi	a5,a5,1
8000102c:	fee78fa3          	sb	a4,-1(a5)
80001030:	fec598e3          	bne	a1,a2,80001020 <memcpy+0x20>
80001034:	00008067          	ret
80001038:	fed57ee3          	bgeu	a0,a3,80001034 <memcpy+0x34>
8000103c:	00050793          	mv	a5,a0
80001040:	0005a703          	lw	a4,0(a1)
80001044:	00478793          	addi	a5,a5,4
80001048:	00458593          	addi	a1,a1,4
8000104c:	fee7ae23          	sw	a4,-4(a5)
80001050:	fed7e8e3          	bltu	a5,a3,80001040 <memcpy+0x40>
80001054:	00008067          	ret
80001058:	00008067          	ret

8000105c <memset>:
8000105c:	ff010113          	addi	sp,sp,-16
80001060:	00c567b3          	or	a5,a0,a2
80001064:	00812423          	sw	s0,8(sp)
80001068:	00112623          	sw	ra,12(sp)
8000106c:	0037f793          	andi	a5,a5,3
80001070:	00050413          	mv	s0,a0
80001074:	00c50733          	add	a4,a0,a2
80001078:	02078263          	beqz	a5,8000109c <memset+0x40>
8000107c:	00e57663          	bgeu	a0,a4,80001088 <memset+0x2c>
80001080:	0ff5f593          	zext.b	a1,a1
80001084:	fd9ff0ef          	jal	ra,8000105c <memset>
80001088:	00c12083          	lw	ra,12(sp)
8000108c:	00040513          	mv	a0,s0
80001090:	00812403          	lw	s0,8(sp)
80001094:	01010113          	addi	sp,sp,16
80001098:	00008067          	ret
8000109c:	0ff5f593          	zext.b	a1,a1
800010a0:	00859793          	slli	a5,a1,0x8
800010a4:	00b7e7b3          	or	a5,a5,a1
800010a8:	01079693          	slli	a3,a5,0x10
800010ac:	00f6e6b3          	or	a3,a3,a5
800010b0:	fce57ce3          	bgeu	a0,a4,80001088 <memset+0x2c>
800010b4:	00050793          	mv	a5,a0
800010b8:	00478793          	addi	a5,a5,4
800010bc:	fed7ae23          	sw	a3,-4(a5)
800010c0:	fee7ece3          	bltu	a5,a4,800010b8 <memset+0x5c>
800010c4:	00c12083          	lw	ra,12(sp)
800010c8:	00040513          	mv	a0,s0
800010cc:	00812403          	lw	s0,8(sp)
800010d0:	01010113          	addi	sp,sp,16
800010d4:	00008067          	ret

800010d8 <strlen>:
800010d8:	00054783          	lbu	a5,0(a0)
800010dc:	00078e63          	beqz	a5,800010f8 <strlen+0x20>
800010e0:	00050793          	mv	a5,a0
800010e4:	0017c703          	lbu	a4,1(a5)
800010e8:	00178793          	addi	a5,a5,1
800010ec:	fe071ce3          	bnez	a4,800010e4 <strlen+0xc>
800010f0:	40a78533          	sub	a0,a5,a0
800010f4:	00008067          	ret
800010f8:	00000513          	li	a0,0
800010fc:	00008067          	ret

80001100 <strcmp>:
80001100:	00054783          	lbu	a5,0(a0)
80001104:	00158593          	addi	a1,a1,1
80001108:	00150513          	addi	a0,a0,1
8000110c:	fff5c703          	lbu	a4,-1(a1)
80001110:	00078863          	beqz	a5,80001120 <strcmp+0x20>
80001114:	fee786e3          	beq	a5,a4,80001100 <strcmp>
80001118:	40e78533          	sub	a0,a5,a4
8000111c:	00008067          	ret
80001120:	00000793          	li	a5,0
80001124:	ff5ff06f          	j	80001118 <strcmp+0x18>

80001128 <memcmp>:
80001128:	00b567b3          	or	a5,a0,a1
8000112c:	0037f793          	andi	a5,a5,3
80001130:	02079e63          	bnez	a5,8000116c <memcmp+0x44>
80001134:	ffc67813          	andi	a6,a2,-4
80001138:	01050833          	add	a6,a0,a6
8000113c:	03057863          	bgeu	a0,a6,8000116c <memcmp+0x44>
80001140:	00050793          	mv	a5,a0
80001144:	0100006f          	j	80001154 <memcmp+0x2c>
80001148:	00478793          	addi	a5,a5,4
8000114c:	00458593          	addi	a1,a1,4
80001150:	0107f863          	bgeu	a5,a6,80001160 <memcmp+0x38>
80001154:	0007a683          	lw	a3,0(a5)
80001158:	0005a703          	lw	a4,0(a1)
8000115c:	fee686e3          	beq	a3,a4,80001148 <memcmp+0x20>
80001160:	40a78533          	sub	a0,a5,a0
80001164:	40a60633          	sub	a2,a2,a0
80001168:	00078513          	mv	a0,a5
8000116c:	00c58633          	add	a2,a1,a2
80001170:	0140006f          	j	80001184 <memcmp+0x5c>
80001174:	0005c703          	lbu	a4,0(a1)
80001178:	fff54783          	lbu	a5,-1(a0)
8000117c:	00158593          	addi	a1,a1,1
80001180:	00e79a63          	bne	a5,a4,80001194 <memcmp+0x6c>
80001184:	00150513          	addi	a0,a0,1
80001188:	fec596e3          	bne	a1,a2,80001174 <memcmp+0x4c>
8000118c:	00000513          	li	a0,0
80001190:	00008067          	ret
80001194:	40e78533          	sub	a0,a5,a4
80001198:	00008067          	ret

8000119c <strcpy>:
8000119c:	00050793          	mv	a5,a0
800011a0:	0005c703          	lbu	a4,0(a1)
800011a4:	00178793          	addi	a5,a5,1
800011a8:	00158593          	addi	a1,a1,1
800011ac:	fee78fa3          	sb	a4,-1(a5)
800011b0:	fe0718e3          	bnez	a4,800011a0 <strcpy+0x4>
800011b4:	00008067          	ret

800011b8 <atol>:
800011b8:	00054703          	lbu	a4,0(a0)
800011bc:	02000693          	li	a3,32
800011c0:	00050793          	mv	a5,a0
800011c4:	00d71863          	bne	a4,a3,800011d4 <atol+0x1c>
800011c8:	0017c703          	lbu	a4,1(a5)
800011cc:	00178793          	addi	a5,a5,1
800011d0:	fed70ce3          	beq	a4,a3,800011c8 <atol+0x10>
800011d4:	02d00693          	li	a3,45
800011d8:	06d70063          	beq	a4,a3,80001238 <atol+0x80>
800011dc:	02b00693          	li	a3,43
800011e0:	04d70063          	beq	a4,a3,80001220 <atol+0x68>
800011e4:	0007c683          	lbu	a3,0(a5)
800011e8:	00000593          	li	a1,0
800011ec:	04068263          	beqz	a3,80001230 <atol+0x78>
800011f0:	00000513          	li	a0,0
800011f4:	00178793          	addi	a5,a5,1
800011f8:	00251713          	slli	a4,a0,0x2
800011fc:	fd068613          	addi	a2,a3,-48
80001200:	0007c683          	lbu	a3,0(a5)
80001204:	00a70733          	add	a4,a4,a0
80001208:	00171713          	slli	a4,a4,0x1
8000120c:	00e60533          	add	a0,a2,a4
80001210:	fe0692e3          	bnez	a3,800011f4 <atol+0x3c>
80001214:	02058063          	beqz	a1,80001234 <atol+0x7c>
80001218:	40a00533          	neg	a0,a0
8000121c:	00008067          	ret
80001220:	0017c683          	lbu	a3,1(a5)
80001224:	00000593          	li	a1,0
80001228:	00178793          	addi	a5,a5,1
8000122c:	fc0692e3          	bnez	a3,800011f0 <atol+0x38>
80001230:	00000513          	li	a0,0
80001234:	00008067          	ret
80001238:	0017c683          	lbu	a3,1(a5)
8000123c:	00100593          	li	a1,1
80001240:	00178793          	addi	a5,a5,1
80001244:	fa0696e3          	bnez	a3,800011f0 <atol+0x38>
80001248:	00000513          	li	a0,0
8000124c:	fe9ff06f          	j	80001234 <atol+0x7c>

80001250 <terminate>:
80001250:	ff010113          	addi	sp,sp,-16
80001254:	41f55593          	srai	a1,a0,0x1f
80001258:	00112623          	sw	ra,12(sp)
8000125c:	fa1fe0ef          	jal	ra,800001fc <do_tohost>
80001260:	0000006f          	j	80001260 <terminate+0x10>

80001264 <cputstring>:
80001264:	ff010113          	addi	sp,sp,-16
80001268:	00812423          	sw	s0,8(sp)
8000126c:	00112623          	sw	ra,12(sp)
80001270:	00050413          	mv	s0,a0
80001274:	00054503          	lbu	a0,0(a0)
80001278:	00050c63          	beqz	a0,80001290 <cputstring+0x2c>
8000127c:	010105b7          	lui	a1,0x1010
80001280:	00140413          	addi	s0,s0,1
80001284:	f79fe0ef          	jal	ra,800001fc <do_tohost>
80001288:	00044503          	lbu	a0,0(s0)
8000128c:	fe0518e3          	bnez	a0,8000127c <cputstring+0x18>
80001290:	00c12083          	lw	ra,12(sp)
80001294:	00812403          	lw	s0,8(sp)
80001298:	01010113          	addi	sp,sp,16
8000129c:	00008067          	ret

800012a0 <wtf>:
800012a0:	ff010113          	addi	sp,sp,-16
800012a4:	34900513          	li	a0,841
800012a8:	00112623          	sw	ra,12(sp)
800012ac:	fa5ff0ef          	jal	ra,80001250 <terminate>

800012b0 <printhex>:
800012b0:	fd010113          	addi	sp,sp,-48
800012b4:	02812423          	sw	s0,40(sp)
800012b8:	02112623          	sw	ra,44(sp)
800012bc:	00c10413          	addi	s0,sp,12
800012c0:	01b10693          	addi	a3,sp,27
800012c4:	00900613          	li	a2,9
800012c8:	0080006f          	j	800012d0 <printhex+0x20>
800012cc:	00078693          	mv	a3,a5
800012d0:	00f57793          	andi	a5,a0,15
800012d4:	00f637b3          	sltu	a5,a2,a5
800012d8:	40f007b3          	neg	a5,a5
800012dc:	0277f793          	andi	a5,a5,39
800012e0:	00f57713          	andi	a4,a0,15
800012e4:	03078793          	addi	a5,a5,48
800012e8:	00f707b3          	add	a5,a4,a5
800012ec:	00f68023          	sb	a5,0(a3)
800012f0:	01c59713          	slli	a4,a1,0x1c
800012f4:	00455513          	srli	a0,a0,0x4
800012f8:	fff68793          	addi	a5,a3,-1
800012fc:	00a76533          	or	a0,a4,a0
80001300:	0045d593          	srli	a1,a1,0x4
80001304:	fcd414e3          	bne	s0,a3,800012cc <printhex+0x1c>
80001308:	00c14503          	lbu	a0,12(sp)
8000130c:	00010e23          	sb	zero,28(sp)
80001310:	00050c63          	beqz	a0,80001328 <printhex+0x78>
80001314:	010105b7          	lui	a1,0x1010
80001318:	00140413          	addi	s0,s0,1
8000131c:	ee1fe0ef          	jal	ra,800001fc <do_tohost>
80001320:	00044503          	lbu	a0,0(s0)
80001324:	fe0518e3          	bnez	a0,80001314 <printhex+0x64>
80001328:	02c12083          	lw	ra,44(sp)
8000132c:	02812403          	lw	s0,40(sp)
80001330:	03010113          	addi	sp,sp,48
80001334:	00008067          	ret

80001338 <handle_fault>:
80001338:	ff010113          	addi	sp,sp,-16
8000133c:	fffff837          	lui	a6,0xfffff
80001340:	00112623          	sw	ra,12(sp)
80001344:	01050733          	add	a4,a0,a6
80001348:	0003e7b7          	lui	a5,0x3e
8000134c:	14f77863          	bgeu	a4,a5,8000149c <handle_fault+0x164>
80001350:	00c55713          	srli	a4,a0,0xc
80001354:	40070693          	addi	a3,a4,1024
80001358:	00003617          	auipc	a2,0x3
8000135c:	ca860613          	addi	a2,a2,-856 # 80004000 <pt>
80001360:	00269793          	slli	a5,a3,0x2
80001364:	00f607b3          	add	a5,a2,a5
80001368:	0007a783          	lw	a5,0(a5) # 3e000 <tohost-0x6ffb2010>
8000136c:	01057533          	and	a0,a0,a6
80001370:	0e079063          	bnez	a5,80001450 <handle_fault+0x118>
80001374:	00005597          	auipc	a1,0x5
80001378:	c9058593          	addi	a1,a1,-880 # 80006004 <freelist_head>
8000137c:	0005a803          	lw	a6,0(a1)
80001380:	14080263          	beqz	a6,800014c4 <handle_fault+0x18c>
80001384:	00482783          	lw	a5,4(a6) # fffff004 <freelist_head+0x7fff9000>
80001388:	00005897          	auipc	a7,0x5
8000138c:	c788a883          	lw	a7,-904(a7) # 80006000 <freelist_tail>
80001390:	00f5a023          	sw	a5,0(a1)
80001394:	0f178e63          	beq	a5,a7,80001490 <handle_fault+0x158>
80001398:	00082783          	lw	a5,0(a6)
8000139c:	00269893          	slli	a7,a3,0x2
800013a0:	011608b3          	add	a7,a2,a7
800013a4:	00c7d793          	srli	a5,a5,0xc
800013a8:	00a79793          	slli	a5,a5,0xa
800013ac:	0df7e313          	ori	t1,a5,223
800013b0:	01f7e593          	ori	a1,a5,31
800013b4:	0068a023          	sw	t1,0(a7)
800013b8:	12050073          	sfence.vma	a0
800013bc:	00002797          	auipc	a5,0x2
800013c0:	c4478793          	addi	a5,a5,-956 # 80003000 <user_mapping>
800013c4:	00371713          	slli	a4,a4,0x3
800013c8:	00e787b3          	add	a5,a5,a4
800013cc:	0007a703          	lw	a4,0(a5)
800013d0:	10071463          	bnez	a4,800014d8 <handle_fault+0x1a0>
800013d4:	00082703          	lw	a4,0(a6)
800013d8:	000408b7          	lui	a7,0x40
800013dc:	00e7a023          	sw	a4,0(a5)
800013e0:	00482703          	lw	a4,4(a6)
800013e4:	00e7a223          	sw	a4,4(a5)
800013e8:	1008a8f3          	csrrs	a7,sstatus,a7
800013ec:	ffc007b7          	lui	a5,0xffc00
800013f0:	00f507b3          	add	a5,a0,a5
800013f4:	00001837          	lui	a6,0x1
800013f8:	00050713          	mv	a4,a0
800013fc:	01078833          	add	a6,a5,a6
80001400:	0007af03          	lw	t5,0(a5) # ffc00000 <freelist_head+0x7fbf9ffc>
80001404:	0047ae83          	lw	t4,4(a5)
80001408:	0087ae03          	lw	t3,8(a5)
8000140c:	00c7a303          	lw	t1,12(a5)
80001410:	01e72023          	sw	t5,0(a4)
80001414:	01d72223          	sw	t4,4(a4)
80001418:	01c72423          	sw	t3,8(a4)
8000141c:	00672623          	sw	t1,12(a4)
80001420:	01078793          	addi	a5,a5,16
80001424:	01070713          	addi	a4,a4,16
80001428:	fd079ce3          	bne	a5,a6,80001400 <handle_fault+0xc8>
8000142c:	10089073          	csrw	sstatus,a7
80001430:	00269793          	slli	a5,a3,0x2
80001434:	00f606b3          	add	a3,a2,a5
80001438:	00b6a023          	sw	a1,0(a3)
8000143c:	12050073          	sfence.vma	a0
80001440:	0000100f          	fence.i
80001444:	00c12083          	lw	ra,12(sp)
80001448:	01010113          	addi	sp,sp,16
8000144c:	00008067          	ret
80001450:	0407f713          	andi	a4,a5,64
80001454:	02070a63          	beqz	a4,80001488 <handle_fault+0x150>
80001458:	0807f713          	andi	a4,a5,128
8000145c:	04071a63          	bnez	a4,800014b0 <handle_fault+0x178>
80001460:	00f00713          	li	a4,15
80001464:	0807e793          	ori	a5,a5,128
80001468:	04e59463          	bne	a1,a4,800014b0 <handle_fault+0x178>
8000146c:	00269693          	slli	a3,a3,0x2
80001470:	00d606b3          	add	a3,a2,a3
80001474:	00f6a023          	sw	a5,0(a3)
80001478:	12050073          	sfence.vma	a0
8000147c:	00c12083          	lw	ra,12(sp)
80001480:	01010113          	addi	sp,sp,16
80001484:	00008067          	ret
80001488:	0407e793          	ori	a5,a5,64
8000148c:	fe1ff06f          	j	8000146c <handle_fault+0x134>
80001490:	00005797          	auipc	a5,0x5
80001494:	b607a823          	sw	zero,-1168(a5) # 80006000 <freelist_tail>
80001498:	f01ff06f          	j	80001398 <handle_fault+0x60>
8000149c:	00001517          	auipc	a0,0x1
800014a0:	86450513          	addi	a0,a0,-1948 # 80001d00 <pass+0xc>
800014a4:	dc1ff0ef          	jal	ra,80001264 <cputstring>
800014a8:	00300513          	li	a0,3
800014ac:	da5ff0ef          	jal	ra,80001250 <terminate>
800014b0:	00001517          	auipc	a0,0x1
800014b4:	89450513          	addi	a0,a0,-1900 # 80001d44 <pass+0x50>
800014b8:	dadff0ef          	jal	ra,80001264 <cputstring>
800014bc:	00300513          	li	a0,3
800014c0:	d91ff0ef          	jal	ra,80001250 <terminate>
800014c4:	00001517          	auipc	a0,0x1
800014c8:	8c850513          	addi	a0,a0,-1848 # 80001d8c <pass+0x98>
800014cc:	d99ff0ef          	jal	ra,80001264 <cputstring>
800014d0:	00300513          	li	a0,3
800014d4:	d7dff0ef          	jal	ra,80001250 <terminate>
800014d8:	00001517          	auipc	a0,0x1
800014dc:	8cc50513          	addi	a0,a0,-1844 # 80001da4 <pass+0xb0>
800014e0:	d85ff0ef          	jal	ra,80001264 <cputstring>
800014e4:	00300513          	li	a0,3
800014e8:	d69ff0ef          	jal	ra,80001250 <terminate>

800014ec <handle_trap>:
800014ec:	08c52583          	lw	a1,140(a0)
800014f0:	fc010113          	addi	sp,sp,-64
800014f4:	02812c23          	sw	s0,56(sp)
800014f8:	02112e23          	sw	ra,60(sp)
800014fc:	02912a23          	sw	s1,52(sp)
80001500:	03212823          	sw	s2,48(sp)
80001504:	03312623          	sw	s3,44(sp)
80001508:	03412423          	sw	s4,40(sp)
8000150c:	03512223          	sw	s5,36(sp)
80001510:	03612023          	sw	s6,32(sp)
80001514:	01712e23          	sw	s7,28(sp)
80001518:	01812c23          	sw	s8,24(sp)
8000151c:	01912a23          	sw	s9,20(sp)
80001520:	01a12823          	sw	s10,16(sp)
80001524:	01b12623          	sw	s11,12(sp)
80001528:	00800793          	li	a5,8
8000152c:	00050413          	mv	s0,a0
80001530:	0cf58463          	beq	a1,a5,800015f8 <handle_trap+0x10c>
80001534:	00200793          	li	a5,2
80001538:	06f58063          	beq	a1,a5,80001598 <handle_trap+0xac>
8000153c:	ff458793          	addi	a5,a1,-12
80001540:	00100713          	li	a4,1
80001544:	00f77663          	bgeu	a4,a5,80001550 <handle_trap+0x64>
80001548:	00f00793          	li	a5,15
8000154c:	08f59e63          	bne	a1,a5,800015e8 <handle_trap+0xfc>
80001550:	08842503          	lw	a0,136(s0)
80001554:	de5ff0ef          	jal	ra,80001338 <handle_fault>
80001558:	00040513          	mv	a0,s0
8000155c:	03812403          	lw	s0,56(sp)
80001560:	03c12083          	lw	ra,60(sp)
80001564:	03412483          	lw	s1,52(sp)
80001568:	03012903          	lw	s2,48(sp)
8000156c:	02c12983          	lw	s3,44(sp)
80001570:	02812a03          	lw	s4,40(sp)
80001574:	02412a83          	lw	s5,36(sp)
80001578:	02012b03          	lw	s6,32(sp)
8000157c:	01c12b83          	lw	s7,28(sp)
80001580:	01812c03          	lw	s8,24(sp)
80001584:	01412c83          	lw	s9,20(sp)
80001588:	01012d03          	lw	s10,16(sp)
8000158c:	00c12d83          	lw	s11,12(sp)
80001590:	04010113          	addi	sp,sp,64
80001594:	b35fe06f          	j	800000c8 <pop_tf>
80001598:	08452703          	lw	a4,132(a0)
8000159c:	00377793          	andi	a5,a4,3
800015a0:	12079663          	bnez	a5,800016cc <handle_trap+0x1e0>
800015a4:	008007ef          	jal	a5,800015ac <handle_trap+0xc0>
800015a8:	00301073          	fscsr	zero
800015ac:	00072703          	lw	a4,0(a4)
800015b0:	0007a783          	lw	a5,0(a5)
800015b4:	04100513          	li	a0,65
800015b8:	00001417          	auipc	s0,0x1
800015bc:	82840413          	addi	s0,s0,-2008 # 80001de0 <pass+0xec>
800015c0:	02f70063          	beq	a4,a5,800015e0 <handle_trap+0xf4>
800015c4:	010105b7          	lui	a1,0x1010
800015c8:	00140413          	addi	s0,s0,1
800015cc:	c31fe0ef          	jal	ra,800001fc <do_tohost>
800015d0:	00044503          	lbu	a0,0(s0)
800015d4:	fe0518e3          	bnez	a0,800015c4 <handle_trap+0xd8>
800015d8:	00300513          	li	a0,3
800015dc:	c75ff0ef          	jal	ra,80001250 <terminate>
800015e0:	00100513          	li	a0,1
800015e4:	c6dff0ef          	jal	ra,80001250 <terminate>
800015e8:	00001517          	auipc	a0,0x1
800015ec:	8b050513          	addi	a0,a0,-1872 # 80001e98 <pass+0x1a4>
800015f0:	c75ff0ef          	jal	ra,80001264 <cputstring>
800015f4:	fe5ff06f          	j	800015d8 <handle_trap+0xec>
800015f8:	02852b03          	lw	s6,40(a0)
800015fc:	00001437          	lui	s0,0x1
80001600:	00002c97          	auipc	s9,0x2
80001604:	a00c8c93          	addi	s9,s9,-1536 # 80003000 <user_mapping>
80001608:	00003a97          	auipc	s5,0x3
8000160c:	9f8a8a93          	addi	s5,s5,-1544 # 80004000 <pt>
80001610:	00040a37          	lui	s4,0x40
80001614:	ffc009b7          	lui	s3,0xffc00
80001618:	00005917          	auipc	s2,0x5
8000161c:	9e890913          	addi	s2,s2,-1560 # 80006000 <freelist_tail>
80001620:	0003f4b7          	lui	s1,0x3f
80001624:	0180006f          	j	8000163c <handle_trap+0x150>
80001628:	0187a223          	sw	s8,4(a5)
8000162c:	01892023          	sw	s8,0(s2)
80001630:	000017b7          	lui	a5,0x1
80001634:	00f40433          	add	s0,s0,a5
80001638:	08940663          	beq	s0,s1,800016c4 <handle_trap+0x1d8>
8000163c:	00c45793          	srli	a5,s0,0xc
80001640:	00379c13          	slli	s8,a5,0x3
80001644:	018c8733          	add	a4,s9,s8
80001648:	00072703          	lw	a4,0(a4)
8000164c:	fe0702e3          	beqz	a4,80001630 <handle_trap+0x144>
80001650:	40078793          	addi	a5,a5,1024 # 1400 <tohost-0x6ffeec10>
80001654:	00279793          	slli	a5,a5,0x2
80001658:	00fa87b3          	add	a5,s5,a5
8000165c:	0007ad83          	lw	s11,0(a5)
80001660:	040df793          	andi	a5,s11,64
80001664:	06078e63          	beqz	a5,800016e0 <handle_trap+0x1f4>
80001668:	100a2d73          	csrrs	s10,sstatus,s4
8000166c:	01340bb3          	add	s7,s0,s3
80001670:	00001637          	lui	a2,0x1
80001674:	000b8593          	mv	a1,s7
80001678:	00040513          	mv	a0,s0
8000167c:	aadff0ef          	jal	ra,80001128 <memcmp>
80001680:	00050e63          	beqz	a0,8000169c <handle_trap+0x1b0>
80001684:	080dfd93          	andi	s11,s11,128
80001688:	060d8663          	beqz	s11,800016f4 <handle_trap+0x208>
8000168c:	00001637          	lui	a2,0x1
80001690:	000b8593          	mv	a1,s7
80001694:	00040513          	mv	a0,s0
80001698:	969ff0ef          	jal	ra,80001000 <memcpy>
8000169c:	018c8c33          	add	s8,s9,s8
800016a0:	100d1073          	csrw	sstatus,s10
800016a4:	00092783          	lw	a5,0(s2)
800016a8:	000c2023          	sw	zero,0(s8)
800016ac:	f6079ee3          	bnez	a5,80001628 <handle_trap+0x13c>
800016b0:	00005797          	auipc	a5,0x5
800016b4:	95478793          	addi	a5,a5,-1708 # 80006004 <freelist_head>
800016b8:	01892023          	sw	s8,0(s2)
800016bc:	0187a023          	sw	s8,0(a5)
800016c0:	f71ff06f          	j	80001630 <handle_trap+0x144>
800016c4:	000b0513          	mv	a0,s6
800016c8:	b89ff0ef          	jal	ra,80001250 <terminate>
800016cc:	00000517          	auipc	a0,0x0
800016d0:	7a850513          	addi	a0,a0,1960 # 80001e74 <pass+0x180>
800016d4:	b91ff0ef          	jal	ra,80001264 <cputstring>
800016d8:	00300513          	li	a0,3
800016dc:	b75ff0ef          	jal	ra,80001250 <terminate>
800016e0:	00000517          	auipc	a0,0x0
800016e4:	72c50513          	addi	a0,a0,1836 # 80001e0c <pass+0x118>
800016e8:	b7dff0ef          	jal	ra,80001264 <cputstring>
800016ec:	00300513          	li	a0,3
800016f0:	b61ff0ef          	jal	ra,80001250 <terminate>
800016f4:	00000517          	auipc	a0,0x0
800016f8:	74c50513          	addi	a0,a0,1868 # 80001e40 <pass+0x14c>
800016fc:	b69ff0ef          	jal	ra,80001264 <cputstring>
80001700:	00300513          	li	a0,3
80001704:	b4dff0ef          	jal	ra,80001250 <terminate>

80001708 <vm_boot>:
80001708:	f14027f3          	csrr	a5,mhartid
8000170c:	16079663          	bnez	a5,80001878 <vm_boot+0x170>
80001710:	00004617          	auipc	a2,0x4
80001714:	8f060613          	addi	a2,a2,-1808 # 80005000 <pt+0x1000>
80001718:	00c65793          	srli	a5,a2,0xc
8000171c:	f6010113          	addi	sp,sp,-160
80001720:	00a79793          	slli	a5,a5,0xa
80001724:	08112e23          	sw	ra,156(sp)
80001728:	08812c23          	sw	s0,152(sp)
8000172c:	00003597          	auipc	a1,0x3
80001730:	8d458593          	addi	a1,a1,-1836 # 80004000 <pt>
80001734:	0017e793          	ori	a5,a5,1
80001738:	00f5a023          	sw	a5,0(a1)
8000173c:	200007b7          	lui	a5,0x20000
80001740:	00c5d693          	srli	a3,a1,0xc
80001744:	80000737          	lui	a4,0x80000
80001748:	0cf78793          	addi	a5,a5,207 # 200000cf <tohost-0x4ffeff41>
8000174c:	fef62e23          	sw	a5,-4(a2)
80001750:	00e6e7b3          	or	a5,a3,a4
80001754:	18079073          	csrw	satp,a5
80001758:	180026f3          	csrr	a3,satp
8000175c:	16d79e63          	bne	a5,a3,800018d8 <vm_boot+0x1d0>
80001760:	00050413          	mv	s0,a0
80001764:	fff74713          	not	a4,a4
80001768:	01f00793          	li	a5,31
8000176c:	00000297          	auipc	t0,0x0
80001770:	01428293          	addi	t0,t0,20 # 80001780 <vm_boot+0x78>
80001774:	305292f3          	csrrw	t0,mtvec,t0
80001778:	3b071073          	csrw	pmpaddr0,a4
8000177c:	3a079073          	csrw	pmpcfg0,a5
80001780:	30529073          	csrw	mtvec,t0
80001784:	7fbff797          	auipc	a5,0x7fbff
80001788:	9cc78793          	addi	a5,a5,-1588 # ffc00150 <freelist_head+0x7fbfa14c>
8000178c:	10579073          	csrw	stvec,a5
80001790:	340027f3          	csrr	a5,mscratch
80001794:	7fc008b7          	lui	a7,0x7fc00
80001798:	011787b3          	add	a5,a5,a7
8000179c:	14079073          	csrw	sscratch,a5
800017a0:	0000b7b7          	lui	a5,0xb
800017a4:	10078793          	addi	a5,a5,256 # b100 <tohost-0x6ffe4f10>
800017a8:	30279073          	csrw	medeleg,a5
800017ac:	0001e7b7          	lui	a5,0x1e
800017b0:	60078793          	addi	a5,a5,1536 # 1e600 <tohost-0x6ffd1a10>
800017b4:	30079073          	csrw	mstatus,a5
800017b8:	30405073          	csrwi	mie,0
800017bc:	7fc02797          	auipc	a5,0x7fc02
800017c0:	a3c78793          	addi	a5,a5,-1476 # ffc031f8 <freelist_head+0x7fbfd1f4>
800017c4:	00005717          	auipc	a4,0x5
800017c8:	84f72023          	sw	a5,-1984(a4) # 80006004 <freelist_head>
800017cc:	7fc02797          	auipc	a5,0x7fc02
800017d0:	c1c78793          	addi	a5,a5,-996 # ffc033e8 <freelist_head+0x7fbfd3e4>
800017d4:	00005717          	auipc	a4,0x5
800017d8:	82f72623          	sw	a5,-2004(a4) # 80006000 <freelist_tail>
800017dc:	00080337          	lui	t1,0x80
800017e0:	00002717          	auipc	a4,0x2
800017e4:	a1870713          	addi	a4,a4,-1512 # 800031f8 <freelist_nodes>
800017e8:	00002e17          	auipc	t3,0x2
800017ec:	c08e0e13          	addi	t3,t3,-1016 # 800033f0 <freelist_nodes+0x1f8>
800017f0:	03200793          	li	a5,50
800017f4:	00000593          	li	a1,0
800017f8:	03f30313          	addi	t1,t1,63 # 8003f <tohost-0x6ff6ffd1>
800017fc:	00888893          	addi	a7,a7,8 # 7fc00008 <tohost+0xfc0fff8>
80001800:	01f59613          	slli	a2,a1,0x1f
80001804:	0017d693          	srli	a3,a5,0x1
80001808:	00d666b3          	or	a3,a2,a3
8000180c:	00678633          	add	a2,a5,t1
80001810:	00f6c7b3          	xor	a5,a3,a5
80001814:	01170833          	add	a6,a4,a7
80001818:	00c61613          	slli	a2,a2,0xc
8000181c:	00579793          	slli	a5,a5,0x5
80001820:	00c72023          	sw	a2,0(a4)
80001824:	01072223          	sw	a6,4(a4)
80001828:	0207f793          	andi	a5,a5,32
8000182c:	00870713          	addi	a4,a4,8
80001830:	00f6e7b3          	or	a5,a3,a5
80001834:	0015d593          	srli	a1,a1,0x1
80001838:	fcee14e3          	bne	t3,a4,80001800 <vm_boot+0xf8>
8000183c:	09000613          	li	a2,144
80001840:	00000593          	li	a1,0
80001844:	00010513          	mv	a0,sp
80001848:	00002797          	auipc	a5,0x2
8000184c:	ba07a223          	sw	zero,-1116(a5) # 800033ec <freelist_nodes+0x1f4>
80001850:	80dff0ef          	jal	ra,8000105c <memset>
80001854:	800007b7          	lui	a5,0x80000
80001858:	00f40433          	add	s0,s0,a5
8000185c:	00010513          	mv	a0,sp
80001860:	08812223          	sw	s0,132(sp)
80001864:	865fe0ef          	jal	ra,800000c8 <pop_tf>
80001868:	09c12083          	lw	ra,156(sp)
8000186c:	09812403          	lw	s0,152(sp)
80001870:	0a010113          	addi	sp,sp,160
80001874:	00008067          	ret
80001878:	020b57b7          	lui	a5,0x20b5
8000187c:	00080637          	lui	a2,0x80
80001880:	26e78793          	addi	a5,a5,622 # 20b526e <tohost-0x6df3ada2>
80001884:	00000713          	li	a4,0
80001888:	ffc60613          	addi	a2,a2,-4 # 7fffc <tohost-0x6ff70014>
8000188c:	80000837          	lui	a6,0x80000
80001890:	40000537          	lui	a0,0x40000
80001894:	02c0006f          	j	800018c0 <vm_boot+0x1b8>
80001898:	0006a02f          	amoadd.w	zero,zero,(a3)
8000189c:	01f71593          	slli	a1,a4,0x1f
800018a0:	0017d693          	srli	a3,a5,0x1
800018a4:	00d5e6b3          	or	a3,a1,a3
800018a8:	00d7c7b3          	xor	a5,a5,a3
800018ac:	01e79793          	slli	a5,a5,0x1e
800018b0:	00f575b3          	and	a1,a0,a5
800018b4:	00175713          	srli	a4,a4,0x1
800018b8:	00068793          	mv	a5,a3
800018bc:	00e5e733          	or	a4,a1,a4
800018c0:	00c7f6b3          	and	a3,a5,a2
800018c4:	0017f593          	andi	a1,a5,1
800018c8:	010686b3          	add	a3,a3,a6
800018cc:	fc0596e3          	bnez	a1,80001898 <vm_boot+0x190>
800018d0:	0006a003          	lw	zero,0(a3)
800018d4:	fc9ff06f          	j	8000189c <vm_boot+0x194>
800018d8:	00000517          	auipc	a0,0x0
800018dc:	5ec50513          	addi	a0,a0,1516 # 80001ec4 <pass+0x1d0>
800018e0:	985ff0ef          	jal	ra,80001264 <cputstring>
800018e4:	00300513          	li	a0,3
800018e8:	969ff0ef          	jal	ra,80001250 <terminate>

800018ec <extra_boot>:
800018ec:	00008067          	ret

800018f0 <userstart>:
800018f0:	00301073          	fscsr	zero

800018f4 <test_2>:
800018f4:	00200193          	li	gp,2
800018f8:	00000517          	auipc	a0,0x0
800018fc:	70850513          	addi	a0,a0,1800 # 80002000 <test_2_data>
80001900:	00052007          	flw	ft0,0(a0)
80001904:	00452087          	flw	ft1,4(a0)
80001908:	00852107          	flw	ft2,8(a0)
8000190c:	00c52683          	lw	a3,12(a0)
80001910:	c0001553          	fcvt.w.s	a0,ft0,rtz
80001914:	001015f3          	fsflags	a1,zero
80001918:	00100613          	li	a2,1
8000191c:	3cd51463          	bne	a0,a3,80001ce4 <fail>
80001920:	3cc59263          	bne	a1,a2,80001ce4 <fail>

80001924 <test_3>:
80001924:	00300193          	li	gp,3
80001928:	00000517          	auipc	a0,0x0
8000192c:	6e850513          	addi	a0,a0,1768 # 80002010 <test_3_data>
80001930:	00052007          	flw	ft0,0(a0)
80001934:	00452087          	flw	ft1,4(a0)
80001938:	00852107          	flw	ft2,8(a0)
8000193c:	00c52683          	lw	a3,12(a0)
80001940:	c0001553          	fcvt.w.s	a0,ft0,rtz
80001944:	001015f3          	fsflags	a1,zero
80001948:	00000613          	li	a2,0
8000194c:	38d51c63          	bne	a0,a3,80001ce4 <fail>
80001950:	38c59a63          	bne	a1,a2,80001ce4 <fail>

80001954 <test_4>:
80001954:	00400193          	li	gp,4
80001958:	00000517          	auipc	a0,0x0
8000195c:	6c850513          	addi	a0,a0,1736 # 80002020 <test_4_data>
80001960:	00052007          	flw	ft0,0(a0)
80001964:	00452087          	flw	ft1,4(a0)
80001968:	00852107          	flw	ft2,8(a0)
8000196c:	00c52683          	lw	a3,12(a0)
80001970:	c0001553          	fcvt.w.s	a0,ft0,rtz
80001974:	001015f3          	fsflags	a1,zero
80001978:	00100613          	li	a2,1
8000197c:	36d51463          	bne	a0,a3,80001ce4 <fail>
80001980:	36c59263          	bne	a1,a2,80001ce4 <fail>

80001984 <test_5>:
80001984:	00500193          	li	gp,5
80001988:	00000517          	auipc	a0,0x0
8000198c:	6a850513          	addi	a0,a0,1704 # 80002030 <test_5_data>
80001990:	00052007          	flw	ft0,0(a0)
80001994:	00452087          	flw	ft1,4(a0)
80001998:	00852107          	flw	ft2,8(a0)
8000199c:	00c52683          	lw	a3,12(a0)
800019a0:	c0001553          	fcvt.w.s	a0,ft0,rtz
800019a4:	001015f3          	fsflags	a1,zero
800019a8:	00100613          	li	a2,1
800019ac:	32d51c63          	bne	a0,a3,80001ce4 <fail>
800019b0:	32c59a63          	bne	a1,a2,80001ce4 <fail>

800019b4 <test_6>:
800019b4:	00600193          	li	gp,6
800019b8:	00000517          	auipc	a0,0x0
800019bc:	68850513          	addi	a0,a0,1672 # 80002040 <test_6_data>
800019c0:	00052007          	flw	ft0,0(a0)
800019c4:	00452087          	flw	ft1,4(a0)
800019c8:	00852107          	flw	ft2,8(a0)
800019cc:	00c52683          	lw	a3,12(a0)
800019d0:	c0001553          	fcvt.w.s	a0,ft0,rtz
800019d4:	001015f3          	fsflags	a1,zero
800019d8:	00000613          	li	a2,0
800019dc:	30d51463          	bne	a0,a3,80001ce4 <fail>
800019e0:	30c59263          	bne	a1,a2,80001ce4 <fail>

800019e4 <test_7>:
800019e4:	00700193          	li	gp,7
800019e8:	00000517          	auipc	a0,0x0
800019ec:	66850513          	addi	a0,a0,1640 # 80002050 <test_7_data>
800019f0:	00052007          	flw	ft0,0(a0)
800019f4:	00452087          	flw	ft1,4(a0)
800019f8:	00852107          	flw	ft2,8(a0)
800019fc:	00c52683          	lw	a3,12(a0)
80001a00:	c0001553          	fcvt.w.s	a0,ft0,rtz
80001a04:	001015f3          	fsflags	a1,zero
80001a08:	00100613          	li	a2,1
80001a0c:	2cd51c63          	bne	a0,a3,80001ce4 <fail>
80001a10:	2cc59a63          	bne	a1,a2,80001ce4 <fail>

80001a14 <test_8>:
80001a14:	00800193          	li	gp,8
80001a18:	00000517          	auipc	a0,0x0
80001a1c:	64850513          	addi	a0,a0,1608 # 80002060 <test_8_data>
80001a20:	00052007          	flw	ft0,0(a0)
80001a24:	00452087          	flw	ft1,4(a0)
80001a28:	00852107          	flw	ft2,8(a0)
80001a2c:	00c52683          	lw	a3,12(a0)
80001a30:	c0001553          	fcvt.w.s	a0,ft0,rtz
80001a34:	001015f3          	fsflags	a1,zero
80001a38:	01000613          	li	a2,16
80001a3c:	2ad51463          	bne	a0,a3,80001ce4 <fail>
80001a40:	2ac59263          	bne	a1,a2,80001ce4 <fail>

80001a44 <test_9>:
80001a44:	00900193          	li	gp,9
80001a48:	00000517          	auipc	a0,0x0
80001a4c:	62850513          	addi	a0,a0,1576 # 80002070 <test_9_data>
80001a50:	00052007          	flw	ft0,0(a0)
80001a54:	00452087          	flw	ft1,4(a0)
80001a58:	00852107          	flw	ft2,8(a0)
80001a5c:	00c52683          	lw	a3,12(a0)
80001a60:	c0001553          	fcvt.w.s	a0,ft0,rtz
80001a64:	001015f3          	fsflags	a1,zero
80001a68:	01000613          	li	a2,16
80001a6c:	26d51c63          	bne	a0,a3,80001ce4 <fail>
80001a70:	26c59a63          	bne	a1,a2,80001ce4 <fail>

80001a74 <test_12>:
80001a74:	00c00193          	li	gp,12
80001a78:	00000517          	auipc	a0,0x0
80001a7c:	60850513          	addi	a0,a0,1544 # 80002080 <test_12_data>
80001a80:	00052007          	flw	ft0,0(a0)
80001a84:	00452087          	flw	ft1,4(a0)
80001a88:	00852107          	flw	ft2,8(a0)
80001a8c:	00c52683          	lw	a3,12(a0)
80001a90:	c0101553          	fcvt.wu.s	a0,ft0,rtz
80001a94:	001015f3          	fsflags	a1,zero
80001a98:	01000613          	li	a2,16
80001a9c:	24d51463          	bne	a0,a3,80001ce4 <fail>
80001aa0:	24c59263          	bne	a1,a2,80001ce4 <fail>

80001aa4 <test_13>:
80001aa4:	00d00193          	li	gp,13
80001aa8:	00000517          	auipc	a0,0x0
80001aac:	5e850513          	addi	a0,a0,1512 # 80002090 <test_13_data>
80001ab0:	00052007          	flw	ft0,0(a0)
80001ab4:	00452087          	flw	ft1,4(a0)
80001ab8:	00852107          	flw	ft2,8(a0)
80001abc:	00c52683          	lw	a3,12(a0)
80001ac0:	c0101553          	fcvt.wu.s	a0,ft0,rtz
80001ac4:	001015f3          	fsflags	a1,zero
80001ac8:	01000613          	li	a2,16
80001acc:	20d51c63          	bne	a0,a3,80001ce4 <fail>
80001ad0:	20c59a63          	bne	a1,a2,80001ce4 <fail>

80001ad4 <test_14>:
80001ad4:	00e00193          	li	gp,14
80001ad8:	00000517          	auipc	a0,0x0
80001adc:	5c850513          	addi	a0,a0,1480 # 800020a0 <test_14_data>
80001ae0:	00052007          	flw	ft0,0(a0)
80001ae4:	00452087          	flw	ft1,4(a0)
80001ae8:	00852107          	flw	ft2,8(a0)
80001aec:	00c52683          	lw	a3,12(a0)
80001af0:	c0101553          	fcvt.wu.s	a0,ft0,rtz
80001af4:	001015f3          	fsflags	a1,zero
80001af8:	00100613          	li	a2,1
80001afc:	1ed51463          	bne	a0,a3,80001ce4 <fail>
80001b00:	1ec59263          	bne	a1,a2,80001ce4 <fail>

80001b04 <test_15>:
80001b04:	00f00193          	li	gp,15
80001b08:	00000517          	auipc	a0,0x0
80001b0c:	5a850513          	addi	a0,a0,1448 # 800020b0 <test_15_data>
80001b10:	00052007          	flw	ft0,0(a0)
80001b14:	00452087          	flw	ft1,4(a0)
80001b18:	00852107          	flw	ft2,8(a0)
80001b1c:	00c52683          	lw	a3,12(a0)
80001b20:	c0101553          	fcvt.wu.s	a0,ft0,rtz
80001b24:	001015f3          	fsflags	a1,zero
80001b28:	00100613          	li	a2,1
80001b2c:	1ad51c63          	bne	a0,a3,80001ce4 <fail>
80001b30:	1ac59a63          	bne	a1,a2,80001ce4 <fail>

80001b34 <test_16>:
80001b34:	01000193          	li	gp,16
80001b38:	00000517          	auipc	a0,0x0
80001b3c:	58850513          	addi	a0,a0,1416 # 800020c0 <test_16_data>
80001b40:	00052007          	flw	ft0,0(a0)
80001b44:	00452087          	flw	ft1,4(a0)
80001b48:	00852107          	flw	ft2,8(a0)
80001b4c:	00c52683          	lw	a3,12(a0)
80001b50:	c0101553          	fcvt.wu.s	a0,ft0,rtz
80001b54:	001015f3          	fsflags	a1,zero
80001b58:	00000613          	li	a2,0
80001b5c:	18d51463          	bne	a0,a3,80001ce4 <fail>
80001b60:	18c59263          	bne	a1,a2,80001ce4 <fail>

80001b64 <test_17>:
80001b64:	01100193          	li	gp,17
80001b68:	00000517          	auipc	a0,0x0
80001b6c:	56850513          	addi	a0,a0,1384 # 800020d0 <test_17_data>
80001b70:	00052007          	flw	ft0,0(a0)
80001b74:	00452087          	flw	ft1,4(a0)
80001b78:	00852107          	flw	ft2,8(a0)
80001b7c:	00c52683          	lw	a3,12(a0)
80001b80:	c0101553          	fcvt.wu.s	a0,ft0,rtz
80001b84:	001015f3          	fsflags	a1,zero
80001b88:	00100613          	li	a2,1
80001b8c:	14d51c63          	bne	a0,a3,80001ce4 <fail>
80001b90:	14c59a63          	bne	a1,a2,80001ce4 <fail>

80001b94 <test_18>:
80001b94:	01200193          	li	gp,18
80001b98:	00000517          	auipc	a0,0x0
80001b9c:	54850513          	addi	a0,a0,1352 # 800020e0 <test_18_data>
80001ba0:	00052007          	flw	ft0,0(a0)
80001ba4:	00452087          	flw	ft1,4(a0)
80001ba8:	00852107          	flw	ft2,8(a0)
80001bac:	00c52683          	lw	a3,12(a0)
80001bb0:	c0101553          	fcvt.wu.s	a0,ft0,rtz
80001bb4:	001015f3          	fsflags	a1,zero
80001bb8:	01000613          	li	a2,16
80001bbc:	12d51463          	bne	a0,a3,80001ce4 <fail>
80001bc0:	12c59263          	bne	a1,a2,80001ce4 <fail>

80001bc4 <test_19>:
80001bc4:	01300193          	li	gp,19
80001bc8:	00000517          	auipc	a0,0x0
80001bcc:	52850513          	addi	a0,a0,1320 # 800020f0 <test_19_data>
80001bd0:	00052007          	flw	ft0,0(a0)
80001bd4:	00452087          	flw	ft1,4(a0)
80001bd8:	00852107          	flw	ft2,8(a0)
80001bdc:	00c52683          	lw	a3,12(a0)
80001be0:	c0101553          	fcvt.wu.s	a0,ft0,rtz
80001be4:	001015f3          	fsflags	a1,zero
80001be8:	00000613          	li	a2,0
80001bec:	0ed51c63          	bne	a0,a3,80001ce4 <fail>
80001bf0:	0ec59a63          	bne	a1,a2,80001ce4 <fail>

80001bf4 <test_42>:
80001bf4:	02a00193          	li	gp,42
80001bf8:	00000097          	auipc	ra,0x0
80001bfc:	50808093          	addi	ra,ra,1288 # 80002100 <begin_signature>
80001c00:	0000a087          	flw	ft1,0(ra)
80001c04:	c000f0d3          	fcvt.w.s	ra,ft1
80001c08:	800003b7          	lui	t2,0x80000
80001c0c:	fff38393          	addi	t2,t2,-1 # 7fffffff <freelist_head+0xffff9ffb>
80001c10:	0c709a63          	bne	ra,t2,80001ce4 <fail>

80001c14 <test_44>:
80001c14:	02c00193          	li	gp,44
80001c18:	00000097          	auipc	ra,0x0
80001c1c:	4e808093          	addi	ra,ra,1256 # 80002100 <begin_signature>
80001c20:	0080a087          	flw	ft1,8(ra)
80001c24:	c000f0d3          	fcvt.w.s	ra,ft1
80001c28:	800003b7          	lui	t2,0x80000
80001c2c:	0a709c63          	bne	ra,t2,80001ce4 <fail>

80001c30 <test_52>:
80001c30:	03400193          	li	gp,52
80001c34:	00000097          	auipc	ra,0x0
80001c38:	4cc08093          	addi	ra,ra,1228 # 80002100 <begin_signature>
80001c3c:	0040a087          	flw	ft1,4(ra)
80001c40:	c000f0d3          	fcvt.w.s	ra,ft1
80001c44:	800003b7          	lui	t2,0x80000
80001c48:	fff38393          	addi	t2,t2,-1 # 7fffffff <freelist_head+0xffff9ffb>
80001c4c:	08709c63          	bne	ra,t2,80001ce4 <fail>

80001c50 <test_54>:
80001c50:	03600193          	li	gp,54
80001c54:	00000097          	auipc	ra,0x0
80001c58:	4ac08093          	addi	ra,ra,1196 # 80002100 <begin_signature>
80001c5c:	00c0a087          	flw	ft1,12(ra)
80001c60:	c000f0d3          	fcvt.w.s	ra,ft1
80001c64:	800003b7          	lui	t2,0x80000
80001c68:	fff38393          	addi	t2,t2,-1 # 7fffffff <freelist_head+0xffff9ffb>
80001c6c:	06709c63          	bne	ra,t2,80001ce4 <fail>

80001c70 <test_62>:
80001c70:	03e00193          	li	gp,62
80001c74:	00000097          	auipc	ra,0x0
80001c78:	48c08093          	addi	ra,ra,1164 # 80002100 <begin_signature>
80001c7c:	0000a087          	flw	ft1,0(ra)
80001c80:	c010f0d3          	fcvt.wu.s	ra,ft1
80001c84:	fff00393          	li	t2,-1
80001c88:	04709e63          	bne	ra,t2,80001ce4 <fail>

80001c8c <test_63>:
80001c8c:	03f00193          	li	gp,63
80001c90:	00000097          	auipc	ra,0x0
80001c94:	47008093          	addi	ra,ra,1136 # 80002100 <begin_signature>
80001c98:	0040a087          	flw	ft1,4(ra)
80001c9c:	c010f0d3          	fcvt.wu.s	ra,ft1
80001ca0:	fff00393          	li	t2,-1
80001ca4:	04709063          	bne	ra,t2,80001ce4 <fail>

80001ca8 <test_64>:
80001ca8:	04000193          	li	gp,64
80001cac:	00000097          	auipc	ra,0x0
80001cb0:	45408093          	addi	ra,ra,1108 # 80002100 <begin_signature>
80001cb4:	0080a087          	flw	ft1,8(ra)
80001cb8:	c010f0d3          	fcvt.wu.s	ra,ft1
80001cbc:	00000393          	li	t2,0
80001cc0:	02709263          	bne	ra,t2,80001ce4 <fail>

80001cc4 <test_65>:
80001cc4:	04100193          	li	gp,65
80001cc8:	00000097          	auipc	ra,0x0
80001ccc:	43808093          	addi	ra,ra,1080 # 80002100 <begin_signature>
80001cd0:	00c0a087          	flw	ft1,12(ra)
80001cd4:	c010f0d3          	fcvt.wu.s	ra,ft1
80001cd8:	fff00393          	li	t2,-1
80001cdc:	00709463          	bne	ra,t2,80001ce4 <fail>
80001ce0:	00301a63          	bne	zero,gp,80001cf4 <pass>

80001ce4 <fail>:
80001ce4:	00119513          	slli	a0,gp,0x1
80001ce8:	00050063          	beqz	a0,80001ce8 <fail+0x4>
80001cec:	00156513          	ori	a0,a0,1
80001cf0:	00000073          	ecall

80001cf4 <pass>:
80001cf4:	00100513          	li	a0,1
80001cf8:	00000073          	ecall
80001cfc:	c0001073          	unimp

Disassembly of section .data:

80002000 <test_2_data>:
80002000:	cccd                	beqz	s1,800020ba <test_15_data+0xa>
80002002:	bf8c                	fsd	fa1,56(a5)
80002004:	0000                	unimp
80002006:	0000                	unimp
80002008:	0000                	unimp
8000200a:	0000                	unimp
8000200c:	ffff                	0xffff
8000200e:	ffff                	0xffff

80002010 <test_3_data>:
80002010:	0000                	unimp
80002012:	bf80                	fsd	fs0,56(a5)
80002014:	0000                	unimp
80002016:	0000                	unimp
80002018:	0000                	unimp
8000201a:	0000                	unimp
8000201c:	ffff                	0xffff
8000201e:	ffff                	0xffff

80002020 <test_4_data>:
80002020:	6666                	flw	fa2,88(sp)
80002022:	bf66                	fsd	fs9,440(sp)
80002024:	0000                	unimp
80002026:	0000                	unimp
80002028:	0000                	unimp
8000202a:	0000                	unimp
8000202c:	0000                	unimp
8000202e:	0000                	unimp

80002030 <test_5_data>:
80002030:	6666                	flw	fa2,88(sp)
80002032:	3f66                	fld	ft10,120(sp)
80002034:	0000                	unimp
80002036:	0000                	unimp
80002038:	0000                	unimp
8000203a:	0000                	unimp
8000203c:	0000                	unimp
8000203e:	0000                	unimp

80002040 <test_6_data>:
80002040:	0000                	unimp
80002042:	3f80                	fld	fs0,56(a5)
80002044:	0000                	unimp
80002046:	0000                	unimp
80002048:	0000                	unimp
8000204a:	0000                	unimp
8000204c:	0001                	nop
8000204e:	0000                	unimp

80002050 <test_7_data>:
80002050:	cccd                	beqz	s1,8000210a <begin_signature+0xa>
80002052:	3f8c                	fld	fa1,56(a5)
80002054:	0000                	unimp
80002056:	0000                	unimp
80002058:	0000                	unimp
8000205a:	0000                	unimp
8000205c:	0001                	nop
8000205e:	0000                	unimp

80002060 <test_8_data>:
80002060:	d05e                	sw	s7,32(sp)
80002062:	cf32                	sw	a2,156(sp)
80002064:	0000                	unimp
80002066:	0000                	unimp
80002068:	0000                	unimp
8000206a:	0000                	unimp
8000206c:	0000                	unimp
8000206e:	8000                	0x8000

80002070 <test_9_data>:
80002070:	d05e                	sw	s7,32(sp)
80002072:	4f32                	lw	t5,12(sp)
80002074:	0000                	unimp
80002076:	0000                	unimp
80002078:	0000                	unimp
8000207a:	0000                	unimp
8000207c:	ffff                	0xffff
8000207e:	7fff                	0x7fff

80002080 <test_12_data>:
80002080:	0000                	unimp
80002082:	c040                	sw	s0,4(s0)
80002084:	0000                	unimp
80002086:	0000                	unimp
80002088:	0000                	unimp
8000208a:	0000                	unimp
8000208c:	0000                	unimp
8000208e:	0000                	unimp

80002090 <test_13_data>:
80002090:	0000                	unimp
80002092:	bf80                	fsd	fs0,56(a5)
80002094:	0000                	unimp
80002096:	0000                	unimp
80002098:	0000                	unimp
8000209a:	0000                	unimp
8000209c:	0000                	unimp
8000209e:	0000                	unimp

800020a0 <test_14_data>:
800020a0:	6666                	flw	fa2,88(sp)
800020a2:	bf66                	fsd	fs9,440(sp)
800020a4:	0000                	unimp
800020a6:	0000                	unimp
800020a8:	0000                	unimp
800020aa:	0000                	unimp
800020ac:	0000                	unimp
800020ae:	0000                	unimp

800020b0 <test_15_data>:
800020b0:	6666                	flw	fa2,88(sp)
800020b2:	3f66                	fld	ft10,120(sp)
800020b4:	0000                	unimp
800020b6:	0000                	unimp
800020b8:	0000                	unimp
800020ba:	0000                	unimp
800020bc:	0000                	unimp
800020be:	0000                	unimp

800020c0 <test_16_data>:
800020c0:	0000                	unimp
800020c2:	3f80                	fld	fs0,56(a5)
800020c4:	0000                	unimp
800020c6:	0000                	unimp
800020c8:	0000                	unimp
800020ca:	0000                	unimp
800020cc:	0001                	nop
800020ce:	0000                	unimp

800020d0 <test_17_data>:
800020d0:	cccd                	beqz	s1,8000218a <fromhost+0xa>
800020d2:	3f8c                	fld	fa1,56(a5)
800020d4:	0000                	unimp
800020d6:	0000                	unimp
800020d8:	0000                	unimp
800020da:	0000                	unimp
800020dc:	0001                	nop
800020de:	0000                	unimp

800020e0 <test_18_data>:
800020e0:	d05e                	sw	s7,32(sp)
800020e2:	cf32                	sw	a2,156(sp)
800020e4:	0000                	unimp
800020e6:	0000                	unimp
800020e8:	0000                	unimp
800020ea:	0000                	unimp
800020ec:	0000                	unimp
800020ee:	0000                	unimp

800020f0 <test_19_data>:
800020f0:	d05e                	sw	s7,32(sp)
800020f2:	4f32                	lw	t5,12(sp)
800020f4:	0000                	unimp
800020f6:	0000                	unimp
800020f8:	0000                	unimp
800020fa:	0000                	unimp
800020fc:	5e00                	lw	s0,56(a2)
800020fe:	b2d0                	fsd	fa2,160(a3)

80002100 <begin_signature>:
80002100:	ffff                	0xffff
80002102:	ffff                	0xffff
80002104:	ffff                	0xffff
80002106:	7fff                	0x7fff
80002108:	0000                	unimp
8000210a:	ff80                	fsw	fs0,56(a5)
8000210c:	0000                	unimp
8000210e:	7f80                	flw	fs0,56(a5)

80002110 <tdat_d>:
80002110:	ffff                	0xffff
80002112:	ffff                	0xffff
80002114:	ffff                	0xffff
80002116:	ffff                	0xffff
80002118:	ffff                	0xffff
8000211a:	ffff                	0xffff
8000211c:	ffff                	0xffff
8000211e:	7fff                	0x7fff
80002120:	0000                	unimp
80002122:	0000                	unimp
80002124:	0000                	unimp
80002126:	fff0                	fsw	fa2,124(a5)
80002128:	0000                	unimp
8000212a:	0000                	unimp
8000212c:	0000                	unimp
8000212e:	7ff0                	flw	fa2,124(a5)
