
rv64ui-p-and:     file format elf64-littleriscv


Disassembly of section .text.init:

0000000080000000 <_start>:
    80000000:	0480006f          	j	80000048 <reset_vector>

0000000080000004 <trap_vector>:
    80000004:	34202f73          	csrr	t5,mcause
    80000008:	00800f93          	li	t6,8
    8000000c:	03ff0863          	beq	t5,t6,8000003c <write_tohost>
    80000010:	00900f93          	li	t6,9
    80000014:	03ff0463          	beq	t5,t6,8000003c <write_tohost>
    80000018:	00b00f93          	li	t6,11
    8000001c:	03ff0063          	beq	t5,t6,8000003c <write_tohost>
    80000020:	00000f13          	li	t5,0
    80000024:	000f0463          	beqz	t5,8000002c <trap_vector+0x28>
    80000028:	000f0067          	jr	t5
    8000002c:	34202f73          	csrr	t5,mcause
    80000030:	000f5463          	bgez	t5,80000038 <handle_exception>
    80000034:	0040006f          	j	80000038 <handle_exception>

0000000080000038 <handle_exception>:
    80000038:	5391e193          	ori	gp,gp,1337

000000008000003c <write_tohost>:
    8000003c:	efff0f17          	auipc	t5,0xefff0
    80000040:	fc3f2a23          	sw	gp,-44(t5) # 6fff0010 <tohost>
    80000044:	ff9ff06f          	j	8000003c <write_tohost>

0000000080000048 <reset_vector>:
    80000048:	00000093          	li	ra,0
    8000004c:	00000113          	li	sp,0
    80000050:	00000193          	li	gp,0
    80000054:	00000213          	li	tp,0
    80000058:	00000293          	li	t0,0
    8000005c:	00000313          	li	t1,0
    80000060:	00000393          	li	t2,0
    80000064:	00000413          	li	s0,0
    80000068:	00000493          	li	s1,0
    8000006c:	00000513          	li	a0,0
    80000070:	00000593          	li	a1,0
    80000074:	00000613          	li	a2,0
    80000078:	00000693          	li	a3,0
    8000007c:	00000713          	li	a4,0
    80000080:	00000793          	li	a5,0
    80000084:	00000813          	li	a6,0
    80000088:	00000893          	li	a7,0
    8000008c:	00000913          	li	s2,0
    80000090:	00000993          	li	s3,0
    80000094:	00000a13          	li	s4,0
    80000098:	00000a93          	li	s5,0
    8000009c:	00000b13          	li	s6,0
    800000a0:	00000b93          	li	s7,0
    800000a4:	00000c13          	li	s8,0
    800000a8:	00000c93          	li	s9,0
    800000ac:	00000d13          	li	s10,0
    800000b0:	00000d93          	li	s11,0
    800000b4:	00000e13          	li	t3,0
    800000b8:	00000e93          	li	t4,0
    800000bc:	00000f13          	li	t5,0
    800000c0:	00000f93          	li	t6,0
    800000c4:	f1402573          	csrr	a0,mhartid
    800000c8:	00051063          	bnez	a0,800000c8 <reset_vector+0x80>
    800000cc:	00000297          	auipc	t0,0x0
    800000d0:	01028293          	addi	t0,t0,16 # 800000dc <reset_vector+0x94>
    800000d4:	30529073          	csrw	mtvec,t0
    800000d8:	18005073          	csrwi	satp,0
    800000dc:	00000297          	auipc	t0,0x0
    800000e0:	02428293          	addi	t0,t0,36 # 80000100 <reset_vector+0xb8>
    800000e4:	30529073          	csrw	mtvec,t0
    800000e8:	0010029b          	addiw	t0,zero,1
    800000ec:	03529293          	slli	t0,t0,0x35
    800000f0:	fff28293          	addi	t0,t0,-1
    800000f4:	3b029073          	csrw	pmpaddr0,t0
    800000f8:	01f00293          	li	t0,31
    800000fc:	3a029073          	csrw	pmpcfg0,t0
    80000100:	30405073          	csrwi	mie,0
    80000104:	00000297          	auipc	t0,0x0
    80000108:	01428293          	addi	t0,t0,20 # 80000118 <reset_vector+0xd0>
    8000010c:	30529073          	csrw	mtvec,t0
    80000110:	30205073          	csrwi	medeleg,0
    80000114:	30305073          	csrwi	mideleg,0
    80000118:	00000193          	li	gp,0
    8000011c:	00000297          	auipc	t0,0x0
    80000120:	ee828293          	addi	t0,t0,-280 # 80000004 <trap_vector>
    80000124:	30529073          	csrw	mtvec,t0
    80000128:	00100513          	li	a0,1
    8000012c:	01f51513          	slli	a0,a0,0x1f
    80000130:	00055c63          	bgez	a0,80000148 <reset_vector+0x100>
    80000134:	0ff0000f          	fence
    80000138:	00100193          	li	gp,1
    8000013c:	05d00893          	li	a7,93
    80000140:	00000513          	li	a0,0
    80000144:	00000073          	ecall
    80000148:	00000293          	li	t0,0
    8000014c:	00028a63          	beqz	t0,80000160 <reset_vector+0x118>
    80000150:	10529073          	csrw	stvec,t0
    80000154:	0000b2b7          	lui	t0,0xb
    80000158:	1092829b          	addiw	t0,t0,265
    8000015c:	30229073          	csrw	medeleg,t0
    80000160:	30005073          	csrwi	mstatus,0
    80000164:	00000297          	auipc	t0,0x0
    80000168:	01428293          	addi	t0,t0,20 # 80000178 <test_2>
    8000016c:	34129073          	csrw	mepc,t0
    80000170:	f1402573          	csrr	a0,mhartid
    80000174:	30200073          	mret

0000000080000178 <test_2>:
    80000178:	00200193          	li	gp,2
    8000017c:	000100b7          	lui	ra,0x10
    80000180:	f010809b          	addiw	ra,ra,-255
    80000184:	01009093          	slli	ra,ra,0x10
    80000188:	f0008093          	addi	ra,ra,-256 # ff00 <tohost-0x6ffe0110>
    8000018c:	0f0f1137          	lui	sp,0xf0f1
    80000190:	f0f1011b          	addiw	sp,sp,-241
    80000194:	0020f733          	and	a4,ra,sp
    80000198:	0f0013b7          	lui	t2,0xf001
    8000019c:	f003839b          	addiw	t2,t2,-256
    800001a0:	52771863          	bne	a4,t2,800006d0 <fail>

00000000800001a4 <test_3>:
    800001a4:	00300193          	li	gp,3
    800001a8:	0ff010b7          	lui	ra,0xff01
    800001ac:	ff00809b          	addiw	ra,ra,-16
    800001b0:	000f1137          	lui	sp,0xf1
    800001b4:	f0f1011b          	addiw	sp,sp,-241
    800001b8:	00c11113          	slli	sp,sp,0xc
    800001bc:	0f010113          	addi	sp,sp,240 # f10f0 <tohost-0x6fefef20>
    800001c0:	0020f733          	and	a4,ra,sp
    800001c4:	00f003b7          	lui	t2,0xf00
    800001c8:	0f03839b          	addiw	t2,t2,240
    800001cc:	50771263          	bne	a4,t2,800006d0 <fail>

00000000800001d0 <test_4>:
    800001d0:	00400193          	li	gp,4
    800001d4:	00ff00b7          	lui	ra,0xff0
    800001d8:	0ff0809b          	addiw	ra,ra,255
    800001dc:	0f0f1137          	lui	sp,0xf0f1
    800001e0:	f0f1011b          	addiw	sp,sp,-241
    800001e4:	0020f733          	and	a4,ra,sp
    800001e8:	000f03b7          	lui	t2,0xf0
    800001ec:	00f3839b          	addiw	t2,t2,15
    800001f0:	4e771063          	bne	a4,t2,800006d0 <fail>

00000000800001f4 <test_5>:
    800001f4:	00500193          	li	gp,5
    800001f8:	000f00b7          	lui	ra,0xf0
    800001fc:	0ff0809b          	addiw	ra,ra,255
    80000200:	00c09093          	slli	ra,ra,0xc
    80000204:	00f08093          	addi	ra,ra,15 # f000f <tohost-0x6ff00001>
    80000208:	000f1137          	lui	sp,0xf1
    8000020c:	f0f1011b          	addiw	sp,sp,-241
    80000210:	00c11113          	slli	sp,sp,0xc
    80000214:	0f010113          	addi	sp,sp,240 # f10f0 <tohost-0x6fefef20>
    80000218:	0020f733          	and	a4,ra,sp
    8000021c:	000f03b7          	lui	t2,0xf0
    80000220:	00f3839b          	addiw	t2,t2,15
    80000224:	00c39393          	slli	t2,t2,0xc
    80000228:	4a771463          	bne	a4,t2,800006d0 <fail>

000000008000022c <test_6>:
    8000022c:	00600193          	li	gp,6
    80000230:	000100b7          	lui	ra,0x10
    80000234:	f010809b          	addiw	ra,ra,-255
    80000238:	01009093          	slli	ra,ra,0x10
    8000023c:	f0008093          	addi	ra,ra,-256 # ff00 <tohost-0x6ffe0110>
    80000240:	0f0f1137          	lui	sp,0xf0f1
    80000244:	f0f1011b          	addiw	sp,sp,-241
    80000248:	0020f0b3          	and	ra,ra,sp
    8000024c:	0f0013b7          	lui	t2,0xf001
    80000250:	f003839b          	addiw	t2,t2,-256
    80000254:	46709e63          	bne	ra,t2,800006d0 <fail>

0000000080000258 <test_7>:
    80000258:	00700193          	li	gp,7
    8000025c:	0ff010b7          	lui	ra,0xff01
    80000260:	ff00809b          	addiw	ra,ra,-16
    80000264:	000f1137          	lui	sp,0xf1
    80000268:	f0f1011b          	addiw	sp,sp,-241
    8000026c:	00c11113          	slli	sp,sp,0xc
    80000270:	0f010113          	addi	sp,sp,240 # f10f0 <tohost-0x6fefef20>
    80000274:	0020f133          	and	sp,ra,sp
    80000278:	00f003b7          	lui	t2,0xf00
    8000027c:	0f03839b          	addiw	t2,t2,240
    80000280:	44711863          	bne	sp,t2,800006d0 <fail>

0000000080000284 <test_8>:
    80000284:	00800193          	li	gp,8
    80000288:	000100b7          	lui	ra,0x10
    8000028c:	f010809b          	addiw	ra,ra,-255
    80000290:	01009093          	slli	ra,ra,0x10
    80000294:	f0008093          	addi	ra,ra,-256 # ff00 <tohost-0x6ffe0110>
    80000298:	0010f0b3          	and	ra,ra,ra
    8000029c:	000103b7          	lui	t2,0x10
    800002a0:	f013839b          	addiw	t2,t2,-255
    800002a4:	01039393          	slli	t2,t2,0x10
    800002a8:	f0038393          	addi	t2,t2,-256 # ff00 <tohost-0x6ffe0110>
    800002ac:	42709263          	bne	ra,t2,800006d0 <fail>

00000000800002b0 <test_9>:
    800002b0:	00900193          	li	gp,9
    800002b4:	00000213          	li	tp,0
    800002b8:	000100b7          	lui	ra,0x10
    800002bc:	f010809b          	addiw	ra,ra,-255
    800002c0:	01009093          	slli	ra,ra,0x10
    800002c4:	f0008093          	addi	ra,ra,-256 # ff00 <tohost-0x6ffe0110>
    800002c8:	0f0f1137          	lui	sp,0xf0f1
    800002cc:	f0f1011b          	addiw	sp,sp,-241
    800002d0:	0020f733          	and	a4,ra,sp
    800002d4:	00070313          	mv	t1,a4
    800002d8:	00120213          	addi	tp,tp,1 # 1 <tohost-0x6fff000f>
    800002dc:	00200293          	li	t0,2
    800002e0:	fc521ce3          	bne	tp,t0,800002b8 <test_9+0x8>
    800002e4:	0f0013b7          	lui	t2,0xf001
    800002e8:	f003839b          	addiw	t2,t2,-256
    800002ec:	3e731263          	bne	t1,t2,800006d0 <fail>

00000000800002f0 <test_10>:
    800002f0:	00a00193          	li	gp,10
    800002f4:	00000213          	li	tp,0
    800002f8:	0ff010b7          	lui	ra,0xff01
    800002fc:	ff00809b          	addiw	ra,ra,-16
    80000300:	000f1137          	lui	sp,0xf1
    80000304:	f0f1011b          	addiw	sp,sp,-241
    80000308:	00c11113          	slli	sp,sp,0xc
    8000030c:	0f010113          	addi	sp,sp,240 # f10f0 <tohost-0x6fefef20>
    80000310:	0020f733          	and	a4,ra,sp
    80000314:	00000013          	nop
    80000318:	00070313          	mv	t1,a4
    8000031c:	00120213          	addi	tp,tp,1 # 1 <tohost-0x6fff000f>
    80000320:	00200293          	li	t0,2
    80000324:	fc521ae3          	bne	tp,t0,800002f8 <test_10+0x8>
    80000328:	00f003b7          	lui	t2,0xf00
    8000032c:	0f03839b          	addiw	t2,t2,240
    80000330:	3a731063          	bne	t1,t2,800006d0 <fail>

0000000080000334 <test_11>:
    80000334:	00b00193          	li	gp,11
    80000338:	00000213          	li	tp,0
    8000033c:	00ff00b7          	lui	ra,0xff0
    80000340:	0ff0809b          	addiw	ra,ra,255
    80000344:	0f0f1137          	lui	sp,0xf0f1
    80000348:	f0f1011b          	addiw	sp,sp,-241
    8000034c:	0020f733          	and	a4,ra,sp
    80000350:	00000013          	nop
    80000354:	00000013          	nop
    80000358:	00070313          	mv	t1,a4
    8000035c:	00120213          	addi	tp,tp,1 # 1 <tohost-0x6fff000f>
    80000360:	00200293          	li	t0,2
    80000364:	fc521ce3          	bne	tp,t0,8000033c <test_11+0x8>
    80000368:	000f03b7          	lui	t2,0xf0
    8000036c:	00f3839b          	addiw	t2,t2,15
    80000370:	36731063          	bne	t1,t2,800006d0 <fail>

0000000080000374 <test_12>:
    80000374:	00c00193          	li	gp,12
    80000378:	00000213          	li	tp,0
    8000037c:	000100b7          	lui	ra,0x10
    80000380:	f010809b          	addiw	ra,ra,-255
    80000384:	01009093          	slli	ra,ra,0x10
    80000388:	f0008093          	addi	ra,ra,-256 # ff00 <tohost-0x6ffe0110>
    8000038c:	0f0f1137          	lui	sp,0xf0f1
    80000390:	f0f1011b          	addiw	sp,sp,-241
    80000394:	0020f733          	and	a4,ra,sp
    80000398:	00120213          	addi	tp,tp,1 # 1 <tohost-0x6fff000f>
    8000039c:	00200293          	li	t0,2
    800003a0:	fc521ee3          	bne	tp,t0,8000037c <test_12+0x8>
    800003a4:	0f0013b7          	lui	t2,0xf001
    800003a8:	f003839b          	addiw	t2,t2,-256
    800003ac:	32771263          	bne	a4,t2,800006d0 <fail>

00000000800003b0 <test_13>:
    800003b0:	00d00193          	li	gp,13
    800003b4:	00000213          	li	tp,0
    800003b8:	0ff010b7          	lui	ra,0xff01
    800003bc:	ff00809b          	addiw	ra,ra,-16
    800003c0:	000f1137          	lui	sp,0xf1
    800003c4:	f0f1011b          	addiw	sp,sp,-241
    800003c8:	00c11113          	slli	sp,sp,0xc
    800003cc:	0f010113          	addi	sp,sp,240 # f10f0 <tohost-0x6fefef20>
    800003d0:	00000013          	nop
    800003d4:	0020f733          	and	a4,ra,sp
    800003d8:	00120213          	addi	tp,tp,1 # 1 <tohost-0x6fff000f>
    800003dc:	00200293          	li	t0,2
    800003e0:	fc521ce3          	bne	tp,t0,800003b8 <test_13+0x8>
    800003e4:	00f003b7          	lui	t2,0xf00
    800003e8:	0f03839b          	addiw	t2,t2,240
    800003ec:	2e771263          	bne	a4,t2,800006d0 <fail>

00000000800003f0 <test_14>:
    800003f0:	00e00193          	li	gp,14
    800003f4:	00000213          	li	tp,0
    800003f8:	00ff00b7          	lui	ra,0xff0
    800003fc:	0ff0809b          	addiw	ra,ra,255
    80000400:	0f0f1137          	lui	sp,0xf0f1
    80000404:	f0f1011b          	addiw	sp,sp,-241
    80000408:	00000013          	nop
    8000040c:	00000013          	nop
    80000410:	0020f733          	and	a4,ra,sp
    80000414:	00120213          	addi	tp,tp,1 # 1 <tohost-0x6fff000f>
    80000418:	00200293          	li	t0,2
    8000041c:	fc521ee3          	bne	tp,t0,800003f8 <test_14+0x8>
    80000420:	000f03b7          	lui	t2,0xf0
    80000424:	00f3839b          	addiw	t2,t2,15
    80000428:	2a771463          	bne	a4,t2,800006d0 <fail>

000000008000042c <test_15>:
    8000042c:	00f00193          	li	gp,15
    80000430:	00000213          	li	tp,0
    80000434:	000100b7          	lui	ra,0x10
    80000438:	f010809b          	addiw	ra,ra,-255
    8000043c:	01009093          	slli	ra,ra,0x10
    80000440:	f0008093          	addi	ra,ra,-256 # ff00 <tohost-0x6ffe0110>
    80000444:	00000013          	nop
    80000448:	0f0f1137          	lui	sp,0xf0f1
    8000044c:	f0f1011b          	addiw	sp,sp,-241
    80000450:	0020f733          	and	a4,ra,sp
    80000454:	00120213          	addi	tp,tp,1 # 1 <tohost-0x6fff000f>
    80000458:	00200293          	li	t0,2
    8000045c:	fc521ce3          	bne	tp,t0,80000434 <test_15+0x8>
    80000460:	0f0013b7          	lui	t2,0xf001
    80000464:	f003839b          	addiw	t2,t2,-256
    80000468:	26771463          	bne	a4,t2,800006d0 <fail>

000000008000046c <test_16>:
    8000046c:	01000193          	li	gp,16
    80000470:	00000213          	li	tp,0
    80000474:	0ff010b7          	lui	ra,0xff01
    80000478:	ff00809b          	addiw	ra,ra,-16
    8000047c:	00000013          	nop
    80000480:	000f1137          	lui	sp,0xf1
    80000484:	f0f1011b          	addiw	sp,sp,-241
    80000488:	00c11113          	slli	sp,sp,0xc
    8000048c:	0f010113          	addi	sp,sp,240 # f10f0 <tohost-0x6fefef20>
    80000490:	00000013          	nop
    80000494:	0020f733          	and	a4,ra,sp
    80000498:	00120213          	addi	tp,tp,1 # 1 <tohost-0x6fff000f>
    8000049c:	00200293          	li	t0,2
    800004a0:	fc521ae3          	bne	tp,t0,80000474 <test_16+0x8>
    800004a4:	00f003b7          	lui	t2,0xf00
    800004a8:	0f03839b          	addiw	t2,t2,240
    800004ac:	22771263          	bne	a4,t2,800006d0 <fail>

00000000800004b0 <test_17>:
    800004b0:	01100193          	li	gp,17
    800004b4:	00000213          	li	tp,0
    800004b8:	00ff00b7          	lui	ra,0xff0
    800004bc:	0ff0809b          	addiw	ra,ra,255
    800004c0:	00000013          	nop
    800004c4:	00000013          	nop
    800004c8:	0f0f1137          	lui	sp,0xf0f1
    800004cc:	f0f1011b          	addiw	sp,sp,-241
    800004d0:	0020f733          	and	a4,ra,sp
    800004d4:	00120213          	addi	tp,tp,1 # 1 <tohost-0x6fff000f>
    800004d8:	00200293          	li	t0,2
    800004dc:	fc521ee3          	bne	tp,t0,800004b8 <test_17+0x8>
    800004e0:	000f03b7          	lui	t2,0xf0
    800004e4:	00f3839b          	addiw	t2,t2,15
    800004e8:	1e771463          	bne	a4,t2,800006d0 <fail>

00000000800004ec <test_18>:
    800004ec:	01200193          	li	gp,18
    800004f0:	00000213          	li	tp,0
    800004f4:	0f0f1137          	lui	sp,0xf0f1
    800004f8:	f0f1011b          	addiw	sp,sp,-241
    800004fc:	000100b7          	lui	ra,0x10
    80000500:	f010809b          	addiw	ra,ra,-255
    80000504:	01009093          	slli	ra,ra,0x10
    80000508:	f0008093          	addi	ra,ra,-256 # ff00 <tohost-0x6ffe0110>
    8000050c:	0020f733          	and	a4,ra,sp
    80000510:	00120213          	addi	tp,tp,1 # 1 <tohost-0x6fff000f>
    80000514:	00200293          	li	t0,2
    80000518:	fc521ee3          	bne	tp,t0,800004f4 <test_18+0x8>
    8000051c:	0f0013b7          	lui	t2,0xf001
    80000520:	f003839b          	addiw	t2,t2,-256
    80000524:	1a771663          	bne	a4,t2,800006d0 <fail>

0000000080000528 <test_19>:
    80000528:	01300193          	li	gp,19
    8000052c:	00000213          	li	tp,0
    80000530:	000f1137          	lui	sp,0xf1
    80000534:	f0f1011b          	addiw	sp,sp,-241
    80000538:	00c11113          	slli	sp,sp,0xc
    8000053c:	0f010113          	addi	sp,sp,240 # f10f0 <tohost-0x6fefef20>
    80000540:	0ff010b7          	lui	ra,0xff01
    80000544:	ff00809b          	addiw	ra,ra,-16
    80000548:	00000013          	nop
    8000054c:	0020f733          	and	a4,ra,sp
    80000550:	00120213          	addi	tp,tp,1 # 1 <tohost-0x6fff000f>
    80000554:	00200293          	li	t0,2
    80000558:	fc521ce3          	bne	tp,t0,80000530 <test_19+0x8>
    8000055c:	00f003b7          	lui	t2,0xf00
    80000560:	0f03839b          	addiw	t2,t2,240
    80000564:	16771663          	bne	a4,t2,800006d0 <fail>

0000000080000568 <test_20>:
    80000568:	01400193          	li	gp,20
    8000056c:	00000213          	li	tp,0
    80000570:	0f0f1137          	lui	sp,0xf0f1
    80000574:	f0f1011b          	addiw	sp,sp,-241
    80000578:	00ff00b7          	lui	ra,0xff0
    8000057c:	0ff0809b          	addiw	ra,ra,255
    80000580:	00000013          	nop
    80000584:	00000013          	nop
    80000588:	0020f733          	and	a4,ra,sp
    8000058c:	00120213          	addi	tp,tp,1 # 1 <tohost-0x6fff000f>
    80000590:	00200293          	li	t0,2
    80000594:	fc521ee3          	bne	tp,t0,80000570 <test_20+0x8>
    80000598:	000f03b7          	lui	t2,0xf0
    8000059c:	00f3839b          	addiw	t2,t2,15
    800005a0:	12771863          	bne	a4,t2,800006d0 <fail>

00000000800005a4 <test_21>:
    800005a4:	01500193          	li	gp,21
    800005a8:	00000213          	li	tp,0
    800005ac:	0f0f1137          	lui	sp,0xf0f1
    800005b0:	f0f1011b          	addiw	sp,sp,-241
    800005b4:	00000013          	nop
    800005b8:	000100b7          	lui	ra,0x10
    800005bc:	f010809b          	addiw	ra,ra,-255
    800005c0:	01009093          	slli	ra,ra,0x10
    800005c4:	f0008093          	addi	ra,ra,-256 # ff00 <tohost-0x6ffe0110>
    800005c8:	0020f733          	and	a4,ra,sp
    800005cc:	00120213          	addi	tp,tp,1 # 1 <tohost-0x6fff000f>
    800005d0:	00200293          	li	t0,2
    800005d4:	fc521ce3          	bne	tp,t0,800005ac <test_21+0x8>
    800005d8:	0f0013b7          	lui	t2,0xf001
    800005dc:	f003839b          	addiw	t2,t2,-256
    800005e0:	0e771863          	bne	a4,t2,800006d0 <fail>

00000000800005e4 <test_22>:
    800005e4:	01600193          	li	gp,22
    800005e8:	00000213          	li	tp,0
    800005ec:	000f1137          	lui	sp,0xf1
    800005f0:	f0f1011b          	addiw	sp,sp,-241
    800005f4:	00c11113          	slli	sp,sp,0xc
    800005f8:	0f010113          	addi	sp,sp,240 # f10f0 <tohost-0x6fefef20>
    800005fc:	00000013          	nop
    80000600:	0ff010b7          	lui	ra,0xff01
    80000604:	ff00809b          	addiw	ra,ra,-16
    80000608:	00000013          	nop
    8000060c:	0020f733          	and	a4,ra,sp
    80000610:	00120213          	addi	tp,tp,1 # 1 <tohost-0x6fff000f>
    80000614:	00200293          	li	t0,2
    80000618:	fc521ae3          	bne	tp,t0,800005ec <test_22+0x8>
    8000061c:	00f003b7          	lui	t2,0xf00
    80000620:	0f03839b          	addiw	t2,t2,240
    80000624:	0a771663          	bne	a4,t2,800006d0 <fail>

0000000080000628 <test_23>:
    80000628:	01700193          	li	gp,23
    8000062c:	00000213          	li	tp,0
    80000630:	0f0f1137          	lui	sp,0xf0f1
    80000634:	f0f1011b          	addiw	sp,sp,-241
    80000638:	00000013          	nop
    8000063c:	00000013          	nop
    80000640:	00ff00b7          	lui	ra,0xff0
    80000644:	0ff0809b          	addiw	ra,ra,255
    80000648:	0020f733          	and	a4,ra,sp
    8000064c:	00120213          	addi	tp,tp,1 # 1 <tohost-0x6fff000f>
    80000650:	00200293          	li	t0,2
    80000654:	fc521ee3          	bne	tp,t0,80000630 <test_23+0x8>
    80000658:	000f03b7          	lui	t2,0xf0
    8000065c:	00f3839b          	addiw	t2,t2,15
    80000660:	06771863          	bne	a4,t2,800006d0 <fail>

0000000080000664 <test_24>:
    80000664:	01800193          	li	gp,24
    80000668:	000100b7          	lui	ra,0x10
    8000066c:	f010809b          	addiw	ra,ra,-255
    80000670:	01009093          	slli	ra,ra,0x10
    80000674:	f0008093          	addi	ra,ra,-256 # ff00 <tohost-0x6ffe0110>
    80000678:	00107133          	and	sp,zero,ra
    8000067c:	00000393          	li	t2,0
    80000680:	04711863          	bne	sp,t2,800006d0 <fail>

0000000080000684 <test_25>:
    80000684:	01900193          	li	gp,25
    80000688:	00ff00b7          	lui	ra,0xff0
    8000068c:	0ff0809b          	addiw	ra,ra,255
    80000690:	0000f133          	and	sp,ra,zero
    80000694:	00000393          	li	t2,0
    80000698:	02711c63          	bne	sp,t2,800006d0 <fail>

000000008000069c <test_26>:
    8000069c:	01a00193          	li	gp,26
    800006a0:	000070b3          	and	ra,zero,zero
    800006a4:	00000393          	li	t2,0
    800006a8:	02709463          	bne	ra,t2,800006d0 <fail>

00000000800006ac <test_27>:
    800006ac:	01b00193          	li	gp,27
    800006b0:	111110b7          	lui	ra,0x11111
    800006b4:	1110809b          	addiw	ra,ra,273
    800006b8:	22222137          	lui	sp,0x22222
    800006bc:	2221011b          	addiw	sp,sp,546
    800006c0:	0020f033          	and	zero,ra,sp
    800006c4:	00000393          	li	t2,0
    800006c8:	00701463          	bne	zero,t2,800006d0 <fail>
    800006cc:	02301063          	bne	zero,gp,800006ec <pass>

00000000800006d0 <fail>:
    800006d0:	0ff0000f          	fence
    800006d4:	00018063          	beqz	gp,800006d4 <fail+0x4>
    800006d8:	00119193          	slli	gp,gp,0x1
    800006dc:	0011e193          	ori	gp,gp,1
    800006e0:	05d00893          	li	a7,93
    800006e4:	00018513          	mv	a0,gp
    800006e8:	00000073          	ecall

00000000800006ec <pass>:
    800006ec:	0ff0000f          	fence
    800006f0:	00100193          	li	gp,1
    800006f4:	05d00893          	li	a7,93
    800006f8:	00000513          	li	a0,0
    800006fc:	00000073          	ecall
    80000700:	c0001073          	unimp
    80000704:	0000                	unimp
    80000706:	0000                	unimp
    80000708:	0000                	unimp
    8000070a:	0000                	unimp
    8000070c:	0000                	unimp
    8000070e:	0000                	unimp
    80000710:	0000                	unimp
    80000712:	0000                	unimp
    80000714:	0000                	unimp
    80000716:	0000                	unimp
    80000718:	0000                	unimp
    8000071a:	0000                	unimp
    8000071c:	0000                	unimp
    8000071e:	0000                	unimp
    80000720:	0000                	unimp
    80000722:	0000                	unimp
    80000724:	0000                	unimp
    80000726:	0000                	unimp
    80000728:	0000                	unimp
    8000072a:	0000                	unimp
    8000072c:	0000                	unimp
    8000072e:	0000                	unimp
    80000730:	0000                	unimp
    80000732:	0000                	unimp
    80000734:	0000                	unimp
    80000736:	0000                	unimp
    80000738:	0000                	unimp
    8000073a:	0000                	unimp
