
rv64uf-v-fdiv:     file format elf64-littleriscv


Disassembly of section .text.init:

0000000080000000 <_start>:
    80000000:	0180006f          	j	80000018 <handle_reset>

0000000080000004 <nmi_vector>:
    80000004:	2580106f          	j	8000125c <wtf>

0000000080000008 <trap_vector>:
    80000008:	34202f73          	csrr	t5,mcause
    8000000c:	00900f93          	li	t6,9
    80000010:	1fff0a63          	beq	t5,t6,80000204 <write_tohost>
    80000014:	2480106f          	j	8000125c <wtf>

0000000080000018 <handle_reset>:
    80000018:	00000093          	li	ra,0
    8000001c:	00000113          	li	sp,0
    80000020:	00000193          	li	gp,0
    80000024:	00000213          	li	tp,0
    80000028:	00000293          	li	t0,0
    8000002c:	00000313          	li	t1,0
    80000030:	00000393          	li	t2,0
    80000034:	00000413          	li	s0,0
    80000038:	00000493          	li	s1,0
    8000003c:	00000513          	li	a0,0
    80000040:	00000593          	li	a1,0
    80000044:	00000613          	li	a2,0
    80000048:	00000693          	li	a3,0
    8000004c:	00000713          	li	a4,0
    80000050:	00000793          	li	a5,0
    80000054:	00000813          	li	a6,0
    80000058:	00000893          	li	a7,0
    8000005c:	00000913          	li	s2,0
    80000060:	00000993          	li	s3,0
    80000064:	00000a13          	li	s4,0
    80000068:	00000a93          	li	s5,0
    8000006c:	00000b13          	li	s6,0
    80000070:	00000b93          	li	s7,0
    80000074:	00000c13          	li	s8,0
    80000078:	00000c93          	li	s9,0
    8000007c:	00000d13          	li	s10,0
    80000080:	00000d93          	li	s11,0
    80000084:	00000e13          	li	t3,0
    80000088:	00000e93          	li	t4,0
    8000008c:	00000f13          	li	t5,0
    80000090:	00000f93          	li	t6,0
    80000094:	00000297          	auipc	t0,0x0
    80000098:	f7428293          	addi	t0,t0,-140 # 80000008 <trap_vector>
    8000009c:	30529073          	csrw	mtvec,t0
    800000a0:	00009117          	auipc	sp,0x9
    800000a4:	e4010113          	addi	sp,sp,-448 # 80008ee0 <freelist_head+0xed8>
    800000a8:	f14022f3          	csrr	t0,mhartid
    800000ac:	00c29293          	slli	t0,t0,0xc
    800000b0:	00510133          	add	sp,sp,t0
    800000b4:	34011073          	csrw	mscratch,sp
    800000b8:	161010ef          	jal	ra,80001a18 <extra_boot>
    800000bc:	00002517          	auipc	a0,0x2
    800000c0:	96050513          	addi	a0,a0,-1696 # 80001a1c <userstart>
    800000c4:	7300106f          	j	800017f4 <vm_boot>

00000000800000c8 <pop_tf>:
    800000c8:	10853283          	ld	t0,264(a0)
    800000cc:	14129073          	csrw	sepc,t0
    800000d0:	00853083          	ld	ra,8(a0)
    800000d4:	01053103          	ld	sp,16(a0)
    800000d8:	01853183          	ld	gp,24(a0)
    800000dc:	02053203          	ld	tp,32(a0)
    800000e0:	02853283          	ld	t0,40(a0)
    800000e4:	03053303          	ld	t1,48(a0)
    800000e8:	03853383          	ld	t2,56(a0)
    800000ec:	04053403          	ld	s0,64(a0)
    800000f0:	04853483          	ld	s1,72(a0)
    800000f4:	05853583          	ld	a1,88(a0)
    800000f8:	06053603          	ld	a2,96(a0)
    800000fc:	06853683          	ld	a3,104(a0)
    80000100:	07053703          	ld	a4,112(a0)
    80000104:	07853783          	ld	a5,120(a0)
    80000108:	08053803          	ld	a6,128(a0)
    8000010c:	08853883          	ld	a7,136(a0)
    80000110:	09053903          	ld	s2,144(a0)
    80000114:	09853983          	ld	s3,152(a0)
    80000118:	0a053a03          	ld	s4,160(a0)
    8000011c:	0a853a83          	ld	s5,168(a0)
    80000120:	0b053b03          	ld	s6,176(a0)
    80000124:	0b853b83          	ld	s7,184(a0)
    80000128:	0c053c03          	ld	s8,192(a0)
    8000012c:	0c853c83          	ld	s9,200(a0)
    80000130:	0d053d03          	ld	s10,208(a0)
    80000134:	0d853d83          	ld	s11,216(a0)
    80000138:	0e053e03          	ld	t3,224(a0)
    8000013c:	0e853e83          	ld	t4,232(a0)
    80000140:	0f053f03          	ld	t5,240(a0)
    80000144:	0f853f83          	ld	t6,248(a0)
    80000148:	05053503          	ld	a0,80(a0)
    8000014c:	10200073          	sret

0000000080000150 <trap_entry>:
    80000150:	14011173          	csrrw	sp,sscratch,sp
    80000154:	00113423          	sd	ra,8(sp)
    80000158:	00313c23          	sd	gp,24(sp)
    8000015c:	02413023          	sd	tp,32(sp)
    80000160:	02513423          	sd	t0,40(sp)
    80000164:	02613823          	sd	t1,48(sp)
    80000168:	02713c23          	sd	t2,56(sp)
    8000016c:	04813023          	sd	s0,64(sp)
    80000170:	04913423          	sd	s1,72(sp)
    80000174:	04a13823          	sd	a0,80(sp)
    80000178:	04b13c23          	sd	a1,88(sp)
    8000017c:	06c13023          	sd	a2,96(sp)
    80000180:	06d13423          	sd	a3,104(sp)
    80000184:	06e13823          	sd	a4,112(sp)
    80000188:	06f13c23          	sd	a5,120(sp)
    8000018c:	09013023          	sd	a6,128(sp)
    80000190:	09113423          	sd	a7,136(sp)
    80000194:	09213823          	sd	s2,144(sp)
    80000198:	09313c23          	sd	s3,152(sp)
    8000019c:	0b413023          	sd	s4,160(sp)
    800001a0:	0b513423          	sd	s5,168(sp)
    800001a4:	0b613823          	sd	s6,176(sp)
    800001a8:	0b713c23          	sd	s7,184(sp)
    800001ac:	0d813023          	sd	s8,192(sp)
    800001b0:	0d913423          	sd	s9,200(sp)
    800001b4:	0da13823          	sd	s10,208(sp)
    800001b8:	0db13c23          	sd	s11,216(sp)
    800001bc:	0fc13023          	sd	t3,224(sp)
    800001c0:	0fd13423          	sd	t4,232(sp)
    800001c4:	0fe13823          	sd	t5,240(sp)
    800001c8:	0ff13c23          	sd	t6,248(sp)
    800001cc:	140112f3          	csrrw	t0,sscratch,sp
    800001d0:	00513823          	sd	t0,16(sp)
    800001d4:	100022f3          	csrr	t0,sstatus
    800001d8:	10513023          	sd	t0,256(sp)
    800001dc:	141022f3          	csrr	t0,sepc
    800001e0:	10513423          	sd	t0,264(sp)
    800001e4:	143022f3          	csrr	t0,stval
    800001e8:	10513823          	sd	t0,272(sp)
    800001ec:	142022f3          	csrr	t0,scause
    800001f0:	10513c23          	sd	t0,280(sp)
    800001f4:	00010513          	mv	a0,sp
    800001f8:	34c0106f          	j	80001544 <handle_trap>

00000000800001fc <do_tohost>:
    800001fc:	00000073          	ecall
    80000200:	00008067          	ret

0000000080000204 <write_tohost>:
    80000204:	efff0f17          	auipc	t5,0xefff0
    80000208:	e0af2623          	sw	a0,-500(t5) # 6fff0010 <tohost>
    8000020c:	ff9ff06f          	j	80000204 <write_tohost>

Disassembly of section .text:

0000000080001000 <memcpy>:
    80001000:	00b567b3          	or	a5,a0,a1
    80001004:	00c7e7b3          	or	a5,a5,a2
    80001008:	0077f793          	andi	a5,a5,7
    8000100c:	00c506b3          	add	a3,a0,a2
    80001010:	02078463          	beqz	a5,80001038 <memcpy+0x38>
    80001014:	00c58633          	add	a2,a1,a2
    80001018:	00050793          	mv	a5,a0
    8000101c:	02d57e63          	bgeu	a0,a3,80001058 <memcpy+0x58>
    80001020:	0005c703          	lbu	a4,0(a1)
    80001024:	00158593          	addi	a1,a1,1
    80001028:	00178793          	addi	a5,a5,1
    8000102c:	fee78fa3          	sb	a4,-1(a5)
    80001030:	fec598e3          	bne	a1,a2,80001020 <memcpy+0x20>
    80001034:	00008067          	ret
    80001038:	fed57ee3          	bgeu	a0,a3,80001034 <memcpy+0x34>
    8000103c:	00050793          	mv	a5,a0
    80001040:	0005b703          	ld	a4,0(a1)
    80001044:	00878793          	addi	a5,a5,8
    80001048:	00858593          	addi	a1,a1,8
    8000104c:	fee7bc23          	sd	a4,-8(a5)
    80001050:	fed7e8e3          	bltu	a5,a3,80001040 <memcpy+0x40>
    80001054:	00008067          	ret
    80001058:	00008067          	ret

000000008000105c <memset>:
    8000105c:	ff010113          	addi	sp,sp,-16
    80001060:	00c567b3          	or	a5,a0,a2
    80001064:	00813023          	sd	s0,0(sp)
    80001068:	00113423          	sd	ra,8(sp)
    8000106c:	0077f793          	andi	a5,a5,7
    80001070:	00050413          	mv	s0,a0
    80001074:	00c50733          	add	a4,a0,a2
    80001078:	02078263          	beqz	a5,8000109c <memset+0x40>
    8000107c:	00e57663          	bgeu	a0,a4,80001088 <memset+0x2c>
    80001080:	0ff5f593          	zext.b	a1,a1
    80001084:	fd9ff0ef          	jal	ra,8000105c <memset>
    80001088:	00813083          	ld	ra,8(sp)
    8000108c:	00040513          	mv	a0,s0
    80001090:	00013403          	ld	s0,0(sp)
    80001094:	01010113          	addi	sp,sp,16
    80001098:	00008067          	ret
    8000109c:	0ff5f593          	zext.b	a1,a1
    800010a0:	00859693          	slli	a3,a1,0x8
    800010a4:	00b6e6b3          	or	a3,a3,a1
    800010a8:	01069793          	slli	a5,a3,0x10
    800010ac:	00d7e7b3          	or	a5,a5,a3
    800010b0:	02079693          	slli	a3,a5,0x20
    800010b4:	00f6e6b3          	or	a3,a3,a5
    800010b8:	fce578e3          	bgeu	a0,a4,80001088 <memset+0x2c>
    800010bc:	00050793          	mv	a5,a0
    800010c0:	00878793          	addi	a5,a5,8
    800010c4:	fed7bc23          	sd	a3,-8(a5)
    800010c8:	fee7ece3          	bltu	a5,a4,800010c0 <memset+0x64>
    800010cc:	00813083          	ld	ra,8(sp)
    800010d0:	00040513          	mv	a0,s0
    800010d4:	00013403          	ld	s0,0(sp)
    800010d8:	01010113          	addi	sp,sp,16
    800010dc:	00008067          	ret

00000000800010e0 <strlen>:
    800010e0:	00054783          	lbu	a5,0(a0)
    800010e4:	00078e63          	beqz	a5,80001100 <strlen+0x20>
    800010e8:	00050793          	mv	a5,a0
    800010ec:	0017c703          	lbu	a4,1(a5)
    800010f0:	00178793          	addi	a5,a5,1
    800010f4:	fe071ce3          	bnez	a4,800010ec <strlen+0xc>
    800010f8:	40a78533          	sub	a0,a5,a0
    800010fc:	00008067          	ret
    80001100:	00000513          	li	a0,0
    80001104:	00008067          	ret

0000000080001108 <strcmp>:
    80001108:	00054783          	lbu	a5,0(a0)
    8000110c:	00158593          	addi	a1,a1,1
    80001110:	00150513          	addi	a0,a0,1
    80001114:	fff5c703          	lbu	a4,-1(a1)
    80001118:	00078a63          	beqz	a5,8000112c <strcmp+0x24>
    8000111c:	fee786e3          	beq	a5,a4,80001108 <strcmp>
    80001120:	0007851b          	sext.w	a0,a5
    80001124:	40e5053b          	subw	a0,a0,a4
    80001128:	00008067          	ret
    8000112c:	00000513          	li	a0,0
    80001130:	ff5ff06f          	j	80001124 <strcmp+0x1c>

0000000080001134 <memcmp>:
    80001134:	00b567b3          	or	a5,a0,a1
    80001138:	0077f793          	andi	a5,a5,7
    8000113c:	02079e63          	bnez	a5,80001178 <memcmp+0x44>
    80001140:	ff867813          	andi	a6,a2,-8
    80001144:	01050833          	add	a6,a0,a6
    80001148:	03057863          	bgeu	a0,a6,80001178 <memcmp+0x44>
    8000114c:	00050793          	mv	a5,a0
    80001150:	0100006f          	j	80001160 <memcmp+0x2c>
    80001154:	00878793          	addi	a5,a5,8
    80001158:	00858593          	addi	a1,a1,8
    8000115c:	0107f863          	bgeu	a5,a6,8000116c <memcmp+0x38>
    80001160:	0007b683          	ld	a3,0(a5)
    80001164:	0005b703          	ld	a4,0(a1)
    80001168:	fee686e3          	beq	a3,a4,80001154 <memcmp+0x20>
    8000116c:	40a78533          	sub	a0,a5,a0
    80001170:	40a60633          	sub	a2,a2,a0
    80001174:	00078513          	mv	a0,a5
    80001178:	00c58633          	add	a2,a1,a2
    8000117c:	0140006f          	j	80001190 <memcmp+0x5c>
    80001180:	0005c703          	lbu	a4,0(a1)
    80001184:	fff54783          	lbu	a5,-1(a0)
    80001188:	00158593          	addi	a1,a1,1
    8000118c:	00e79a63          	bne	a5,a4,800011a0 <memcmp+0x6c>
    80001190:	00150513          	addi	a0,a0,1
    80001194:	fec596e3          	bne	a1,a2,80001180 <memcmp+0x4c>
    80001198:	00000513          	li	a0,0
    8000119c:	00008067          	ret
    800011a0:	40e7853b          	subw	a0,a5,a4
    800011a4:	00008067          	ret

00000000800011a8 <strcpy>:
    800011a8:	00050793          	mv	a5,a0
    800011ac:	0005c703          	lbu	a4,0(a1)
    800011b0:	00178793          	addi	a5,a5,1
    800011b4:	00158593          	addi	a1,a1,1
    800011b8:	fee78fa3          	sb	a4,-1(a5)
    800011bc:	fe0718e3          	bnez	a4,800011ac <strcpy+0x4>
    800011c0:	00008067          	ret

00000000800011c4 <atol>:
    800011c4:	00054703          	lbu	a4,0(a0)
    800011c8:	02000693          	li	a3,32
    800011cc:	00050793          	mv	a5,a0
    800011d0:	00d71863          	bne	a4,a3,800011e0 <atol+0x1c>
    800011d4:	0017c703          	lbu	a4,1(a5)
    800011d8:	00178793          	addi	a5,a5,1
    800011dc:	fed70ce3          	beq	a4,a3,800011d4 <atol+0x10>
    800011e0:	02d00693          	li	a3,45
    800011e4:	06d70063          	beq	a4,a3,80001244 <atol+0x80>
    800011e8:	02b00693          	li	a3,43
    800011ec:	04d70063          	beq	a4,a3,8000122c <atol+0x68>
    800011f0:	0007c683          	lbu	a3,0(a5)
    800011f4:	00000593          	li	a1,0
    800011f8:	04068263          	beqz	a3,8000123c <atol+0x78>
    800011fc:	00000513          	li	a0,0
    80001200:	00178793          	addi	a5,a5,1
    80001204:	00251713          	slli	a4,a0,0x2
    80001208:	fd06861b          	addiw	a2,a3,-48
    8000120c:	0007c683          	lbu	a3,0(a5)
    80001210:	00a70733          	add	a4,a4,a0
    80001214:	00171713          	slli	a4,a4,0x1
    80001218:	00e60533          	add	a0,a2,a4
    8000121c:	fe0692e3          	bnez	a3,80001200 <atol+0x3c>
    80001220:	02058063          	beqz	a1,80001240 <atol+0x7c>
    80001224:	40a00533          	neg	a0,a0
    80001228:	00008067          	ret
    8000122c:	0017c683          	lbu	a3,1(a5)
    80001230:	00000593          	li	a1,0
    80001234:	00178793          	addi	a5,a5,1
    80001238:	fc0692e3          	bnez	a3,800011fc <atol+0x38>
    8000123c:	00000513          	li	a0,0
    80001240:	00008067          	ret
    80001244:	0017c683          	lbu	a3,1(a5)
    80001248:	00100593          	li	a1,1
    8000124c:	00178793          	addi	a5,a5,1
    80001250:	fa0696e3          	bnez	a3,800011fc <atol+0x38>
    80001254:	00000513          	li	a0,0
    80001258:	fe9ff06f          	j	80001240 <atol+0x7c>

000000008000125c <wtf>:
    8000125c:	ff010113          	addi	sp,sp,-16
    80001260:	34900513          	li	a0,841
    80001264:	00113423          	sd	ra,8(sp)
    80001268:	f95fe0ef          	jal	ra,800001fc <do_tohost>
    8000126c:	0000006f          	j	8000126c <wtf+0x10>

0000000080001270 <printhex>:
    80001270:	fc010113          	addi	sp,sp,-64
    80001274:	02813823          	sd	s0,48(sp)
    80001278:	02113c23          	sd	ra,56(sp)
    8000127c:	02913423          	sd	s1,40(sp)
    80001280:	00810413          	addi	s0,sp,8
    80001284:	01710693          	addi	a3,sp,23
    80001288:	00900593          	li	a1,9
    8000128c:	0080006f          	j	80001294 <printhex+0x24>
    80001290:	00078693          	mv	a3,a5
    80001294:	00f57713          	andi	a4,a0,15
    80001298:	00070793          	mv	a5,a4
    8000129c:	03000613          	li	a2,48
    800012a0:	00e5f463          	bgeu	a1,a4,800012a8 <printhex+0x38>
    800012a4:	05700613          	li	a2,87
    800012a8:	00c787bb          	addw	a5,a5,a2
    800012ac:	00f68023          	sb	a5,0(a3)
    800012b0:	00455513          	srli	a0,a0,0x4
    800012b4:	fff68793          	addi	a5,a3,-1
    800012b8:	fcd41ce3          	bne	s0,a3,80001290 <printhex+0x20>
    800012bc:	00814503          	lbu	a0,8(sp)
    800012c0:	00010c23          	sb	zero,24(sp)
    800012c4:	02050063          	beqz	a0,800012e4 <printhex+0x74>
    800012c8:	10100493          	li	s1,257
    800012cc:	03049493          	slli	s1,s1,0x30
    800012d0:	00956533          	or	a0,a0,s1
    800012d4:	00140413          	addi	s0,s0,1
    800012d8:	f25fe0ef          	jal	ra,800001fc <do_tohost>
    800012dc:	00044503          	lbu	a0,0(s0)
    800012e0:	fe0518e3          	bnez	a0,800012d0 <printhex+0x60>
    800012e4:	03813083          	ld	ra,56(sp)
    800012e8:	03013403          	ld	s0,48(sp)
    800012ec:	02813483          	ld	s1,40(sp)
    800012f0:	04010113          	addi	sp,sp,64
    800012f4:	00008067          	ret

00000000800012f8 <handle_fault>:
    800012f8:	fe010113          	addi	sp,sp,-32
    800012fc:	fffff7b7          	lui	a5,0xfffff
    80001300:	00113c23          	sd	ra,24(sp)
    80001304:	00813823          	sd	s0,16(sp)
    80001308:	00913423          	sd	s1,8(sp)
    8000130c:	00f506b3          	add	a3,a0,a5
    80001310:	0003e737          	lui	a4,0x3e
    80001314:	14e6fc63          	bgeu	a3,a4,8000146c <handle_fault+0x174>
    80001318:	00c55813          	srli	a6,a0,0xc
    8000131c:	60080713          	addi	a4,a6,1536
    80001320:	00003617          	auipc	a2,0x3
    80001324:	ce060613          	addi	a2,a2,-800 # 80004000 <pt>
    80001328:	00371693          	slli	a3,a4,0x3
    8000132c:	00d606b3          	add	a3,a2,a3
    80001330:	0006b683          	ld	a3,0(a3)
    80001334:	00f57533          	and	a0,a0,a5
    80001338:	04068863          	beqz	a3,80001388 <handle_fault+0x90>
    8000133c:	0406f793          	andi	a5,a3,64
    80001340:	1a078063          	beqz	a5,800014e0 <handle_fault+0x1e8>
    80001344:	0806f793          	andi	a5,a3,128
    80001348:	00079663          	bnez	a5,80001354 <handle_fault+0x5c>
    8000134c:	00f00793          	li	a5,15
    80001350:	1ef58663          	beq	a1,a5,8000153c <handle_fault+0x244>
    80001354:	10100493          	li	s1,257
    80001358:	04100513          	li	a0,65
    8000135c:	00001417          	auipc	s0,0x1
    80001360:	89c40413          	addi	s0,s0,-1892 # 80001bf8 <pass+0x58>
    80001364:	03049493          	slli	s1,s1,0x30
    80001368:	00956533          	or	a0,a0,s1
    8000136c:	00140413          	addi	s0,s0,1
    80001370:	e8dfe0ef          	jal	ra,800001fc <do_tohost>
    80001374:	00044503          	lbu	a0,0(s0)
    80001378:	fe0518e3          	bnez	a0,80001368 <handle_fault+0x70>
    8000137c:	00300513          	li	a0,3
    80001380:	e7dfe0ef          	jal	ra,800001fc <do_tohost>
    80001384:	0000006f          	j	80001384 <handle_fault+0x8c>
    80001388:	00007697          	auipc	a3,0x7
    8000138c:	c8068693          	addi	a3,a3,-896 # 80008008 <freelist_head>
    80001390:	0006b783          	ld	a5,0(a3)
    80001394:	16078a63          	beqz	a5,80001508 <handle_fault+0x210>
    80001398:	0087b583          	ld	a1,8(a5) # fffffffffffff008 <freelist_head+0xffffffff7fff7000>
    8000139c:	00007897          	auipc	a7,0x7
    800013a0:	c648b883          	ld	a7,-924(a7) # 80008000 <freelist_tail>
    800013a4:	00b6b023          	sd	a1,0(a3)
    800013a8:	13158663          	beq	a1,a7,800014d4 <handle_fault+0x1dc>
    800013ac:	0007b583          	ld	a1,0(a5)
    800013b0:	00371693          	slli	a3,a4,0x3
    800013b4:	00d606b3          	add	a3,a2,a3
    800013b8:	00c5d593          	srli	a1,a1,0xc
    800013bc:	00a59593          	slli	a1,a1,0xa
    800013c0:	0df5e893          	ori	a7,a1,223
    800013c4:	0116b023          	sd	a7,0(a3)
    800013c8:	12050073          	sfence.vma	a0
    800013cc:	00002697          	auipc	a3,0x2
    800013d0:	c3468693          	addi	a3,a3,-972 # 80003000 <user_mapping>
    800013d4:	00481813          	slli	a6,a6,0x4
    800013d8:	010686b3          	add	a3,a3,a6
    800013dc:	0006b803          	ld	a6,0(a3)
    800013e0:	0c081063          	bnez	a6,800014a0 <handle_fault+0x1a8>
    800013e4:	0007b803          	ld	a6,0(a5)
    800013e8:	00040f37          	lui	t5,0x40
    800013ec:	0106b023          	sd	a6,0(a3)
    800013f0:	0087b783          	ld	a5,8(a5)
    800013f4:	00f6b423          	sd	a5,8(a3)
    800013f8:	100f2f73          	csrrs	t5,sstatus,t5
    800013fc:	ffe007b7          	lui	a5,0xffe00
    80001400:	00f507b3          	add	a5,a0,a5
    80001404:	00001837          	lui	a6,0x1
    80001408:	00050693          	mv	a3,a0
    8000140c:	01078833          	add	a6,a5,a6
    80001410:	0007be83          	ld	t4,0(a5) # ffffffffffe00000 <freelist_head+0xffffffff7fdf7ff8>
    80001414:	0087be03          	ld	t3,8(a5)
    80001418:	0107b303          	ld	t1,16(a5)
    8000141c:	0187b883          	ld	a7,24(a5)
    80001420:	01d6b023          	sd	t4,0(a3)
    80001424:	01c6b423          	sd	t3,8(a3)
    80001428:	0066b823          	sd	t1,16(a3)
    8000142c:	0116bc23          	sd	a7,24(a3)
    80001430:	02078793          	addi	a5,a5,32
    80001434:	02068693          	addi	a3,a3,32
    80001438:	fd079ce3          	bne	a5,a6,80001410 <handle_fault+0x118>
    8000143c:	100f1073          	csrw	sstatus,t5
    80001440:	00371713          	slli	a4,a4,0x3
    80001444:	00e607b3          	add	a5,a2,a4
    80001448:	01f5e593          	ori	a1,a1,31
    8000144c:	00b7b023          	sd	a1,0(a5)
    80001450:	12050073          	sfence.vma	a0
    80001454:	0000100f          	fence.i
    80001458:	01813083          	ld	ra,24(sp)
    8000145c:	01013403          	ld	s0,16(sp)
    80001460:	00813483          	ld	s1,8(sp)
    80001464:	02010113          	addi	sp,sp,32
    80001468:	00008067          	ret
    8000146c:	10100493          	li	s1,257
    80001470:	04100513          	li	a0,65
    80001474:	00000417          	auipc	s0,0x0
    80001478:	73c40413          	addi	s0,s0,1852 # 80001bb0 <pass+0x10>
    8000147c:	03049493          	slli	s1,s1,0x30
    80001480:	00956533          	or	a0,a0,s1
    80001484:	00140413          	addi	s0,s0,1
    80001488:	d75fe0ef          	jal	ra,800001fc <do_tohost>
    8000148c:	00044503          	lbu	a0,0(s0)
    80001490:	fe0518e3          	bnez	a0,80001480 <handle_fault+0x188>
    80001494:	00300513          	li	a0,3
    80001498:	d65fe0ef          	jal	ra,800001fc <do_tohost>
    8000149c:	0000006f          	j	8000149c <handle_fault+0x1a4>
    800014a0:	10100493          	li	s1,257
    800014a4:	04100513          	li	a0,65
    800014a8:	00000417          	auipc	s0,0x0
    800014ac:	7b040413          	addi	s0,s0,1968 # 80001c58 <pass+0xb8>
    800014b0:	03049493          	slli	s1,s1,0x30
    800014b4:	00956533          	or	a0,a0,s1
    800014b8:	00140413          	addi	s0,s0,1
    800014bc:	d41fe0ef          	jal	ra,800001fc <do_tohost>
    800014c0:	00044503          	lbu	a0,0(s0)
    800014c4:	fe0518e3          	bnez	a0,800014b4 <handle_fault+0x1bc>
    800014c8:	00300513          	li	a0,3
    800014cc:	d31fe0ef          	jal	ra,800001fc <do_tohost>
    800014d0:	0000006f          	j	800014d0 <handle_fault+0x1d8>
    800014d4:	00007697          	auipc	a3,0x7
    800014d8:	b206b623          	sd	zero,-1236(a3) # 80008000 <freelist_tail>
    800014dc:	ed1ff06f          	j	800013ac <handle_fault+0xb4>
    800014e0:	0406e693          	ori	a3,a3,64
    800014e4:	00371793          	slli	a5,a4,0x3
    800014e8:	00f607b3          	add	a5,a2,a5
    800014ec:	00d7b023          	sd	a3,0(a5)
    800014f0:	12050073          	sfence.vma	a0
    800014f4:	01813083          	ld	ra,24(sp)
    800014f8:	01013403          	ld	s0,16(sp)
    800014fc:	00813483          	ld	s1,8(sp)
    80001500:	02010113          	addi	sp,sp,32
    80001504:	00008067          	ret
    80001508:	10100493          	li	s1,257
    8000150c:	04100513          	li	a0,65
    80001510:	00000417          	auipc	s0,0x0
    80001514:	73040413          	addi	s0,s0,1840 # 80001c40 <pass+0xa0>
    80001518:	03049493          	slli	s1,s1,0x30
    8000151c:	00956533          	or	a0,a0,s1
    80001520:	00140413          	addi	s0,s0,1
    80001524:	cd9fe0ef          	jal	ra,800001fc <do_tohost>
    80001528:	00044503          	lbu	a0,0(s0)
    8000152c:	fe0518e3          	bnez	a0,8000151c <handle_fault+0x224>
    80001530:	00300513          	li	a0,3
    80001534:	cc9fe0ef          	jal	ra,800001fc <do_tohost>
    80001538:	0000006f          	j	80001538 <handle_fault+0x240>
    8000153c:	0806e693          	ori	a3,a3,128
    80001540:	fa5ff06f          	j	800014e4 <handle_fault+0x1ec>

0000000080001544 <handle_trap>:
    80001544:	11853583          	ld	a1,280(a0)
    80001548:	f8010113          	addi	sp,sp,-128
    8000154c:	06813823          	sd	s0,112(sp)
    80001550:	06113c23          	sd	ra,120(sp)
    80001554:	06913423          	sd	s1,104(sp)
    80001558:	07213023          	sd	s2,96(sp)
    8000155c:	05313c23          	sd	s3,88(sp)
    80001560:	05413823          	sd	s4,80(sp)
    80001564:	05513423          	sd	s5,72(sp)
    80001568:	05613023          	sd	s6,64(sp)
    8000156c:	03713c23          	sd	s7,56(sp)
    80001570:	03813823          	sd	s8,48(sp)
    80001574:	03913423          	sd	s9,40(sp)
    80001578:	03a13023          	sd	s10,32(sp)
    8000157c:	01b13c23          	sd	s11,24(sp)
    80001580:	00800793          	li	a5,8
    80001584:	00050413          	mv	s0,a0
    80001588:	0af58e63          	beq	a1,a5,80001644 <handle_trap+0x100>
    8000158c:	00200793          	li	a5,2
    80001590:	06f58063          	beq	a1,a5,800015f0 <handle_trap+0xac>
    80001594:	ff458793          	addi	a5,a1,-12
    80001598:	00100713          	li	a4,1
    8000159c:	00f77663          	bgeu	a4,a5,800015a8 <handle_trap+0x64>
    800015a0:	00f00793          	li	a5,15
    800015a4:	18f59e63          	bne	a1,a5,80001740 <handle_trap+0x1fc>
    800015a8:	11043503          	ld	a0,272(s0)
    800015ac:	d4dff0ef          	jal	ra,800012f8 <handle_fault>
    800015b0:	00040513          	mv	a0,s0
    800015b4:	07013403          	ld	s0,112(sp)
    800015b8:	07813083          	ld	ra,120(sp)
    800015bc:	06813483          	ld	s1,104(sp)
    800015c0:	06013903          	ld	s2,96(sp)
    800015c4:	05813983          	ld	s3,88(sp)
    800015c8:	05013a03          	ld	s4,80(sp)
    800015cc:	04813a83          	ld	s5,72(sp)
    800015d0:	04013b03          	ld	s6,64(sp)
    800015d4:	03813b83          	ld	s7,56(sp)
    800015d8:	03013c03          	ld	s8,48(sp)
    800015dc:	02813c83          	ld	s9,40(sp)
    800015e0:	02013d03          	ld	s10,32(sp)
    800015e4:	01813d83          	ld	s11,24(sp)
    800015e8:	08010113          	addi	sp,sp,128
    800015ec:	addfe06f          	j	800000c8 <pop_tf>
    800015f0:	10853783          	ld	a5,264(a0)
    800015f4:	0037f713          	andi	a4,a5,3
    800015f8:	16071e63          	bnez	a4,80001774 <handle_trap+0x230>
    800015fc:	0007a683          	lw	a3,0(a5)
    80001600:	0080076f          	jal	a4,80001608 <handle_trap+0xc4>
    80001604:	00301073          	fscsr	zero
    80001608:	00072783          	lw	a5,0(a4) # 3e000 <tohost-0x6ffb2010>
    8000160c:	10100493          	li	s1,257
    80001610:	04100513          	li	a0,65
    80001614:	00000417          	auipc	s0,0x0
    80001618:	71c40413          	addi	s0,s0,1820 # 80001d30 <pass+0x190>
    8000161c:	03049493          	slli	s1,s1,0x30
    80001620:	1af68e63          	beq	a3,a5,800017dc <handle_trap+0x298>
    80001624:	00956533          	or	a0,a0,s1
    80001628:	00140413          	addi	s0,s0,1
    8000162c:	bd1fe0ef          	jal	ra,800001fc <do_tohost>
    80001630:	00044503          	lbu	a0,0(s0)
    80001634:	fe0518e3          	bnez	a0,80001624 <handle_trap+0xe0>
    80001638:	00300513          	li	a0,3
    8000163c:	bc1fe0ef          	jal	ra,800001fc <do_tohost>
    80001640:	0000006f          	j	80001640 <handle_trap+0xfc>
    80001644:	05053d03          	ld	s10,80(a0)
    80001648:	000014b7          	lui	s1,0x1
    8000164c:	00002917          	auipc	s2,0x2
    80001650:	9b490913          	addi	s2,s2,-1612 # 80003000 <user_mapping>
    80001654:	00003997          	auipc	s3,0x3
    80001658:	9ac98993          	addi	s3,s3,-1620 # 80004000 <pt>
    8000165c:	00007b17          	auipc	s6,0x7
    80001660:	9a4b0b13          	addi	s6,s6,-1628 # 80008000 <freelist_tail>
    80001664:	00007d97          	auipc	s11,0x7
    80001668:	9a4d8d93          	addi	s11,s11,-1628 # 80008008 <freelist_head>
    8000166c:	00040c37          	lui	s8,0x40
    80001670:	ffe00bb7          	lui	s7,0xffe00
    80001674:	0003fab7          	lui	s5,0x3f
    80001678:	00c4d793          	srli	a5,s1,0xc
    8000167c:	00479413          	slli	s0,a5,0x4
    80001680:	60078713          	addi	a4,a5,1536
    80001684:	008907b3          	add	a5,s2,s0
    80001688:	0007b783          	ld	a5,0(a5)
    8000168c:	00371713          	slli	a4,a4,0x3
    80001690:	00e98733          	add	a4,s3,a4
    80001694:	08078a63          	beqz	a5,80001728 <handle_trap+0x1e4>
    80001698:	00073a03          	ld	s4,0(a4)
    8000169c:	040a7793          	andi	a5,s4,64
    800016a0:	10078463          	beqz	a5,800017a8 <handle_trap+0x264>
    800016a4:	100c2cf3          	csrrs	s9,sstatus,s8
    800016a8:	00001637          	lui	a2,0x1
    800016ac:	017485b3          	add	a1,s1,s7
    800016b0:	00048513          	mv	a0,s1
    800016b4:	00b13423          	sd	a1,8(sp)
    800016b8:	a7dff0ef          	jal	ra,80001134 <memcmp>
    800016bc:	080a7a13          	andi	s4,s4,128
    800016c0:	04050663          	beqz	a0,8000170c <handle_trap+0x1c8>
    800016c4:	00813583          	ld	a1,8(sp)
    800016c8:	00001637          	lui	a2,0x1
    800016cc:	00048513          	mv	a0,s1
    800016d0:	020a1c63          	bnez	s4,80001708 <handle_trap+0x1c4>
    800016d4:	10100493          	li	s1,257
    800016d8:	04100513          	li	a0,65
    800016dc:	00000417          	auipc	s0,0x0
    800016e0:	5f440413          	addi	s0,s0,1524 # 80001cd0 <pass+0x130>
    800016e4:	03049493          	slli	s1,s1,0x30
    800016e8:	00956533          	or	a0,a0,s1
    800016ec:	00140413          	addi	s0,s0,1
    800016f0:	b0dfe0ef          	jal	ra,800001fc <do_tohost>
    800016f4:	00044503          	lbu	a0,0(s0)
    800016f8:	fe0518e3          	bnez	a0,800016e8 <handle_trap+0x1a4>
    800016fc:	00300513          	li	a0,3
    80001700:	afdfe0ef          	jal	ra,800001fc <do_tohost>
    80001704:	0000006f          	j	80001704 <handle_trap+0x1c0>
    80001708:	8f9ff0ef          	jal	ra,80001000 <memcpy>
    8000170c:	008907b3          	add	a5,s2,s0
    80001710:	100c9073          	csrw	sstatus,s9
    80001714:	000b3703          	ld	a4,0(s6)
    80001718:	0007b023          	sd	zero,0(a5)
    8000171c:	0c070663          	beqz	a4,800017e8 <handle_trap+0x2a4>
    80001720:	00f73423          	sd	a5,8(a4)
    80001724:	00fb3023          	sd	a5,0(s6)
    80001728:	000017b7          	lui	a5,0x1
    8000172c:	00f484b3          	add	s1,s1,a5
    80001730:	f55494e3          	bne	s1,s5,80001678 <handle_trap+0x134>
    80001734:	000d051b          	sext.w	a0,s10
    80001738:	ac5fe0ef          	jal	ra,800001fc <do_tohost>
    8000173c:	0000006f          	j	8000173c <handle_trap+0x1f8>
    80001740:	10100493          	li	s1,257
    80001744:	04100513          	li	a0,65
    80001748:	00000417          	auipc	s0,0x0
    8000174c:	61840413          	addi	s0,s0,1560 # 80001d60 <pass+0x1c0>
    80001750:	03049493          	slli	s1,s1,0x30
    80001754:	00956533          	or	a0,a0,s1
    80001758:	00140413          	addi	s0,s0,1
    8000175c:	aa1fe0ef          	jal	ra,800001fc <do_tohost>
    80001760:	00044503          	lbu	a0,0(s0)
    80001764:	fe0518e3          	bnez	a0,80001754 <handle_trap+0x210>
    80001768:	00300513          	li	a0,3
    8000176c:	a91fe0ef          	jal	ra,800001fc <do_tohost>
    80001770:	0000006f          	j	80001770 <handle_trap+0x22c>
    80001774:	10100493          	li	s1,257
    80001778:	04100513          	li	a0,65
    8000177c:	00000417          	auipc	s0,0x0
    80001780:	58c40413          	addi	s0,s0,1420 # 80001d08 <pass+0x168>
    80001784:	03049493          	slli	s1,s1,0x30
    80001788:	00956533          	or	a0,a0,s1
    8000178c:	00140413          	addi	s0,s0,1
    80001790:	a6dfe0ef          	jal	ra,800001fc <do_tohost>
    80001794:	00044503          	lbu	a0,0(s0)
    80001798:	fe0518e3          	bnez	a0,80001788 <handle_trap+0x244>
    8000179c:	00300513          	li	a0,3
    800017a0:	a5dfe0ef          	jal	ra,800001fc <do_tohost>
    800017a4:	0000006f          	j	800017a4 <handle_trap+0x260>
    800017a8:	10100493          	li	s1,257
    800017ac:	04100513          	li	a0,65
    800017b0:	00000417          	auipc	s0,0x0
    800017b4:	4e840413          	addi	s0,s0,1256 # 80001c98 <pass+0xf8>
    800017b8:	03049493          	slli	s1,s1,0x30
    800017bc:	00956533          	or	a0,a0,s1
    800017c0:	00140413          	addi	s0,s0,1
    800017c4:	a39fe0ef          	jal	ra,800001fc <do_tohost>
    800017c8:	00044503          	lbu	a0,0(s0)
    800017cc:	fe0518e3          	bnez	a0,800017bc <handle_trap+0x278>
    800017d0:	00300513          	li	a0,3
    800017d4:	a29fe0ef          	jal	ra,800001fc <do_tohost>
    800017d8:	0000006f          	j	800017d8 <handle_trap+0x294>
    800017dc:	00100513          	li	a0,1
    800017e0:	a1dfe0ef          	jal	ra,800001fc <do_tohost>
    800017e4:	0000006f          	j	800017e4 <handle_trap+0x2a0>
    800017e8:	00fb3023          	sd	a5,0(s6)
    800017ec:	00fdb023          	sd	a5,0(s11)
    800017f0:	f39ff06f          	j	80001728 <handle_trap+0x1e4>

00000000800017f4 <vm_boot>:
    800017f4:	f14027f3          	csrr	a5,mhartid
    800017f8:	1c079863          	bnez	a5,800019c8 <vm_boot+0x1d4>
    800017fc:	00005797          	auipc	a5,0x5
    80001800:	80478793          	addi	a5,a5,-2044 # 80006000 <pt+0x2000>
    80001804:	00c7d793          	srli	a5,a5,0xc
    80001808:	ec010113          	addi	sp,sp,-320
    8000180c:	00003597          	auipc	a1,0x3
    80001810:	7f458593          	addi	a1,a1,2036 # 80005000 <pt+0x1000>
    80001814:	00005817          	auipc	a6,0x5
    80001818:	7ec80813          	addi	a6,a6,2028 # 80007000 <pt+0x3000>
    8000181c:	00a79793          	slli	a5,a5,0xa
    80001820:	12813823          	sd	s0,304(sp)
    80001824:	12113c23          	sd	ra,312(sp)
    80001828:	12913423          	sd	s1,296(sp)
    8000182c:	00c5d693          	srli	a3,a1,0xc
    80001830:	00c85713          	srli	a4,a6,0xc
    80001834:	0017e793          	ori	a5,a5,1
    80001838:	00002897          	auipc	a7,0x2
    8000183c:	7c888893          	addi	a7,a7,1992 # 80004000 <pt>
    80001840:	00050413          	mv	s0,a0
    80001844:	fef5bc23          	sd	a5,-8(a1)
    80001848:	fff00513          	li	a0,-1
    8000184c:	00a69693          	slli	a3,a3,0xa
    80001850:	00a71713          	slli	a4,a4,0xa
    80001854:	200007b7          	lui	a5,0x20000
    80001858:	0016e693          	ori	a3,a3,1
    8000185c:	00176713          	ori	a4,a4,1
    80001860:	00c8d613          	srli	a2,a7,0xc
    80001864:	03f51313          	slli	t1,a0,0x3f
    80001868:	0cf78793          	addi	a5,a5,207 # 200000cf <tohost-0x4ffeff41>
    8000186c:	fef83c23          	sd	a5,-8(a6)
    80001870:	00d8b023          	sd	a3,0(a7)
    80001874:	00e5b023          	sd	a4,0(a1)
    80001878:	006667b3          	or	a5,a2,t1
    8000187c:	18079073          	csrw	satp,a5
    80001880:	18002773          	csrr	a4,satp
    80001884:	10e79863          	bne	a5,a4,80001994 <vm_boot+0x1a0>
    80001888:	00b55513          	srli	a0,a0,0xb
    8000188c:	01f00793          	li	a5,31
    80001890:	00000297          	auipc	t0,0x0
    80001894:	01428293          	addi	t0,t0,20 # 800018a4 <vm_boot+0xb0>
    80001898:	305292f3          	csrrw	t0,mtvec,t0
    8000189c:	3b051073          	csrw	pmpaddr0,a0
    800018a0:	3a079073          	csrw	pmpcfg0,a5
    800018a4:	30529073          	csrw	mtvec,t0
    800018a8:	bff00813          	li	a6,-1025
    800018ac:	01581813          	slli	a6,a6,0x15
    800018b0:	fffff797          	auipc	a5,0xfffff
    800018b4:	8a078793          	addi	a5,a5,-1888 # 80000150 <trap_entry>
    800018b8:	010787b3          	add	a5,a5,a6
    800018bc:	10579073          	csrw	stvec,a5
    800018c0:	340027f3          	csrr	a5,mscratch
    800018c4:	010787b3          	add	a5,a5,a6
    800018c8:	14079073          	csrw	sscratch,a5
    800018cc:	0000b7b7          	lui	a5,0xb
    800018d0:	1007879b          	addiw	a5,a5,256
    800018d4:	30279073          	csrw	medeleg,a5
    800018d8:	0001e7b7          	lui	a5,0x1e
    800018dc:	6007879b          	addiw	a5,a5,1536
    800018e0:	30079073          	csrw	mstatus,a5
    800018e4:	30405073          	csrwi	mie,0
    800018e8:	00002717          	auipc	a4,0x2
    800018ec:	b0870713          	addi	a4,a4,-1272 # 800033f0 <freelist_nodes>
    800018f0:	3e080793          	addi	a5,a6,992
    800018f4:	010706b3          	add	a3,a4,a6
    800018f8:	00f707b3          	add	a5,a4,a5
    800018fc:	000808b7          	lui	a7,0x80
    80001900:	00006617          	auipc	a2,0x6
    80001904:	70d63423          	sd	a3,1800(a2) # 80008008 <freelist_head>
    80001908:	00002317          	auipc	t1,0x2
    8000190c:	ed830313          	addi	t1,t1,-296 # 800037e0 <freelist_nodes+0x3f0>
    80001910:	00006697          	auipc	a3,0x6
    80001914:	6ef6b823          	sd	a5,1776(a3) # 80008000 <freelist_tail>
    80001918:	03f88893          	addi	a7,a7,63 # 8003f <tohost-0x6ff6ffd1>
    8000191c:	03100793          	li	a5,49
    80001920:	01080813          	addi	a6,a6,16
    80001924:	0017d613          	srli	a2,a5,0x1
    80001928:	011786b3          	add	a3,a5,a7
    8000192c:	00f647b3          	xor	a5,a2,a5
    80001930:	010705b3          	add	a1,a4,a6
    80001934:	00c69693          	slli	a3,a3,0xc
    80001938:	00579793          	slli	a5,a5,0x5
    8000193c:	00d73023          	sd	a3,0(a4)
    80001940:	00b73423          	sd	a1,8(a4)
    80001944:	0207f793          	andi	a5,a5,32
    80001948:	01070713          	addi	a4,a4,16
    8000194c:	00f667b3          	or	a5,a2,a5
    80001950:	fce31ae3          	bne	t1,a4,80001924 <vm_boot+0x130>
    80001954:	12000613          	li	a2,288
    80001958:	00000593          	li	a1,0
    8000195c:	00010513          	mv	a0,sp
    80001960:	00002797          	auipc	a5,0x2
    80001964:	e607bc23          	sd	zero,-392(a5) # 800037d8 <freelist_nodes+0x3e8>
    80001968:	ef4ff0ef          	jal	ra,8000105c <memset>
    8000196c:	800007b7          	lui	a5,0x80000
    80001970:	00f40433          	add	s0,s0,a5
    80001974:	00010513          	mv	a0,sp
    80001978:	10813423          	sd	s0,264(sp)
    8000197c:	f4cfe0ef          	jal	ra,800000c8 <pop_tf>
    80001980:	13813083          	ld	ra,312(sp)
    80001984:	13013403          	ld	s0,304(sp)
    80001988:	12813483          	ld	s1,296(sp)
    8000198c:	14010113          	addi	sp,sp,320
    80001990:	00008067          	ret
    80001994:	10100493          	li	s1,257
    80001998:	04100513          	li	a0,65
    8000199c:	00000417          	auipc	s0,0x0
    800019a0:	3f440413          	addi	s0,s0,1012 # 80001d90 <pass+0x1f0>
    800019a4:	03049493          	slli	s1,s1,0x30
    800019a8:	00956533          	or	a0,a0,s1
    800019ac:	00140413          	addi	s0,s0,1
    800019b0:	84dfe0ef          	jal	ra,800001fc <do_tohost>
    800019b4:	00044503          	lbu	a0,0(s0)
    800019b8:	fe0518e3          	bnez	a0,800019a8 <vm_boot+0x1b4>
    800019bc:	00300513          	li	a0,3
    800019c0:	83dfe0ef          	jal	ra,800001fc <do_tohost>
    800019c4:	0000006f          	j	800019c4 <vm_boot+0x1d0>
    800019c8:	00100713          	li	a4,1
    800019cc:	0fd527b7          	lui	a5,0xfd52
    800019d0:	00080637          	lui	a2,0x80
    800019d4:	05878793          	addi	a5,a5,88 # fd52058 <tohost-0x6029dfb8>
    800019d8:	ffc60613          	addi	a2,a2,-4 # 7fffc <tohost-0x6ff70014>
    800019dc:	01f71513          	slli	a0,a4,0x1f
    800019e0:	03e71693          	slli	a3,a4,0x3e
    800019e4:	01c0006f          	j	80001a00 <vm_boot+0x20c>
    800019e8:	0007202f          	amoadd.w	zero,zero,(a4)
    800019ec:	0017d713          	srli	a4,a5,0x1
    800019f0:	00e7c7b3          	xor	a5,a5,a4
    800019f4:	03e79793          	slli	a5,a5,0x3e
    800019f8:	00d7f7b3          	and	a5,a5,a3
    800019fc:	00e7e7b3          	or	a5,a5,a4
    80001a00:	00c7f733          	and	a4,a5,a2
    80001a04:	0017f593          	andi	a1,a5,1
    80001a08:	00a70733          	add	a4,a4,a0
    80001a0c:	fc059ee3          	bnez	a1,800019e8 <vm_boot+0x1f4>
    80001a10:	00072003          	lw	zero,0(a4)
    80001a14:	fd9ff06f          	j	800019ec <vm_boot+0x1f8>

0000000080001a18 <extra_boot>:
    80001a18:	00008067          	ret

0000000080001a1c <userstart>:
    80001a1c:	00301073          	fscsr	zero

0000000080001a20 <test_2>:
    80001a20:	00200193          	li	gp,2
    80001a24:	00000517          	auipc	a0,0x0
    80001a28:	5dc50513          	addi	a0,a0,1500 # 80002000 <test_2_data>
    80001a2c:	00052007          	flw	ft0,0(a0)
    80001a30:	00452087          	flw	ft1,4(a0)
    80001a34:	00852107          	flw	ft2,8(a0)
    80001a38:	00c52683          	lw	a3,12(a0)
    80001a3c:	181071d3          	fdiv.s	ft3,ft0,ft1
    80001a40:	e0018553          	fmv.x.w	a0,ft3
    80001a44:	001015f3          	fsflags	a1,zero
    80001a48:	00100613          	li	a2,1
    80001a4c:	14d51263          	bne	a0,a3,80001b90 <fail>
    80001a50:	14c59063          	bne	a1,a2,80001b90 <fail>

0000000080001a54 <test_3>:
    80001a54:	00300193          	li	gp,3
    80001a58:	00000517          	auipc	a0,0x0
    80001a5c:	5b850513          	addi	a0,a0,1464 # 80002010 <test_3_data>
    80001a60:	00052007          	flw	ft0,0(a0)
    80001a64:	00452087          	flw	ft1,4(a0)
    80001a68:	00852107          	flw	ft2,8(a0)
    80001a6c:	00c52683          	lw	a3,12(a0)
    80001a70:	181071d3          	fdiv.s	ft3,ft0,ft1
    80001a74:	e0018553          	fmv.x.w	a0,ft3
    80001a78:	001015f3          	fsflags	a1,zero
    80001a7c:	00100613          	li	a2,1
    80001a80:	10d51863          	bne	a0,a3,80001b90 <fail>
    80001a84:	10c59663          	bne	a1,a2,80001b90 <fail>

0000000080001a88 <test_4>:
    80001a88:	00400193          	li	gp,4
    80001a8c:	00000517          	auipc	a0,0x0
    80001a90:	59450513          	addi	a0,a0,1428 # 80002020 <test_4_data>
    80001a94:	00052007          	flw	ft0,0(a0)
    80001a98:	00452087          	flw	ft1,4(a0)
    80001a9c:	00852107          	flw	ft2,8(a0)
    80001aa0:	00c52683          	lw	a3,12(a0)
    80001aa4:	181071d3          	fdiv.s	ft3,ft0,ft1
    80001aa8:	e0018553          	fmv.x.w	a0,ft3
    80001aac:	001015f3          	fsflags	a1,zero
    80001ab0:	00000613          	li	a2,0
    80001ab4:	0cd51e63          	bne	a0,a3,80001b90 <fail>
    80001ab8:	0cc59c63          	bne	a1,a2,80001b90 <fail>

0000000080001abc <test_5>:
    80001abc:	00500193          	li	gp,5
    80001ac0:	00000517          	auipc	a0,0x0
    80001ac4:	57050513          	addi	a0,a0,1392 # 80002030 <test_5_data>
    80001ac8:	00052007          	flw	ft0,0(a0)
    80001acc:	00452087          	flw	ft1,4(a0)
    80001ad0:	00852107          	flw	ft2,8(a0)
    80001ad4:	00c52683          	lw	a3,12(a0)
    80001ad8:	580071d3          	fsqrt.s	ft3,ft0
    80001adc:	e0018553          	fmv.x.w	a0,ft3
    80001ae0:	001015f3          	fsflags	a1,zero
    80001ae4:	00100613          	li	a2,1
    80001ae8:	0ad51463          	bne	a0,a3,80001b90 <fail>
    80001aec:	0ac59263          	bne	a1,a2,80001b90 <fail>

0000000080001af0 <test_6>:
    80001af0:	00600193          	li	gp,6
    80001af4:	00000517          	auipc	a0,0x0
    80001af8:	54c50513          	addi	a0,a0,1356 # 80002040 <test_6_data>
    80001afc:	00052007          	flw	ft0,0(a0)
    80001b00:	00452087          	flw	ft1,4(a0)
    80001b04:	00852107          	flw	ft2,8(a0)
    80001b08:	00c52683          	lw	a3,12(a0)
    80001b0c:	580071d3          	fsqrt.s	ft3,ft0
    80001b10:	e0018553          	fmv.x.w	a0,ft3
    80001b14:	001015f3          	fsflags	a1,zero
    80001b18:	00000613          	li	a2,0
    80001b1c:	06d51a63          	bne	a0,a3,80001b90 <fail>
    80001b20:	06c59863          	bne	a1,a2,80001b90 <fail>

0000000080001b24 <test_7>:
    80001b24:	00700193          	li	gp,7
    80001b28:	00000517          	auipc	a0,0x0
    80001b2c:	52850513          	addi	a0,a0,1320 # 80002050 <test_7_data>
    80001b30:	00052007          	flw	ft0,0(a0)
    80001b34:	00452087          	flw	ft1,4(a0)
    80001b38:	00852107          	flw	ft2,8(a0)
    80001b3c:	00c52683          	lw	a3,12(a0)
    80001b40:	580071d3          	fsqrt.s	ft3,ft0
    80001b44:	e0018553          	fmv.x.w	a0,ft3
    80001b48:	001015f3          	fsflags	a1,zero
    80001b4c:	01000613          	li	a2,16
    80001b50:	04d51063          	bne	a0,a3,80001b90 <fail>
    80001b54:	02c59e63          	bne	a1,a2,80001b90 <fail>

0000000080001b58 <test_8>:
    80001b58:	00800193          	li	gp,8
    80001b5c:	00000517          	auipc	a0,0x0
    80001b60:	50850513          	addi	a0,a0,1288 # 80002064 <test_8_data>
    80001b64:	00052007          	flw	ft0,0(a0)
    80001b68:	00452087          	flw	ft1,4(a0)
    80001b6c:	00852107          	flw	ft2,8(a0)
    80001b70:	00c52683          	lw	a3,12(a0)
    80001b74:	580071d3          	fsqrt.s	ft3,ft0
    80001b78:	e0018553          	fmv.x.w	a0,ft3
    80001b7c:	001015f3          	fsflags	a1,zero
    80001b80:	00100613          	li	a2,1
    80001b84:	00d51663          	bne	a0,a3,80001b90 <fail>
    80001b88:	00c59463          	bne	a1,a2,80001b90 <fail>
    80001b8c:	00301a63          	bne	zero,gp,80001ba0 <pass>

0000000080001b90 <fail>:
    80001b90:	00119513          	slli	a0,gp,0x1
    80001b94:	00050063          	beqz	a0,80001b94 <fail+0x4>
    80001b98:	00156513          	ori	a0,a0,1
    80001b9c:	00000073          	ecall

0000000080001ba0 <pass>:
    80001ba0:	00100513          	li	a0,1
    80001ba4:	00000073          	ecall
    80001ba8:	c0001073          	unimp
