
rv64uc-v-rvc:     file format elf64-littleriscv


Disassembly of section .text.init:

0000000080000000 <_start>:
    80000000:	0180006f          	j	80000018 <handle_reset>

0000000080000004 <nmi_vector>:
    80000004:	2580106f          	j	8000125c <wtf>

0000000080000008 <trap_vector>:
    80000008:	34202f73          	csrr	t5,mcause
    8000000c:	00900f93          	li	t6,9
    80000010:	1fff0a63          	beq	t5,t6,80000204 <write_tohost>
    80000014:	2480106f          	j	8000125c <wtf>

0000000080000018 <handle_reset>:
    80000018:	00000093          	li	ra,0
    8000001c:	00000113          	li	sp,0
    80000020:	00000193          	li	gp,0
    80000024:	00000213          	li	tp,0
    80000028:	00000293          	li	t0,0
    8000002c:	00000313          	li	t1,0
    80000030:	00000393          	li	t2,0
    80000034:	00000413          	li	s0,0
    80000038:	00000493          	li	s1,0
    8000003c:	00000513          	li	a0,0
    80000040:	00000593          	li	a1,0
    80000044:	00000613          	li	a2,0
    80000048:	00000693          	li	a3,0
    8000004c:	00000713          	li	a4,0
    80000050:	00000793          	li	a5,0
    80000054:	00000813          	li	a6,0
    80000058:	00000893          	li	a7,0
    8000005c:	00000913          	li	s2,0
    80000060:	00000993          	li	s3,0
    80000064:	00000a13          	li	s4,0
    80000068:	00000a93          	li	s5,0
    8000006c:	00000b13          	li	s6,0
    80000070:	00000b93          	li	s7,0
    80000074:	00000c13          	li	s8,0
    80000078:	00000c93          	li	s9,0
    8000007c:	00000d13          	li	s10,0
    80000080:	00000d93          	li	s11,0
    80000084:	00000e13          	li	t3,0
    80000088:	00000e93          	li	t4,0
    8000008c:	00000f13          	li	t5,0
    80000090:	00000f93          	li	t6,0
    80000094:	00000297          	auipc	t0,0x0
    80000098:	f7428293          	addi	t0,t0,-140 # 80000008 <trap_vector>
    8000009c:	30529073          	csrw	mtvec,t0
    800000a0:	0000d117          	auipc	sp,0xd
    800000a4:	e4010113          	addi	sp,sp,-448 # 8000cee0 <freelist_head+0xed8>
    800000a8:	f14022f3          	csrr	t0,mhartid
    800000ac:	00c29293          	slli	t0,t0,0xc
    800000b0:	00510133          	add	sp,sp,t0
    800000b4:	34011073          	csrw	mscratch,sp
    800000b8:	749010ef          	jal	ra,80002000 <extra_boot>
    800000bc:	00002517          	auipc	a0,0x2
    800000c0:	f4850513          	addi	a0,a0,-184 # 80002004 <userstart>
    800000c4:	7300106f          	j	800017f4 <vm_boot>

00000000800000c8 <pop_tf>:
    800000c8:	10853283          	ld	t0,264(a0)
    800000cc:	14129073          	csrw	sepc,t0
    800000d0:	00853083          	ld	ra,8(a0)
    800000d4:	01053103          	ld	sp,16(a0)
    800000d8:	01853183          	ld	gp,24(a0)
    800000dc:	02053203          	ld	tp,32(a0)
    800000e0:	02853283          	ld	t0,40(a0)
    800000e4:	03053303          	ld	t1,48(a0)
    800000e8:	03853383          	ld	t2,56(a0)
    800000ec:	04053403          	ld	s0,64(a0)
    800000f0:	04853483          	ld	s1,72(a0)
    800000f4:	05853583          	ld	a1,88(a0)
    800000f8:	06053603          	ld	a2,96(a0)
    800000fc:	06853683          	ld	a3,104(a0)
    80000100:	07053703          	ld	a4,112(a0)
    80000104:	07853783          	ld	a5,120(a0)
    80000108:	08053803          	ld	a6,128(a0)
    8000010c:	08853883          	ld	a7,136(a0)
    80000110:	09053903          	ld	s2,144(a0)
    80000114:	09853983          	ld	s3,152(a0)
    80000118:	0a053a03          	ld	s4,160(a0)
    8000011c:	0a853a83          	ld	s5,168(a0)
    80000120:	0b053b03          	ld	s6,176(a0)
    80000124:	0b853b83          	ld	s7,184(a0)
    80000128:	0c053c03          	ld	s8,192(a0)
    8000012c:	0c853c83          	ld	s9,200(a0)
    80000130:	0d053d03          	ld	s10,208(a0)
    80000134:	0d853d83          	ld	s11,216(a0)
    80000138:	0e053e03          	ld	t3,224(a0)
    8000013c:	0e853e83          	ld	t4,232(a0)
    80000140:	0f053f03          	ld	t5,240(a0)
    80000144:	0f853f83          	ld	t6,248(a0)
    80000148:	05053503          	ld	a0,80(a0)
    8000014c:	10200073          	sret

0000000080000150 <trap_entry>:
    80000150:	14011173          	csrrw	sp,sscratch,sp
    80000154:	00113423          	sd	ra,8(sp)
    80000158:	00313c23          	sd	gp,24(sp)
    8000015c:	02413023          	sd	tp,32(sp)
    80000160:	02513423          	sd	t0,40(sp)
    80000164:	02613823          	sd	t1,48(sp)
    80000168:	02713c23          	sd	t2,56(sp)
    8000016c:	04813023          	sd	s0,64(sp)
    80000170:	04913423          	sd	s1,72(sp)
    80000174:	04a13823          	sd	a0,80(sp)
    80000178:	04b13c23          	sd	a1,88(sp)
    8000017c:	06c13023          	sd	a2,96(sp)
    80000180:	06d13423          	sd	a3,104(sp)
    80000184:	06e13823          	sd	a4,112(sp)
    80000188:	06f13c23          	sd	a5,120(sp)
    8000018c:	09013023          	sd	a6,128(sp)
    80000190:	09113423          	sd	a7,136(sp)
    80000194:	09213823          	sd	s2,144(sp)
    80000198:	09313c23          	sd	s3,152(sp)
    8000019c:	0b413023          	sd	s4,160(sp)
    800001a0:	0b513423          	sd	s5,168(sp)
    800001a4:	0b613823          	sd	s6,176(sp)
    800001a8:	0b713c23          	sd	s7,184(sp)
    800001ac:	0d813023          	sd	s8,192(sp)
    800001b0:	0d913423          	sd	s9,200(sp)
    800001b4:	0da13823          	sd	s10,208(sp)
    800001b8:	0db13c23          	sd	s11,216(sp)
    800001bc:	0fc13023          	sd	t3,224(sp)
    800001c0:	0fd13423          	sd	t4,232(sp)
    800001c4:	0fe13823          	sd	t5,240(sp)
    800001c8:	0ff13c23          	sd	t6,248(sp)
    800001cc:	140112f3          	csrrw	t0,sscratch,sp
    800001d0:	00513823          	sd	t0,16(sp)
    800001d4:	100022f3          	csrr	t0,sstatus
    800001d8:	10513023          	sd	t0,256(sp)
    800001dc:	141022f3          	csrr	t0,sepc
    800001e0:	10513423          	sd	t0,264(sp)
    800001e4:	143022f3          	csrr	t0,stval
    800001e8:	10513823          	sd	t0,272(sp)
    800001ec:	142022f3          	csrr	t0,scause
    800001f0:	10513c23          	sd	t0,280(sp)
    800001f4:	00010513          	mv	a0,sp
    800001f8:	34c0106f          	j	80001544 <handle_trap>

00000000800001fc <do_tohost>:
    800001fc:	00000073          	ecall
    80000200:	00008067          	ret

0000000080000204 <write_tohost>:
    80000204:	efff0f17          	auipc	t5,0xefff0
    80000208:	e0af2623          	sw	a0,-500(t5) # 6fff0010 <tohost>
    8000020c:	ff9ff06f          	j	80000204 <write_tohost>

Disassembly of section .text:

0000000080001000 <memcpy>:
    80001000:	00b567b3          	or	a5,a0,a1
    80001004:	00c7e7b3          	or	a5,a5,a2
    80001008:	0077f793          	andi	a5,a5,7
    8000100c:	00c506b3          	add	a3,a0,a2
    80001010:	02078463          	beqz	a5,80001038 <memcpy+0x38>
    80001014:	00c58633          	add	a2,a1,a2
    80001018:	00050793          	mv	a5,a0
    8000101c:	02d57e63          	bgeu	a0,a3,80001058 <memcpy+0x58>
    80001020:	0005c703          	lbu	a4,0(a1)
    80001024:	00158593          	addi	a1,a1,1
    80001028:	00178793          	addi	a5,a5,1
    8000102c:	fee78fa3          	sb	a4,-1(a5)
    80001030:	fec598e3          	bne	a1,a2,80001020 <memcpy+0x20>
    80001034:	00008067          	ret
    80001038:	fed57ee3          	bgeu	a0,a3,80001034 <memcpy+0x34>
    8000103c:	00050793          	mv	a5,a0
    80001040:	0005b703          	ld	a4,0(a1)
    80001044:	00878793          	addi	a5,a5,8
    80001048:	00858593          	addi	a1,a1,8
    8000104c:	fee7bc23          	sd	a4,-8(a5)
    80001050:	fed7e8e3          	bltu	a5,a3,80001040 <memcpy+0x40>
    80001054:	00008067          	ret
    80001058:	00008067          	ret

000000008000105c <memset>:
    8000105c:	ff010113          	addi	sp,sp,-16
    80001060:	00c567b3          	or	a5,a0,a2
    80001064:	00813023          	sd	s0,0(sp)
    80001068:	00113423          	sd	ra,8(sp)
    8000106c:	0077f793          	andi	a5,a5,7
    80001070:	00050413          	mv	s0,a0
    80001074:	00c50733          	add	a4,a0,a2
    80001078:	02078263          	beqz	a5,8000109c <memset+0x40>
    8000107c:	00e57663          	bgeu	a0,a4,80001088 <memset+0x2c>
    80001080:	0ff5f593          	zext.b	a1,a1
    80001084:	fd9ff0ef          	jal	ra,8000105c <memset>
    80001088:	00813083          	ld	ra,8(sp)
    8000108c:	00040513          	mv	a0,s0
    80001090:	00013403          	ld	s0,0(sp)
    80001094:	01010113          	addi	sp,sp,16
    80001098:	00008067          	ret
    8000109c:	0ff5f593          	zext.b	a1,a1
    800010a0:	00859693          	slli	a3,a1,0x8
    800010a4:	00b6e6b3          	or	a3,a3,a1
    800010a8:	01069793          	slli	a5,a3,0x10
    800010ac:	00d7e7b3          	or	a5,a5,a3
    800010b0:	02079693          	slli	a3,a5,0x20
    800010b4:	00f6e6b3          	or	a3,a3,a5
    800010b8:	fce578e3          	bgeu	a0,a4,80001088 <memset+0x2c>
    800010bc:	00050793          	mv	a5,a0
    800010c0:	00878793          	addi	a5,a5,8
    800010c4:	fed7bc23          	sd	a3,-8(a5)
    800010c8:	fee7ece3          	bltu	a5,a4,800010c0 <memset+0x64>
    800010cc:	00813083          	ld	ra,8(sp)
    800010d0:	00040513          	mv	a0,s0
    800010d4:	00013403          	ld	s0,0(sp)
    800010d8:	01010113          	addi	sp,sp,16
    800010dc:	00008067          	ret

00000000800010e0 <strlen>:
    800010e0:	00054783          	lbu	a5,0(a0)
    800010e4:	00078e63          	beqz	a5,80001100 <strlen+0x20>
    800010e8:	00050793          	mv	a5,a0
    800010ec:	0017c703          	lbu	a4,1(a5)
    800010f0:	00178793          	addi	a5,a5,1
    800010f4:	fe071ce3          	bnez	a4,800010ec <strlen+0xc>
    800010f8:	40a78533          	sub	a0,a5,a0
    800010fc:	00008067          	ret
    80001100:	00000513          	li	a0,0
    80001104:	00008067          	ret

0000000080001108 <strcmp>:
    80001108:	00054783          	lbu	a5,0(a0)
    8000110c:	00158593          	addi	a1,a1,1
    80001110:	00150513          	addi	a0,a0,1
    80001114:	fff5c703          	lbu	a4,-1(a1)
    80001118:	00078a63          	beqz	a5,8000112c <strcmp+0x24>
    8000111c:	fee786e3          	beq	a5,a4,80001108 <strcmp>
    80001120:	0007851b          	sext.w	a0,a5
    80001124:	40e5053b          	subw	a0,a0,a4
    80001128:	00008067          	ret
    8000112c:	00000513          	li	a0,0
    80001130:	ff5ff06f          	j	80001124 <strcmp+0x1c>

0000000080001134 <memcmp>:
    80001134:	00b567b3          	or	a5,a0,a1
    80001138:	0077f793          	andi	a5,a5,7
    8000113c:	02079e63          	bnez	a5,80001178 <memcmp+0x44>
    80001140:	ff867813          	andi	a6,a2,-8
    80001144:	01050833          	add	a6,a0,a6
    80001148:	03057863          	bgeu	a0,a6,80001178 <memcmp+0x44>
    8000114c:	00050793          	mv	a5,a0
    80001150:	0100006f          	j	80001160 <memcmp+0x2c>
    80001154:	00878793          	addi	a5,a5,8
    80001158:	00858593          	addi	a1,a1,8
    8000115c:	0107f863          	bgeu	a5,a6,8000116c <memcmp+0x38>
    80001160:	0007b683          	ld	a3,0(a5)
    80001164:	0005b703          	ld	a4,0(a1)
    80001168:	fee686e3          	beq	a3,a4,80001154 <memcmp+0x20>
    8000116c:	40a78533          	sub	a0,a5,a0
    80001170:	40a60633          	sub	a2,a2,a0
    80001174:	00078513          	mv	a0,a5
    80001178:	00c58633          	add	a2,a1,a2
    8000117c:	0140006f          	j	80001190 <memcmp+0x5c>
    80001180:	0005c703          	lbu	a4,0(a1)
    80001184:	fff54783          	lbu	a5,-1(a0)
    80001188:	00158593          	addi	a1,a1,1
    8000118c:	00e79a63          	bne	a5,a4,800011a0 <memcmp+0x6c>
    80001190:	00150513          	addi	a0,a0,1
    80001194:	fec596e3          	bne	a1,a2,80001180 <memcmp+0x4c>
    80001198:	00000513          	li	a0,0
    8000119c:	00008067          	ret
    800011a0:	40e7853b          	subw	a0,a5,a4
    800011a4:	00008067          	ret

00000000800011a8 <strcpy>:
    800011a8:	00050793          	mv	a5,a0
    800011ac:	0005c703          	lbu	a4,0(a1)
    800011b0:	00178793          	addi	a5,a5,1
    800011b4:	00158593          	addi	a1,a1,1
    800011b8:	fee78fa3          	sb	a4,-1(a5)
    800011bc:	fe0718e3          	bnez	a4,800011ac <strcpy+0x4>
    800011c0:	00008067          	ret

00000000800011c4 <atol>:
    800011c4:	00054703          	lbu	a4,0(a0)
    800011c8:	02000693          	li	a3,32
    800011cc:	00050793          	mv	a5,a0
    800011d0:	00d71863          	bne	a4,a3,800011e0 <atol+0x1c>
    800011d4:	0017c703          	lbu	a4,1(a5)
    800011d8:	00178793          	addi	a5,a5,1
    800011dc:	fed70ce3          	beq	a4,a3,800011d4 <atol+0x10>
    800011e0:	02d00693          	li	a3,45
    800011e4:	06d70063          	beq	a4,a3,80001244 <atol+0x80>
    800011e8:	02b00693          	li	a3,43
    800011ec:	04d70063          	beq	a4,a3,8000122c <atol+0x68>
    800011f0:	0007c683          	lbu	a3,0(a5)
    800011f4:	00000593          	li	a1,0
    800011f8:	04068263          	beqz	a3,8000123c <atol+0x78>
    800011fc:	00000513          	li	a0,0
    80001200:	00178793          	addi	a5,a5,1
    80001204:	00251713          	slli	a4,a0,0x2
    80001208:	fd06861b          	addiw	a2,a3,-48
    8000120c:	0007c683          	lbu	a3,0(a5)
    80001210:	00a70733          	add	a4,a4,a0
    80001214:	00171713          	slli	a4,a4,0x1
    80001218:	00e60533          	add	a0,a2,a4
    8000121c:	fe0692e3          	bnez	a3,80001200 <atol+0x3c>
    80001220:	02058063          	beqz	a1,80001240 <atol+0x7c>
    80001224:	40a00533          	neg	a0,a0
    80001228:	00008067          	ret
    8000122c:	0017c683          	lbu	a3,1(a5)
    80001230:	00000593          	li	a1,0
    80001234:	00178793          	addi	a5,a5,1
    80001238:	fc0692e3          	bnez	a3,800011fc <atol+0x38>
    8000123c:	00000513          	li	a0,0
    80001240:	00008067          	ret
    80001244:	0017c683          	lbu	a3,1(a5)
    80001248:	00100593          	li	a1,1
    8000124c:	00178793          	addi	a5,a5,1
    80001250:	fa0696e3          	bnez	a3,800011fc <atol+0x38>
    80001254:	00000513          	li	a0,0
    80001258:	fe9ff06f          	j	80001240 <atol+0x7c>

000000008000125c <wtf>:
    8000125c:	ff010113          	addi	sp,sp,-16
    80001260:	34900513          	li	a0,841
    80001264:	00113423          	sd	ra,8(sp)
    80001268:	f95fe0ef          	jal	ra,800001fc <do_tohost>
    8000126c:	0000006f          	j	8000126c <wtf+0x10>

0000000080001270 <printhex>:
    80001270:	fc010113          	addi	sp,sp,-64
    80001274:	02813823          	sd	s0,48(sp)
    80001278:	02113c23          	sd	ra,56(sp)
    8000127c:	02913423          	sd	s1,40(sp)
    80001280:	00810413          	addi	s0,sp,8
    80001284:	01710693          	addi	a3,sp,23
    80001288:	00900593          	li	a1,9
    8000128c:	0080006f          	j	80001294 <printhex+0x24>
    80001290:	00078693          	mv	a3,a5
    80001294:	00f57713          	andi	a4,a0,15
    80001298:	00070793          	mv	a5,a4
    8000129c:	03000613          	li	a2,48
    800012a0:	00e5f463          	bgeu	a1,a4,800012a8 <printhex+0x38>
    800012a4:	05700613          	li	a2,87
    800012a8:	00c787bb          	addw	a5,a5,a2
    800012ac:	00f68023          	sb	a5,0(a3)
    800012b0:	00455513          	srli	a0,a0,0x4
    800012b4:	fff68793          	addi	a5,a3,-1
    800012b8:	fcd41ce3          	bne	s0,a3,80001290 <printhex+0x20>
    800012bc:	00814503          	lbu	a0,8(sp)
    800012c0:	00010c23          	sb	zero,24(sp)
    800012c4:	02050063          	beqz	a0,800012e4 <printhex+0x74>
    800012c8:	10100493          	li	s1,257
    800012cc:	03049493          	slli	s1,s1,0x30
    800012d0:	00956533          	or	a0,a0,s1
    800012d4:	00140413          	addi	s0,s0,1
    800012d8:	f25fe0ef          	jal	ra,800001fc <do_tohost>
    800012dc:	00044503          	lbu	a0,0(s0)
    800012e0:	fe0518e3          	bnez	a0,800012d0 <printhex+0x60>
    800012e4:	03813083          	ld	ra,56(sp)
    800012e8:	03013403          	ld	s0,48(sp)
    800012ec:	02813483          	ld	s1,40(sp)
    800012f0:	04010113          	addi	sp,sp,64
    800012f4:	00008067          	ret

00000000800012f8 <handle_fault>:
    800012f8:	fe010113          	addi	sp,sp,-32
    800012fc:	fffff7b7          	lui	a5,0xfffff
    80001300:	00113c23          	sd	ra,24(sp)
    80001304:	00813823          	sd	s0,16(sp)
    80001308:	00913423          	sd	s1,8(sp)
    8000130c:	00f506b3          	add	a3,a0,a5
    80001310:	0003e737          	lui	a4,0x3e
    80001314:	14e6fc63          	bgeu	a3,a4,8000146c <handle_fault+0x174>
    80001318:	00c55813          	srli	a6,a0,0xc
    8000131c:	60080713          	addi	a4,a6,1536
    80001320:	00007617          	auipc	a2,0x7
    80001324:	ce060613          	addi	a2,a2,-800 # 80008000 <pt>
    80001328:	00371693          	slli	a3,a4,0x3
    8000132c:	00d606b3          	add	a3,a2,a3
    80001330:	0006b683          	ld	a3,0(a3)
    80001334:	00f57533          	and	a0,a0,a5
    80001338:	04068863          	beqz	a3,80001388 <handle_fault+0x90>
    8000133c:	0406f793          	andi	a5,a3,64
    80001340:	1a078063          	beqz	a5,800014e0 <handle_fault+0x1e8>
    80001344:	0806f793          	andi	a5,a3,128
    80001348:	00079663          	bnez	a5,80001354 <handle_fault+0x5c>
    8000134c:	00f00793          	li	a5,15
    80001350:	1ef58663          	beq	a1,a5,8000153c <handle_fault+0x244>
    80001354:	10100493          	li	s1,257
    80001358:	04100513          	li	a0,65
    8000135c:	00004417          	auipc	s0,0x4
    80001360:	cb440413          	addi	s0,s0,-844 # 80005010 <pass+0xd3c>
    80001364:	03049493          	slli	s1,s1,0x30
    80001368:	00956533          	or	a0,a0,s1
    8000136c:	00140413          	addi	s0,s0,1
    80001370:	e8dfe0ef          	jal	ra,800001fc <do_tohost>
    80001374:	00044503          	lbu	a0,0(s0)
    80001378:	fe0518e3          	bnez	a0,80001368 <handle_fault+0x70>
    8000137c:	00300513          	li	a0,3
    80001380:	e7dfe0ef          	jal	ra,800001fc <do_tohost>
    80001384:	0000006f          	j	80001384 <handle_fault+0x8c>
    80001388:	0000b697          	auipc	a3,0xb
    8000138c:	c8068693          	addi	a3,a3,-896 # 8000c008 <freelist_head>
    80001390:	0006b783          	ld	a5,0(a3)
    80001394:	16078a63          	beqz	a5,80001508 <handle_fault+0x210>
    80001398:	0087b583          	ld	a1,8(a5) # fffffffffffff008 <freelist_head+0xffffffff7fff3000>
    8000139c:	0000b897          	auipc	a7,0xb
    800013a0:	c648b883          	ld	a7,-924(a7) # 8000c000 <freelist_tail>
    800013a4:	00b6b023          	sd	a1,0(a3)
    800013a8:	13158663          	beq	a1,a7,800014d4 <handle_fault+0x1dc>
    800013ac:	0007b583          	ld	a1,0(a5)
    800013b0:	00371693          	slli	a3,a4,0x3
    800013b4:	00d606b3          	add	a3,a2,a3
    800013b8:	00c5d593          	srli	a1,a1,0xc
    800013bc:	00a59593          	slli	a1,a1,0xa
    800013c0:	0df5e893          	ori	a7,a1,223
    800013c4:	0116b023          	sd	a7,0(a3)
    800013c8:	12050073          	sfence.vma	a0
    800013cc:	00006697          	auipc	a3,0x6
    800013d0:	c3468693          	addi	a3,a3,-972 # 80007000 <user_mapping>
    800013d4:	00481813          	slli	a6,a6,0x4
    800013d8:	010686b3          	add	a3,a3,a6
    800013dc:	0006b803          	ld	a6,0(a3)
    800013e0:	0c081063          	bnez	a6,800014a0 <handle_fault+0x1a8>
    800013e4:	0007b803          	ld	a6,0(a5)
    800013e8:	00040f37          	lui	t5,0x40
    800013ec:	0106b023          	sd	a6,0(a3)
    800013f0:	0087b783          	ld	a5,8(a5)
    800013f4:	00f6b423          	sd	a5,8(a3)
    800013f8:	100f2f73          	csrrs	t5,sstatus,t5
    800013fc:	ffe007b7          	lui	a5,0xffe00
    80001400:	00f507b3          	add	a5,a0,a5
    80001404:	00001837          	lui	a6,0x1
    80001408:	00050693          	mv	a3,a0
    8000140c:	01078833          	add	a6,a5,a6
    80001410:	0007be83          	ld	t4,0(a5) # ffffffffffe00000 <freelist_head+0xffffffff7fdf3ff8>
    80001414:	0087be03          	ld	t3,8(a5)
    80001418:	0107b303          	ld	t1,16(a5)
    8000141c:	0187b883          	ld	a7,24(a5)
    80001420:	01d6b023          	sd	t4,0(a3)
    80001424:	01c6b423          	sd	t3,8(a3)
    80001428:	0066b823          	sd	t1,16(a3)
    8000142c:	0116bc23          	sd	a7,24(a3)
    80001430:	02078793          	addi	a5,a5,32
    80001434:	02068693          	addi	a3,a3,32
    80001438:	fd079ce3          	bne	a5,a6,80001410 <handle_fault+0x118>
    8000143c:	100f1073          	csrw	sstatus,t5
    80001440:	00371713          	slli	a4,a4,0x3
    80001444:	00e607b3          	add	a5,a2,a4
    80001448:	01f5e593          	ori	a1,a1,31
    8000144c:	00b7b023          	sd	a1,0(a5)
    80001450:	12050073          	sfence.vma	a0
    80001454:	0000100f          	fence.i
    80001458:	01813083          	ld	ra,24(sp)
    8000145c:	01013403          	ld	s0,16(sp)
    80001460:	00813483          	ld	s1,8(sp)
    80001464:	02010113          	addi	sp,sp,32
    80001468:	00008067          	ret
    8000146c:	10100493          	li	s1,257
    80001470:	04100513          	li	a0,65
    80001474:	00004417          	auipc	s0,0x4
    80001478:	b5440413          	addi	s0,s0,-1196 # 80004fc8 <pass+0xcf4>
    8000147c:	03049493          	slli	s1,s1,0x30
    80001480:	00956533          	or	a0,a0,s1
    80001484:	00140413          	addi	s0,s0,1
    80001488:	d75fe0ef          	jal	ra,800001fc <do_tohost>
    8000148c:	00044503          	lbu	a0,0(s0)
    80001490:	fe0518e3          	bnez	a0,80001480 <handle_fault+0x188>
    80001494:	00300513          	li	a0,3
    80001498:	d65fe0ef          	jal	ra,800001fc <do_tohost>
    8000149c:	0000006f          	j	8000149c <handle_fault+0x1a4>
    800014a0:	10100493          	li	s1,257
    800014a4:	04100513          	li	a0,65
    800014a8:	00004417          	auipc	s0,0x4
    800014ac:	bc840413          	addi	s0,s0,-1080 # 80005070 <pass+0xd9c>
    800014b0:	03049493          	slli	s1,s1,0x30
    800014b4:	00956533          	or	a0,a0,s1
    800014b8:	00140413          	addi	s0,s0,1
    800014bc:	d41fe0ef          	jal	ra,800001fc <do_tohost>
    800014c0:	00044503          	lbu	a0,0(s0)
    800014c4:	fe0518e3          	bnez	a0,800014b4 <handle_fault+0x1bc>
    800014c8:	00300513          	li	a0,3
    800014cc:	d31fe0ef          	jal	ra,800001fc <do_tohost>
    800014d0:	0000006f          	j	800014d0 <handle_fault+0x1d8>
    800014d4:	0000b697          	auipc	a3,0xb
    800014d8:	b206b623          	sd	zero,-1236(a3) # 8000c000 <freelist_tail>
    800014dc:	ed1ff06f          	j	800013ac <handle_fault+0xb4>
    800014e0:	0406e693          	ori	a3,a3,64
    800014e4:	00371793          	slli	a5,a4,0x3
    800014e8:	00f607b3          	add	a5,a2,a5
    800014ec:	00d7b023          	sd	a3,0(a5)
    800014f0:	12050073          	sfence.vma	a0
    800014f4:	01813083          	ld	ra,24(sp)
    800014f8:	01013403          	ld	s0,16(sp)
    800014fc:	00813483          	ld	s1,8(sp)
    80001500:	02010113          	addi	sp,sp,32
    80001504:	00008067          	ret
    80001508:	10100493          	li	s1,257
    8000150c:	04100513          	li	a0,65
    80001510:	00004417          	auipc	s0,0x4
    80001514:	b4840413          	addi	s0,s0,-1208 # 80005058 <pass+0xd84>
    80001518:	03049493          	slli	s1,s1,0x30
    8000151c:	00956533          	or	a0,a0,s1
    80001520:	00140413          	addi	s0,s0,1
    80001524:	cd9fe0ef          	jal	ra,800001fc <do_tohost>
    80001528:	00044503          	lbu	a0,0(s0)
    8000152c:	fe0518e3          	bnez	a0,8000151c <handle_fault+0x224>
    80001530:	00300513          	li	a0,3
    80001534:	cc9fe0ef          	jal	ra,800001fc <do_tohost>
    80001538:	0000006f          	j	80001538 <handle_fault+0x240>
    8000153c:	0806e693          	ori	a3,a3,128
    80001540:	fa5ff06f          	j	800014e4 <handle_fault+0x1ec>

0000000080001544 <handle_trap>:
    80001544:	11853583          	ld	a1,280(a0)
    80001548:	f8010113          	addi	sp,sp,-128
    8000154c:	06813823          	sd	s0,112(sp)
    80001550:	06113c23          	sd	ra,120(sp)
    80001554:	06913423          	sd	s1,104(sp)
    80001558:	07213023          	sd	s2,96(sp)
    8000155c:	05313c23          	sd	s3,88(sp)
    80001560:	05413823          	sd	s4,80(sp)
    80001564:	05513423          	sd	s5,72(sp)
    80001568:	05613023          	sd	s6,64(sp)
    8000156c:	03713c23          	sd	s7,56(sp)
    80001570:	03813823          	sd	s8,48(sp)
    80001574:	03913423          	sd	s9,40(sp)
    80001578:	03a13023          	sd	s10,32(sp)
    8000157c:	01b13c23          	sd	s11,24(sp)
    80001580:	00800793          	li	a5,8
    80001584:	00050413          	mv	s0,a0
    80001588:	0af58e63          	beq	a1,a5,80001644 <handle_trap+0x100>
    8000158c:	00200793          	li	a5,2
    80001590:	06f58063          	beq	a1,a5,800015f0 <handle_trap+0xac>
    80001594:	ff458793          	addi	a5,a1,-12
    80001598:	00100713          	li	a4,1
    8000159c:	00f77663          	bgeu	a4,a5,800015a8 <handle_trap+0x64>
    800015a0:	00f00793          	li	a5,15
    800015a4:	18f59e63          	bne	a1,a5,80001740 <handle_trap+0x1fc>
    800015a8:	11043503          	ld	a0,272(s0)
    800015ac:	d4dff0ef          	jal	ra,800012f8 <handle_fault>
    800015b0:	00040513          	mv	a0,s0
    800015b4:	07013403          	ld	s0,112(sp)
    800015b8:	07813083          	ld	ra,120(sp)
    800015bc:	06813483          	ld	s1,104(sp)
    800015c0:	06013903          	ld	s2,96(sp)
    800015c4:	05813983          	ld	s3,88(sp)
    800015c8:	05013a03          	ld	s4,80(sp)
    800015cc:	04813a83          	ld	s5,72(sp)
    800015d0:	04013b03          	ld	s6,64(sp)
    800015d4:	03813b83          	ld	s7,56(sp)
    800015d8:	03013c03          	ld	s8,48(sp)
    800015dc:	02813c83          	ld	s9,40(sp)
    800015e0:	02013d03          	ld	s10,32(sp)
    800015e4:	01813d83          	ld	s11,24(sp)
    800015e8:	08010113          	addi	sp,sp,128
    800015ec:	addfe06f          	j	800000c8 <pop_tf>
    800015f0:	10853783          	ld	a5,264(a0)
    800015f4:	0037f713          	andi	a4,a5,3
    800015f8:	16071e63          	bnez	a4,80001774 <handle_trap+0x230>
    800015fc:	0007a683          	lw	a3,0(a5)
    80001600:	0080076f          	jal	a4,80001608 <handle_trap+0xc4>
    80001604:	00301073          	fscsr	zero
    80001608:	00072783          	lw	a5,0(a4) # 3e000 <tohost-0x6ffb2010>
    8000160c:	10100493          	li	s1,257
    80001610:	04100513          	li	a0,65
    80001614:	00004417          	auipc	s0,0x4
    80001618:	b3440413          	addi	s0,s0,-1228 # 80005148 <pass+0xe74>
    8000161c:	03049493          	slli	s1,s1,0x30
    80001620:	1af68e63          	beq	a3,a5,800017dc <handle_trap+0x298>
    80001624:	00956533          	or	a0,a0,s1
    80001628:	00140413          	addi	s0,s0,1
    8000162c:	bd1fe0ef          	jal	ra,800001fc <do_tohost>
    80001630:	00044503          	lbu	a0,0(s0)
    80001634:	fe0518e3          	bnez	a0,80001624 <handle_trap+0xe0>
    80001638:	00300513          	li	a0,3
    8000163c:	bc1fe0ef          	jal	ra,800001fc <do_tohost>
    80001640:	0000006f          	j	80001640 <handle_trap+0xfc>
    80001644:	05053d03          	ld	s10,80(a0)
    80001648:	000014b7          	lui	s1,0x1
    8000164c:	00006917          	auipc	s2,0x6
    80001650:	9b490913          	addi	s2,s2,-1612 # 80007000 <user_mapping>
    80001654:	00007997          	auipc	s3,0x7
    80001658:	9ac98993          	addi	s3,s3,-1620 # 80008000 <pt>
    8000165c:	0000bb17          	auipc	s6,0xb
    80001660:	9a4b0b13          	addi	s6,s6,-1628 # 8000c000 <freelist_tail>
    80001664:	0000bd97          	auipc	s11,0xb
    80001668:	9a4d8d93          	addi	s11,s11,-1628 # 8000c008 <freelist_head>
    8000166c:	00040c37          	lui	s8,0x40
    80001670:	ffe00bb7          	lui	s7,0xffe00
    80001674:	0003fab7          	lui	s5,0x3f
    80001678:	00c4d793          	srli	a5,s1,0xc
    8000167c:	00479413          	slli	s0,a5,0x4
    80001680:	60078713          	addi	a4,a5,1536
    80001684:	008907b3          	add	a5,s2,s0
    80001688:	0007b783          	ld	a5,0(a5)
    8000168c:	00371713          	slli	a4,a4,0x3
    80001690:	00e98733          	add	a4,s3,a4
    80001694:	08078a63          	beqz	a5,80001728 <handle_trap+0x1e4>
    80001698:	00073a03          	ld	s4,0(a4)
    8000169c:	040a7793          	andi	a5,s4,64
    800016a0:	10078463          	beqz	a5,800017a8 <handle_trap+0x264>
    800016a4:	100c2cf3          	csrrs	s9,sstatus,s8
    800016a8:	00001637          	lui	a2,0x1
    800016ac:	017485b3          	add	a1,s1,s7
    800016b0:	00048513          	mv	a0,s1
    800016b4:	00b13423          	sd	a1,8(sp)
    800016b8:	a7dff0ef          	jal	ra,80001134 <memcmp>
    800016bc:	080a7a13          	andi	s4,s4,128
    800016c0:	04050663          	beqz	a0,8000170c <handle_trap+0x1c8>
    800016c4:	00813583          	ld	a1,8(sp)
    800016c8:	00001637          	lui	a2,0x1
    800016cc:	00048513          	mv	a0,s1
    800016d0:	020a1c63          	bnez	s4,80001708 <handle_trap+0x1c4>
    800016d4:	10100493          	li	s1,257
    800016d8:	04100513          	li	a0,65
    800016dc:	00004417          	auipc	s0,0x4
    800016e0:	a0c40413          	addi	s0,s0,-1524 # 800050e8 <pass+0xe14>
    800016e4:	03049493          	slli	s1,s1,0x30
    800016e8:	00956533          	or	a0,a0,s1
    800016ec:	00140413          	addi	s0,s0,1
    800016f0:	b0dfe0ef          	jal	ra,800001fc <do_tohost>
    800016f4:	00044503          	lbu	a0,0(s0)
    800016f8:	fe0518e3          	bnez	a0,800016e8 <handle_trap+0x1a4>
    800016fc:	00300513          	li	a0,3
    80001700:	afdfe0ef          	jal	ra,800001fc <do_tohost>
    80001704:	0000006f          	j	80001704 <handle_trap+0x1c0>
    80001708:	8f9ff0ef          	jal	ra,80001000 <memcpy>
    8000170c:	008907b3          	add	a5,s2,s0
    80001710:	100c9073          	csrw	sstatus,s9
    80001714:	000b3703          	ld	a4,0(s6)
    80001718:	0007b023          	sd	zero,0(a5)
    8000171c:	0c070663          	beqz	a4,800017e8 <handle_trap+0x2a4>
    80001720:	00f73423          	sd	a5,8(a4)
    80001724:	00fb3023          	sd	a5,0(s6)
    80001728:	000017b7          	lui	a5,0x1
    8000172c:	00f484b3          	add	s1,s1,a5
    80001730:	f55494e3          	bne	s1,s5,80001678 <handle_trap+0x134>
    80001734:	000d051b          	sext.w	a0,s10
    80001738:	ac5fe0ef          	jal	ra,800001fc <do_tohost>
    8000173c:	0000006f          	j	8000173c <handle_trap+0x1f8>
    80001740:	10100493          	li	s1,257
    80001744:	04100513          	li	a0,65
    80001748:	00004417          	auipc	s0,0x4
    8000174c:	a3040413          	addi	s0,s0,-1488 # 80005178 <pass+0xea4>
    80001750:	03049493          	slli	s1,s1,0x30
    80001754:	00956533          	or	a0,a0,s1
    80001758:	00140413          	addi	s0,s0,1
    8000175c:	aa1fe0ef          	jal	ra,800001fc <do_tohost>
    80001760:	00044503          	lbu	a0,0(s0)
    80001764:	fe0518e3          	bnez	a0,80001754 <handle_trap+0x210>
    80001768:	00300513          	li	a0,3
    8000176c:	a91fe0ef          	jal	ra,800001fc <do_tohost>
    80001770:	0000006f          	j	80001770 <handle_trap+0x22c>
    80001774:	10100493          	li	s1,257
    80001778:	04100513          	li	a0,65
    8000177c:	00004417          	auipc	s0,0x4
    80001780:	9a440413          	addi	s0,s0,-1628 # 80005120 <pass+0xe4c>
    80001784:	03049493          	slli	s1,s1,0x30
    80001788:	00956533          	or	a0,a0,s1
    8000178c:	00140413          	addi	s0,s0,1
    80001790:	a6dfe0ef          	jal	ra,800001fc <do_tohost>
    80001794:	00044503          	lbu	a0,0(s0)
    80001798:	fe0518e3          	bnez	a0,80001788 <handle_trap+0x244>
    8000179c:	00300513          	li	a0,3
    800017a0:	a5dfe0ef          	jal	ra,800001fc <do_tohost>
    800017a4:	0000006f          	j	800017a4 <handle_trap+0x260>
    800017a8:	10100493          	li	s1,257
    800017ac:	04100513          	li	a0,65
    800017b0:	00004417          	auipc	s0,0x4
    800017b4:	90040413          	addi	s0,s0,-1792 # 800050b0 <pass+0xddc>
    800017b8:	03049493          	slli	s1,s1,0x30
    800017bc:	00956533          	or	a0,a0,s1
    800017c0:	00140413          	addi	s0,s0,1
    800017c4:	a39fe0ef          	jal	ra,800001fc <do_tohost>
    800017c8:	00044503          	lbu	a0,0(s0)
    800017cc:	fe0518e3          	bnez	a0,800017bc <handle_trap+0x278>
    800017d0:	00300513          	li	a0,3
    800017d4:	a29fe0ef          	jal	ra,800001fc <do_tohost>
    800017d8:	0000006f          	j	800017d8 <handle_trap+0x294>
    800017dc:	00100513          	li	a0,1
    800017e0:	a1dfe0ef          	jal	ra,800001fc <do_tohost>
    800017e4:	0000006f          	j	800017e4 <handle_trap+0x2a0>
    800017e8:	00fb3023          	sd	a5,0(s6)
    800017ec:	00fdb023          	sd	a5,0(s11)
    800017f0:	f39ff06f          	j	80001728 <handle_trap+0x1e4>

00000000800017f4 <vm_boot>:
    800017f4:	f14027f3          	csrr	a5,mhartid
    800017f8:	1c079863          	bnez	a5,800019c8 <vm_boot+0x1d4>
    800017fc:	00009797          	auipc	a5,0x9
    80001800:	80478793          	addi	a5,a5,-2044 # 8000a000 <pt+0x2000>
    80001804:	00c7d793          	srli	a5,a5,0xc
    80001808:	ec010113          	addi	sp,sp,-320
    8000180c:	00007597          	auipc	a1,0x7
    80001810:	7f458593          	addi	a1,a1,2036 # 80009000 <pt+0x1000>
    80001814:	00009817          	auipc	a6,0x9
    80001818:	7ec80813          	addi	a6,a6,2028 # 8000b000 <pt+0x3000>
    8000181c:	00a79793          	slli	a5,a5,0xa
    80001820:	12813823          	sd	s0,304(sp)
    80001824:	12113c23          	sd	ra,312(sp)
    80001828:	12913423          	sd	s1,296(sp)
    8000182c:	00c5d693          	srli	a3,a1,0xc
    80001830:	00c85713          	srli	a4,a6,0xc
    80001834:	0017e793          	ori	a5,a5,1
    80001838:	00006897          	auipc	a7,0x6
    8000183c:	7c888893          	addi	a7,a7,1992 # 80008000 <pt>
    80001840:	00050413          	mv	s0,a0
    80001844:	fef5bc23          	sd	a5,-8(a1)
    80001848:	fff00513          	li	a0,-1
    8000184c:	00a69693          	slli	a3,a3,0xa
    80001850:	00a71713          	slli	a4,a4,0xa
    80001854:	200007b7          	lui	a5,0x20000
    80001858:	0016e693          	ori	a3,a3,1
    8000185c:	00176713          	ori	a4,a4,1
    80001860:	00c8d613          	srli	a2,a7,0xc
    80001864:	03f51313          	slli	t1,a0,0x3f
    80001868:	0cf78793          	addi	a5,a5,207 # 200000cf <tohost-0x4ffeff41>
    8000186c:	fef83c23          	sd	a5,-8(a6)
    80001870:	00d8b023          	sd	a3,0(a7)
    80001874:	00e5b023          	sd	a4,0(a1)
    80001878:	006667b3          	or	a5,a2,t1
    8000187c:	18079073          	csrw	satp,a5
    80001880:	18002773          	csrr	a4,satp
    80001884:	10e79863          	bne	a5,a4,80001994 <vm_boot+0x1a0>
    80001888:	00b55513          	srli	a0,a0,0xb
    8000188c:	01f00793          	li	a5,31
    80001890:	00000297          	auipc	t0,0x0
    80001894:	01428293          	addi	t0,t0,20 # 800018a4 <vm_boot+0xb0>
    80001898:	305292f3          	csrrw	t0,mtvec,t0
    8000189c:	3b051073          	csrw	pmpaddr0,a0
    800018a0:	3a079073          	csrw	pmpcfg0,a5
    800018a4:	30529073          	csrw	mtvec,t0
    800018a8:	bff00813          	li	a6,-1025
    800018ac:	01581813          	slli	a6,a6,0x15
    800018b0:	fffff797          	auipc	a5,0xfffff
    800018b4:	8a078793          	addi	a5,a5,-1888 # 80000150 <trap_entry>
    800018b8:	010787b3          	add	a5,a5,a6
    800018bc:	10579073          	csrw	stvec,a5
    800018c0:	340027f3          	csrr	a5,mscratch
    800018c4:	010787b3          	add	a5,a5,a6
    800018c8:	14079073          	csrw	sscratch,a5
    800018cc:	0000b7b7          	lui	a5,0xb
    800018d0:	1007879b          	addiw	a5,a5,256
    800018d4:	30279073          	csrw	medeleg,a5
    800018d8:	0001e7b7          	lui	a5,0x1e
    800018dc:	6007879b          	addiw	a5,a5,1536
    800018e0:	30079073          	csrw	mstatus,a5
    800018e4:	30405073          	csrwi	mie,0
    800018e8:	00006717          	auipc	a4,0x6
    800018ec:	b0870713          	addi	a4,a4,-1272 # 800073f0 <freelist_nodes>
    800018f0:	3e080793          	addi	a5,a6,992
    800018f4:	010706b3          	add	a3,a4,a6
    800018f8:	00f707b3          	add	a5,a4,a5
    800018fc:	000808b7          	lui	a7,0x80
    80001900:	0000a617          	auipc	a2,0xa
    80001904:	70d63423          	sd	a3,1800(a2) # 8000c008 <freelist_head>
    80001908:	00006317          	auipc	t1,0x6
    8000190c:	ed830313          	addi	t1,t1,-296 # 800077e0 <freelist_nodes+0x3f0>
    80001910:	0000a697          	auipc	a3,0xa
    80001914:	6ef6b823          	sd	a5,1776(a3) # 8000c000 <freelist_tail>
    80001918:	03f88893          	addi	a7,a7,63 # 8003f <tohost-0x6ff6ffd1>
    8000191c:	03000793          	li	a5,48
    80001920:	01080813          	addi	a6,a6,16
    80001924:	0017d613          	srli	a2,a5,0x1
    80001928:	011786b3          	add	a3,a5,a7
    8000192c:	00f647b3          	xor	a5,a2,a5
    80001930:	010705b3          	add	a1,a4,a6
    80001934:	00c69693          	slli	a3,a3,0xc
    80001938:	00579793          	slli	a5,a5,0x5
    8000193c:	00d73023          	sd	a3,0(a4)
    80001940:	00b73423          	sd	a1,8(a4)
    80001944:	0207f793          	andi	a5,a5,32
    80001948:	01070713          	addi	a4,a4,16
    8000194c:	00f667b3          	or	a5,a2,a5
    80001950:	fce31ae3          	bne	t1,a4,80001924 <vm_boot+0x130>
    80001954:	12000613          	li	a2,288
    80001958:	00000593          	li	a1,0
    8000195c:	00010513          	mv	a0,sp
    80001960:	00006797          	auipc	a5,0x6
    80001964:	e607bc23          	sd	zero,-392(a5) # 800077d8 <freelist_nodes+0x3e8>
    80001968:	ef4ff0ef          	jal	ra,8000105c <memset>
    8000196c:	800007b7          	lui	a5,0x80000
    80001970:	00f40433          	add	s0,s0,a5
    80001974:	00010513          	mv	a0,sp
    80001978:	10813423          	sd	s0,264(sp)
    8000197c:	f4cfe0ef          	jal	ra,800000c8 <pop_tf>
    80001980:	13813083          	ld	ra,312(sp)
    80001984:	13013403          	ld	s0,304(sp)
    80001988:	12813483          	ld	s1,296(sp)
    8000198c:	14010113          	addi	sp,sp,320
    80001990:	00008067          	ret
    80001994:	10100493          	li	s1,257
    80001998:	04100513          	li	a0,65
    8000199c:	00004417          	auipc	s0,0x4
    800019a0:	80c40413          	addi	s0,s0,-2036 # 800051a8 <pass+0xed4>
    800019a4:	03049493          	slli	s1,s1,0x30
    800019a8:	00956533          	or	a0,a0,s1
    800019ac:	00140413          	addi	s0,s0,1
    800019b0:	84dfe0ef          	jal	ra,800001fc <do_tohost>
    800019b4:	00044503          	lbu	a0,0(s0)
    800019b8:	fe0518e3          	bnez	a0,800019a8 <vm_boot+0x1b4>
    800019bc:	00300513          	li	a0,3
    800019c0:	83dfe0ef          	jal	ra,800001fc <do_tohost>
    800019c4:	0000006f          	j	800019c4 <vm_boot+0x1d0>
    800019c8:	00100713          	li	a4,1
    800019cc:	0db157b7          	lui	a5,0xdb15
    800019d0:	00080637          	lui	a2,0x80
    800019d4:	50c78793          	addi	a5,a5,1292 # db1550c <tohost-0x624dab04>
    800019d8:	ffc60613          	addi	a2,a2,-4 # 7fffc <tohost-0x6ff70014>
    800019dc:	01f71513          	slli	a0,a4,0x1f
    800019e0:	03e71693          	slli	a3,a4,0x3e
    800019e4:	01c0006f          	j	80001a00 <vm_boot+0x20c>
    800019e8:	0007202f          	amoadd.w	zero,zero,(a4)
    800019ec:	0017d713          	srli	a4,a5,0x1
    800019f0:	00e7c7b3          	xor	a5,a5,a4
    800019f4:	03e79793          	slli	a5,a5,0x3e
    800019f8:	00d7f7b3          	and	a5,a5,a3
    800019fc:	00e7e7b3          	or	a5,a5,a4
    80001a00:	00c7f733          	and	a4,a5,a2
    80001a04:	0017f593          	andi	a1,a5,1
    80001a08:	00a70733          	add	a4,a4,a0
    80001a0c:	fc059ee3          	bnez	a1,800019e8 <vm_boot+0x1f4>
    80001a10:	00072003          	lw	zero,0(a4)
    80001a14:	fd9ff06f          	j	800019ec <vm_boot+0x1f8>
    80001a18:	0000                	unimp
    80001a1a:	0000                	unimp
    80001a1c:	0000                	unimp
    80001a1e:	0000                	unimp
    80001a20:	0000                	unimp
    80001a22:	0000                	unimp
    80001a24:	0000                	unimp
    80001a26:	0000                	unimp
    80001a28:	0000                	unimp
    80001a2a:	0000                	unimp
    80001a2c:	0000                	unimp
    80001a2e:	0000                	unimp
    80001a30:	0000                	unimp
    80001a32:	0000                	unimp
    80001a34:	0000                	unimp
    80001a36:	0000                	unimp
    80001a38:	0000                	unimp
    80001a3a:	0000                	unimp
    80001a3c:	0000                	unimp
    80001a3e:	0000                	unimp
    80001a40:	0000                	unimp
    80001a42:	0000                	unimp
    80001a44:	0000                	unimp
    80001a46:	0000                	unimp
    80001a48:	0000                	unimp
    80001a4a:	0000                	unimp
    80001a4c:	0000                	unimp
    80001a4e:	0000                	unimp
    80001a50:	0000                	unimp
    80001a52:	0000                	unimp
    80001a54:	0000                	unimp
    80001a56:	0000                	unimp
    80001a58:	0000                	unimp
    80001a5a:	0000                	unimp
    80001a5c:	0000                	unimp
    80001a5e:	0000                	unimp
    80001a60:	0000                	unimp
    80001a62:	0000                	unimp
    80001a64:	0000                	unimp
    80001a66:	0000                	unimp
    80001a68:	0000                	unimp
    80001a6a:	0000                	unimp
    80001a6c:	0000                	unimp
    80001a6e:	0000                	unimp
    80001a70:	0000                	unimp
    80001a72:	0000                	unimp
    80001a74:	0000                	unimp
    80001a76:	0000                	unimp
    80001a78:	0000                	unimp
    80001a7a:	0000                	unimp
    80001a7c:	0000                	unimp
    80001a7e:	0000                	unimp
    80001a80:	0000                	unimp
    80001a82:	0000                	unimp
    80001a84:	0000                	unimp
    80001a86:	0000                	unimp
    80001a88:	0000                	unimp
    80001a8a:	0000                	unimp
    80001a8c:	0000                	unimp
    80001a8e:	0000                	unimp
    80001a90:	0000                	unimp
    80001a92:	0000                	unimp
    80001a94:	0000                	unimp
    80001a96:	0000                	unimp
    80001a98:	0000                	unimp
    80001a9a:	0000                	unimp
    80001a9c:	0000                	unimp
    80001a9e:	0000                	unimp
    80001aa0:	0000                	unimp
    80001aa2:	0000                	unimp
    80001aa4:	0000                	unimp
    80001aa6:	0000                	unimp
    80001aa8:	0000                	unimp
    80001aaa:	0000                	unimp
    80001aac:	0000                	unimp
    80001aae:	0000                	unimp
    80001ab0:	0000                	unimp
    80001ab2:	0000                	unimp
    80001ab4:	0000                	unimp
    80001ab6:	0000                	unimp
    80001ab8:	0000                	unimp
    80001aba:	0000                	unimp
    80001abc:	0000                	unimp
    80001abe:	0000                	unimp
    80001ac0:	0000                	unimp
    80001ac2:	0000                	unimp
    80001ac4:	0000                	unimp
    80001ac6:	0000                	unimp
    80001ac8:	0000                	unimp
    80001aca:	0000                	unimp
    80001acc:	0000                	unimp
    80001ace:	0000                	unimp
    80001ad0:	0000                	unimp
    80001ad2:	0000                	unimp
    80001ad4:	0000                	unimp
    80001ad6:	0000                	unimp
    80001ad8:	0000                	unimp
    80001ada:	0000                	unimp
    80001adc:	0000                	unimp
    80001ade:	0000                	unimp
    80001ae0:	0000                	unimp
    80001ae2:	0000                	unimp
    80001ae4:	0000                	unimp
    80001ae6:	0000                	unimp
    80001ae8:	0000                	unimp
    80001aea:	0000                	unimp
    80001aec:	0000                	unimp
    80001aee:	0000                	unimp
    80001af0:	0000                	unimp
    80001af2:	0000                	unimp
    80001af4:	0000                	unimp
    80001af6:	0000                	unimp
    80001af8:	0000                	unimp
    80001afa:	0000                	unimp
    80001afc:	0000                	unimp
    80001afe:	0000                	unimp
    80001b00:	0000                	unimp
    80001b02:	0000                	unimp
    80001b04:	0000                	unimp
    80001b06:	0000                	unimp
    80001b08:	0000                	unimp
    80001b0a:	0000                	unimp
    80001b0c:	0000                	unimp
    80001b0e:	0000                	unimp
    80001b10:	0000                	unimp
    80001b12:	0000                	unimp
    80001b14:	0000                	unimp
    80001b16:	0000                	unimp
    80001b18:	0000                	unimp
    80001b1a:	0000                	unimp
    80001b1c:	0000                	unimp
    80001b1e:	0000                	unimp
    80001b20:	0000                	unimp
    80001b22:	0000                	unimp
    80001b24:	0000                	unimp
    80001b26:	0000                	unimp
    80001b28:	0000                	unimp
    80001b2a:	0000                	unimp
    80001b2c:	0000                	unimp
    80001b2e:	0000                	unimp
    80001b30:	0000                	unimp
    80001b32:	0000                	unimp
    80001b34:	0000                	unimp
    80001b36:	0000                	unimp
    80001b38:	0000                	unimp
    80001b3a:	0000                	unimp
    80001b3c:	0000                	unimp
    80001b3e:	0000                	unimp
    80001b40:	0000                	unimp
    80001b42:	0000                	unimp
    80001b44:	0000                	unimp
    80001b46:	0000                	unimp
    80001b48:	0000                	unimp
    80001b4a:	0000                	unimp
    80001b4c:	0000                	unimp
    80001b4e:	0000                	unimp
    80001b50:	0000                	unimp
    80001b52:	0000                	unimp
    80001b54:	0000                	unimp
    80001b56:	0000                	unimp
    80001b58:	0000                	unimp
    80001b5a:	0000                	unimp
    80001b5c:	0000                	unimp
    80001b5e:	0000                	unimp
    80001b60:	0000                	unimp
    80001b62:	0000                	unimp
    80001b64:	0000                	unimp
    80001b66:	0000                	unimp
    80001b68:	0000                	unimp
    80001b6a:	0000                	unimp
    80001b6c:	0000                	unimp
    80001b6e:	0000                	unimp
    80001b70:	0000                	unimp
    80001b72:	0000                	unimp
    80001b74:	0000                	unimp
    80001b76:	0000                	unimp
    80001b78:	0000                	unimp
    80001b7a:	0000                	unimp
    80001b7c:	0000                	unimp
    80001b7e:	0000                	unimp
    80001b80:	0000                	unimp
    80001b82:	0000                	unimp
    80001b84:	0000                	unimp
    80001b86:	0000                	unimp
    80001b88:	0000                	unimp
    80001b8a:	0000                	unimp
    80001b8c:	0000                	unimp
    80001b8e:	0000                	unimp
    80001b90:	0000                	unimp
    80001b92:	0000                	unimp
    80001b94:	0000                	unimp
    80001b96:	0000                	unimp
    80001b98:	0000                	unimp
    80001b9a:	0000                	unimp
    80001b9c:	0000                	unimp
    80001b9e:	0000                	unimp
    80001ba0:	0000                	unimp
    80001ba2:	0000                	unimp
    80001ba4:	0000                	unimp
    80001ba6:	0000                	unimp
    80001ba8:	0000                	unimp
    80001baa:	0000                	unimp
    80001bac:	0000                	unimp
    80001bae:	0000                	unimp
    80001bb0:	0000                	unimp
    80001bb2:	0000                	unimp
    80001bb4:	0000                	unimp
    80001bb6:	0000                	unimp
    80001bb8:	0000                	unimp
    80001bba:	0000                	unimp
    80001bbc:	0000                	unimp
    80001bbe:	0000                	unimp
    80001bc0:	0000                	unimp
    80001bc2:	0000                	unimp
    80001bc4:	0000                	unimp
    80001bc6:	0000                	unimp
    80001bc8:	0000                	unimp
    80001bca:	0000                	unimp
    80001bcc:	0000                	unimp
    80001bce:	0000                	unimp
    80001bd0:	0000                	unimp
    80001bd2:	0000                	unimp
    80001bd4:	0000                	unimp
    80001bd6:	0000                	unimp
    80001bd8:	0000                	unimp
    80001bda:	0000                	unimp
    80001bdc:	0000                	unimp
    80001bde:	0000                	unimp
    80001be0:	0000                	unimp
    80001be2:	0000                	unimp
    80001be4:	0000                	unimp
    80001be6:	0000                	unimp
    80001be8:	0000                	unimp
    80001bea:	0000                	unimp
    80001bec:	0000                	unimp
    80001bee:	0000                	unimp
    80001bf0:	0000                	unimp
    80001bf2:	0000                	unimp
    80001bf4:	0000                	unimp
    80001bf6:	0000                	unimp
    80001bf8:	0000                	unimp
    80001bfa:	0000                	unimp
    80001bfc:	0000                	unimp
    80001bfe:	0000                	unimp
    80001c00:	0000                	unimp
    80001c02:	0000                	unimp
    80001c04:	0000                	unimp
    80001c06:	0000                	unimp
    80001c08:	0000                	unimp
    80001c0a:	0000                	unimp
    80001c0c:	0000                	unimp
    80001c0e:	0000                	unimp
    80001c10:	0000                	unimp
    80001c12:	0000                	unimp
    80001c14:	0000                	unimp
    80001c16:	0000                	unimp
    80001c18:	0000                	unimp
    80001c1a:	0000                	unimp
    80001c1c:	0000                	unimp
    80001c1e:	0000                	unimp
    80001c20:	0000                	unimp
    80001c22:	0000                	unimp
    80001c24:	0000                	unimp
    80001c26:	0000                	unimp
    80001c28:	0000                	unimp
    80001c2a:	0000                	unimp
    80001c2c:	0000                	unimp
    80001c2e:	0000                	unimp
    80001c30:	0000                	unimp
    80001c32:	0000                	unimp
    80001c34:	0000                	unimp
    80001c36:	0000                	unimp
    80001c38:	0000                	unimp
    80001c3a:	0000                	unimp
    80001c3c:	0000                	unimp
    80001c3e:	0000                	unimp
    80001c40:	0000                	unimp
    80001c42:	0000                	unimp
    80001c44:	0000                	unimp
    80001c46:	0000                	unimp
    80001c48:	0000                	unimp
    80001c4a:	0000                	unimp
    80001c4c:	0000                	unimp
    80001c4e:	0000                	unimp
    80001c50:	0000                	unimp
    80001c52:	0000                	unimp
    80001c54:	0000                	unimp
    80001c56:	0000                	unimp
    80001c58:	0000                	unimp
    80001c5a:	0000                	unimp
    80001c5c:	0000                	unimp
    80001c5e:	0000                	unimp
    80001c60:	0000                	unimp
    80001c62:	0000                	unimp
    80001c64:	0000                	unimp
    80001c66:	0000                	unimp
    80001c68:	0000                	unimp
    80001c6a:	0000                	unimp
    80001c6c:	0000                	unimp
    80001c6e:	0000                	unimp
    80001c70:	0000                	unimp
    80001c72:	0000                	unimp
    80001c74:	0000                	unimp
    80001c76:	0000                	unimp
    80001c78:	0000                	unimp
    80001c7a:	0000                	unimp
    80001c7c:	0000                	unimp
    80001c7e:	0000                	unimp
    80001c80:	0000                	unimp
    80001c82:	0000                	unimp
    80001c84:	0000                	unimp
    80001c86:	0000                	unimp
    80001c88:	0000                	unimp
    80001c8a:	0000                	unimp
    80001c8c:	0000                	unimp
    80001c8e:	0000                	unimp
    80001c90:	0000                	unimp
    80001c92:	0000                	unimp
    80001c94:	0000                	unimp
    80001c96:	0000                	unimp
    80001c98:	0000                	unimp
    80001c9a:	0000                	unimp
    80001c9c:	0000                	unimp
    80001c9e:	0000                	unimp
    80001ca0:	0000                	unimp
    80001ca2:	0000                	unimp
    80001ca4:	0000                	unimp
    80001ca6:	0000                	unimp
    80001ca8:	0000                	unimp
    80001caa:	0000                	unimp
    80001cac:	0000                	unimp
    80001cae:	0000                	unimp
    80001cb0:	0000                	unimp
    80001cb2:	0000                	unimp
    80001cb4:	0000                	unimp
    80001cb6:	0000                	unimp
    80001cb8:	0000                	unimp
    80001cba:	0000                	unimp
    80001cbc:	0000                	unimp
    80001cbe:	0000                	unimp
    80001cc0:	0000                	unimp
    80001cc2:	0000                	unimp
    80001cc4:	0000                	unimp
    80001cc6:	0000                	unimp
    80001cc8:	0000                	unimp
    80001cca:	0000                	unimp
    80001ccc:	0000                	unimp
    80001cce:	0000                	unimp
    80001cd0:	0000                	unimp
    80001cd2:	0000                	unimp
    80001cd4:	0000                	unimp
    80001cd6:	0000                	unimp
    80001cd8:	0000                	unimp
    80001cda:	0000                	unimp
    80001cdc:	0000                	unimp
    80001cde:	0000                	unimp
    80001ce0:	0000                	unimp
    80001ce2:	0000                	unimp
    80001ce4:	0000                	unimp
    80001ce6:	0000                	unimp
    80001ce8:	0000                	unimp
    80001cea:	0000                	unimp
    80001cec:	0000                	unimp
    80001cee:	0000                	unimp
    80001cf0:	0000                	unimp
    80001cf2:	0000                	unimp
    80001cf4:	0000                	unimp
    80001cf6:	0000                	unimp
    80001cf8:	0000                	unimp
    80001cfa:	0000                	unimp
    80001cfc:	0000                	unimp
    80001cfe:	0000                	unimp
    80001d00:	0000                	unimp
    80001d02:	0000                	unimp
    80001d04:	0000                	unimp
    80001d06:	0000                	unimp
    80001d08:	0000                	unimp
    80001d0a:	0000                	unimp
    80001d0c:	0000                	unimp
    80001d0e:	0000                	unimp
    80001d10:	0000                	unimp
    80001d12:	0000                	unimp
    80001d14:	0000                	unimp
    80001d16:	0000                	unimp
    80001d18:	0000                	unimp
    80001d1a:	0000                	unimp
    80001d1c:	0000                	unimp
    80001d1e:	0000                	unimp
    80001d20:	0000                	unimp
    80001d22:	0000                	unimp
    80001d24:	0000                	unimp
    80001d26:	0000                	unimp
    80001d28:	0000                	unimp
    80001d2a:	0000                	unimp
    80001d2c:	0000                	unimp
    80001d2e:	0000                	unimp
    80001d30:	0000                	unimp
    80001d32:	0000                	unimp
    80001d34:	0000                	unimp
    80001d36:	0000                	unimp
    80001d38:	0000                	unimp
    80001d3a:	0000                	unimp
    80001d3c:	0000                	unimp
    80001d3e:	0000                	unimp
    80001d40:	0000                	unimp
    80001d42:	0000                	unimp
    80001d44:	0000                	unimp
    80001d46:	0000                	unimp
    80001d48:	0000                	unimp
    80001d4a:	0000                	unimp
    80001d4c:	0000                	unimp
    80001d4e:	0000                	unimp
    80001d50:	0000                	unimp
    80001d52:	0000                	unimp
    80001d54:	0000                	unimp
    80001d56:	0000                	unimp
    80001d58:	0000                	unimp
    80001d5a:	0000                	unimp
    80001d5c:	0000                	unimp
    80001d5e:	0000                	unimp
    80001d60:	0000                	unimp
    80001d62:	0000                	unimp
    80001d64:	0000                	unimp
    80001d66:	0000                	unimp
    80001d68:	0000                	unimp
    80001d6a:	0000                	unimp
    80001d6c:	0000                	unimp
    80001d6e:	0000                	unimp
    80001d70:	0000                	unimp
    80001d72:	0000                	unimp
    80001d74:	0000                	unimp
    80001d76:	0000                	unimp
    80001d78:	0000                	unimp
    80001d7a:	0000                	unimp
    80001d7c:	0000                	unimp
    80001d7e:	0000                	unimp
    80001d80:	0000                	unimp
    80001d82:	0000                	unimp
    80001d84:	0000                	unimp
    80001d86:	0000                	unimp
    80001d88:	0000                	unimp
    80001d8a:	0000                	unimp
    80001d8c:	0000                	unimp
    80001d8e:	0000                	unimp
    80001d90:	0000                	unimp
    80001d92:	0000                	unimp
    80001d94:	0000                	unimp
    80001d96:	0000                	unimp
    80001d98:	0000                	unimp
    80001d9a:	0000                	unimp
    80001d9c:	0000                	unimp
    80001d9e:	0000                	unimp
    80001da0:	0000                	unimp
    80001da2:	0000                	unimp
    80001da4:	0000                	unimp
    80001da6:	0000                	unimp
    80001da8:	0000                	unimp
    80001daa:	0000                	unimp
    80001dac:	0000                	unimp
    80001dae:	0000                	unimp
    80001db0:	0000                	unimp
    80001db2:	0000                	unimp
    80001db4:	0000                	unimp
    80001db6:	0000                	unimp
    80001db8:	0000                	unimp
    80001dba:	0000                	unimp
    80001dbc:	0000                	unimp
    80001dbe:	0000                	unimp
    80001dc0:	0000                	unimp
    80001dc2:	0000                	unimp
    80001dc4:	0000                	unimp
    80001dc6:	0000                	unimp
    80001dc8:	0000                	unimp
    80001dca:	0000                	unimp
    80001dcc:	0000                	unimp
    80001dce:	0000                	unimp
    80001dd0:	0000                	unimp
    80001dd2:	0000                	unimp
    80001dd4:	0000                	unimp
    80001dd6:	0000                	unimp
    80001dd8:	0000                	unimp
    80001dda:	0000                	unimp
    80001ddc:	0000                	unimp
    80001dde:	0000                	unimp
    80001de0:	0000                	unimp
    80001de2:	0000                	unimp
    80001de4:	0000                	unimp
    80001de6:	0000                	unimp
    80001de8:	0000                	unimp
    80001dea:	0000                	unimp
    80001dec:	0000                	unimp
    80001dee:	0000                	unimp
    80001df0:	0000                	unimp
    80001df2:	0000                	unimp
    80001df4:	0000                	unimp
    80001df6:	0000                	unimp
    80001df8:	0000                	unimp
    80001dfa:	0000                	unimp
    80001dfc:	0000                	unimp
    80001dfe:	0000                	unimp
    80001e00:	0000                	unimp
    80001e02:	0000                	unimp
    80001e04:	0000                	unimp
    80001e06:	0000                	unimp
    80001e08:	0000                	unimp
    80001e0a:	0000                	unimp
    80001e0c:	0000                	unimp
    80001e0e:	0000                	unimp
    80001e10:	0000                	unimp
    80001e12:	0000                	unimp
    80001e14:	0000                	unimp
    80001e16:	0000                	unimp
    80001e18:	0000                	unimp
    80001e1a:	0000                	unimp
    80001e1c:	0000                	unimp
    80001e1e:	0000                	unimp
    80001e20:	0000                	unimp
    80001e22:	0000                	unimp
    80001e24:	0000                	unimp
    80001e26:	0000                	unimp
    80001e28:	0000                	unimp
    80001e2a:	0000                	unimp
    80001e2c:	0000                	unimp
    80001e2e:	0000                	unimp
    80001e30:	0000                	unimp
    80001e32:	0000                	unimp
    80001e34:	0000                	unimp
    80001e36:	0000                	unimp
    80001e38:	0000                	unimp
    80001e3a:	0000                	unimp
    80001e3c:	0000                	unimp
    80001e3e:	0000                	unimp
    80001e40:	0000                	unimp
    80001e42:	0000                	unimp
    80001e44:	0000                	unimp
    80001e46:	0000                	unimp
    80001e48:	0000                	unimp
    80001e4a:	0000                	unimp
    80001e4c:	0000                	unimp
    80001e4e:	0000                	unimp
    80001e50:	0000                	unimp
    80001e52:	0000                	unimp
    80001e54:	0000                	unimp
    80001e56:	0000                	unimp
    80001e58:	0000                	unimp
    80001e5a:	0000                	unimp
    80001e5c:	0000                	unimp
    80001e5e:	0000                	unimp
    80001e60:	0000                	unimp
    80001e62:	0000                	unimp
    80001e64:	0000                	unimp
    80001e66:	0000                	unimp
    80001e68:	0000                	unimp
    80001e6a:	0000                	unimp
    80001e6c:	0000                	unimp
    80001e6e:	0000                	unimp
    80001e70:	0000                	unimp
    80001e72:	0000                	unimp
    80001e74:	0000                	unimp
    80001e76:	0000                	unimp
    80001e78:	0000                	unimp
    80001e7a:	0000                	unimp
    80001e7c:	0000                	unimp
    80001e7e:	0000                	unimp
    80001e80:	0000                	unimp
    80001e82:	0000                	unimp
    80001e84:	0000                	unimp
    80001e86:	0000                	unimp
    80001e88:	0000                	unimp
    80001e8a:	0000                	unimp
    80001e8c:	0000                	unimp
    80001e8e:	0000                	unimp
    80001e90:	0000                	unimp
    80001e92:	0000                	unimp
    80001e94:	0000                	unimp
    80001e96:	0000                	unimp
    80001e98:	0000                	unimp
    80001e9a:	0000                	unimp
    80001e9c:	0000                	unimp
    80001e9e:	0000                	unimp
    80001ea0:	0000                	unimp
    80001ea2:	0000                	unimp
    80001ea4:	0000                	unimp
    80001ea6:	0000                	unimp
    80001ea8:	0000                	unimp
    80001eaa:	0000                	unimp
    80001eac:	0000                	unimp
    80001eae:	0000                	unimp
    80001eb0:	0000                	unimp
    80001eb2:	0000                	unimp
    80001eb4:	0000                	unimp
    80001eb6:	0000                	unimp
    80001eb8:	0000                	unimp
    80001eba:	0000                	unimp
    80001ebc:	0000                	unimp
    80001ebe:	0000                	unimp
    80001ec0:	0000                	unimp
    80001ec2:	0000                	unimp
    80001ec4:	0000                	unimp
    80001ec6:	0000                	unimp
    80001ec8:	0000                	unimp
    80001eca:	0000                	unimp
    80001ecc:	0000                	unimp
    80001ece:	0000                	unimp
    80001ed0:	0000                	unimp
    80001ed2:	0000                	unimp
    80001ed4:	0000                	unimp
    80001ed6:	0000                	unimp
    80001ed8:	0000                	unimp
    80001eda:	0000                	unimp
    80001edc:	0000                	unimp
    80001ede:	0000                	unimp
    80001ee0:	0000                	unimp
    80001ee2:	0000                	unimp
    80001ee4:	0000                	unimp
    80001ee6:	0000                	unimp
    80001ee8:	0000                	unimp
    80001eea:	0000                	unimp
    80001eec:	0000                	unimp
    80001eee:	0000                	unimp
    80001ef0:	0000                	unimp
    80001ef2:	0000                	unimp
    80001ef4:	0000                	unimp
    80001ef6:	0000                	unimp
    80001ef8:	0000                	unimp
    80001efa:	0000                	unimp
    80001efc:	0000                	unimp
    80001efe:	0000                	unimp
    80001f00:	0000                	unimp
    80001f02:	0000                	unimp
    80001f04:	0000                	unimp
    80001f06:	0000                	unimp
    80001f08:	0000                	unimp
    80001f0a:	0000                	unimp
    80001f0c:	0000                	unimp
    80001f0e:	0000                	unimp
    80001f10:	0000                	unimp
    80001f12:	0000                	unimp
    80001f14:	0000                	unimp
    80001f16:	0000                	unimp
    80001f18:	0000                	unimp
    80001f1a:	0000                	unimp
    80001f1c:	0000                	unimp
    80001f1e:	0000                	unimp
    80001f20:	0000                	unimp
    80001f22:	0000                	unimp
    80001f24:	0000                	unimp
    80001f26:	0000                	unimp
    80001f28:	0000                	unimp
    80001f2a:	0000                	unimp
    80001f2c:	0000                	unimp
    80001f2e:	0000                	unimp
    80001f30:	0000                	unimp
    80001f32:	0000                	unimp
    80001f34:	0000                	unimp
    80001f36:	0000                	unimp
    80001f38:	0000                	unimp
    80001f3a:	0000                	unimp
    80001f3c:	0000                	unimp
    80001f3e:	0000                	unimp
    80001f40:	0000                	unimp
    80001f42:	0000                	unimp
    80001f44:	0000                	unimp
    80001f46:	0000                	unimp
    80001f48:	0000                	unimp
    80001f4a:	0000                	unimp
    80001f4c:	0000                	unimp
    80001f4e:	0000                	unimp
    80001f50:	0000                	unimp
    80001f52:	0000                	unimp
    80001f54:	0000                	unimp
    80001f56:	0000                	unimp
    80001f58:	0000                	unimp
    80001f5a:	0000                	unimp
    80001f5c:	0000                	unimp
    80001f5e:	0000                	unimp
    80001f60:	0000                	unimp
    80001f62:	0000                	unimp
    80001f64:	0000                	unimp
    80001f66:	0000                	unimp
    80001f68:	0000                	unimp
    80001f6a:	0000                	unimp
    80001f6c:	0000                	unimp
    80001f6e:	0000                	unimp
    80001f70:	0000                	unimp
    80001f72:	0000                	unimp
    80001f74:	0000                	unimp
    80001f76:	0000                	unimp
    80001f78:	0000                	unimp
    80001f7a:	0000                	unimp
    80001f7c:	0000                	unimp
    80001f7e:	0000                	unimp
    80001f80:	0000                	unimp
    80001f82:	0000                	unimp
    80001f84:	0000                	unimp
    80001f86:	0000                	unimp
    80001f88:	0000                	unimp
    80001f8a:	0000                	unimp
    80001f8c:	0000                	unimp
    80001f8e:	0000                	unimp
    80001f90:	0000                	unimp
    80001f92:	0000                	unimp
    80001f94:	0000                	unimp
    80001f96:	0000                	unimp
    80001f98:	0000                	unimp
    80001f9a:	0000                	unimp
    80001f9c:	0000                	unimp
    80001f9e:	0000                	unimp
    80001fa0:	0000                	unimp
    80001fa2:	0000                	unimp
    80001fa4:	0000                	unimp
    80001fa6:	0000                	unimp
    80001fa8:	0000                	unimp
    80001faa:	0000                	unimp
    80001fac:	0000                	unimp
    80001fae:	0000                	unimp
    80001fb0:	0000                	unimp
    80001fb2:	0000                	unimp
    80001fb4:	0000                	unimp
    80001fb6:	0000                	unimp
    80001fb8:	0000                	unimp
    80001fba:	0000                	unimp
    80001fbc:	0000                	unimp
    80001fbe:	0000                	unimp
    80001fc0:	0000                	unimp
    80001fc2:	0000                	unimp
    80001fc4:	0000                	unimp
    80001fc6:	0000                	unimp
    80001fc8:	0000                	unimp
    80001fca:	0000                	unimp
    80001fcc:	0000                	unimp
    80001fce:	0000                	unimp
    80001fd0:	0000                	unimp
    80001fd2:	0000                	unimp
    80001fd4:	0000                	unimp
    80001fd6:	0000                	unimp
    80001fd8:	0000                	unimp
    80001fda:	0000                	unimp
    80001fdc:	0000                	unimp
    80001fde:	0000                	unimp
    80001fe0:	0000                	unimp
    80001fe2:	0000                	unimp
    80001fe4:	0000                	unimp
    80001fe6:	0000                	unimp
    80001fe8:	0000                	unimp
    80001fea:	0000                	unimp
    80001fec:	0000                	unimp
    80001fee:	0000                	unimp
    80001ff0:	0000                	unimp
    80001ff2:	0000                	unimp
    80001ff4:	0000                	unimp
    80001ff6:	0000                	unimp
    80001ff8:	0000                	unimp
    80001ffa:	0000                	unimp
    80001ffc:	0000                	unimp
    80001ffe:	0000                	unimp

0000000080002000 <extra_boot>:
    80002000:	00008067          	ret

0000000080002004 <userstart>:
    80002004:	00200193          	li	gp,2
    80002008:	29a00593          	li	a1,666

000000008000200c <test_2>:
    8000200c:	00200193          	li	gp,2
    80002010:	7ef0106f          	j	80003ffe <data+0x1fe6>
    80002014:	00000013          	nop

0000000080002018 <data>:
    80002018:	3210                	fld	fa2,32(a2)
    8000201a:	7654                	ld	a3,168(a2)
    8000201c:	ba98                	fsd	fa4,48(a3)
    8000201e:	fedc                	sd	a5,184(a3)
    80002020:	3210                	fld	fa2,32(a2)
    80002022:	7654                	ld	a3,168(a2)
    80002024:	ba98                	fsd	fa4,48(a3)
    80002026:	fedc                	sd	a5,184(a3)
    80002028:	00000013          	nop
    8000202c:	00000013          	nop
    80002030:	00000013          	nop
    80002034:	00000013          	nop
    80002038:	00000013          	nop
    8000203c:	00000013          	nop
    80002040:	00000013          	nop
    80002044:	00000013          	nop
    80002048:	00000013          	nop
    8000204c:	00000013          	nop
    80002050:	00000013          	nop
    80002054:	00000013          	nop
    80002058:	00000013          	nop
    8000205c:	00000013          	nop
    80002060:	00000013          	nop
    80002064:	00000013          	nop
    80002068:	00000013          	nop
    8000206c:	00000013          	nop
    80002070:	00000013          	nop
    80002074:	00000013          	nop
    80002078:	00000013          	nop
    8000207c:	00000013          	nop
    80002080:	00000013          	nop
    80002084:	00000013          	nop
    80002088:	00000013          	nop
    8000208c:	00000013          	nop
    80002090:	00000013          	nop
    80002094:	00000013          	nop
    80002098:	00000013          	nop
    8000209c:	00000013          	nop
    800020a0:	00000013          	nop
    800020a4:	00000013          	nop
    800020a8:	00000013          	nop
    800020ac:	00000013          	nop
    800020b0:	00000013          	nop
    800020b4:	00000013          	nop
    800020b8:	00000013          	nop
    800020bc:	00000013          	nop
    800020c0:	00000013          	nop
    800020c4:	00000013          	nop
    800020c8:	00000013          	nop
    800020cc:	00000013          	nop
    800020d0:	00000013          	nop
    800020d4:	00000013          	nop
    800020d8:	00000013          	nop
    800020dc:	00000013          	nop
    800020e0:	00000013          	nop
    800020e4:	00000013          	nop
    800020e8:	00000013          	nop
    800020ec:	00000013          	nop
    800020f0:	00000013          	nop
    800020f4:	00000013          	nop
    800020f8:	00000013          	nop
    800020fc:	00000013          	nop
    80002100:	00000013          	nop
    80002104:	00000013          	nop
    80002108:	00000013          	nop
    8000210c:	00000013          	nop
    80002110:	00000013          	nop
    80002114:	00000013          	nop
    80002118:	00000013          	nop
    8000211c:	00000013          	nop
    80002120:	00000013          	nop
    80002124:	00000013          	nop
    80002128:	00000013          	nop
    8000212c:	00000013          	nop
    80002130:	00000013          	nop
    80002134:	00000013          	nop
    80002138:	00000013          	nop
    8000213c:	00000013          	nop
    80002140:	00000013          	nop
    80002144:	00000013          	nop
    80002148:	00000013          	nop
    8000214c:	00000013          	nop
    80002150:	00000013          	nop
    80002154:	00000013          	nop
    80002158:	00000013          	nop
    8000215c:	00000013          	nop
    80002160:	00000013          	nop
    80002164:	00000013          	nop
    80002168:	00000013          	nop
    8000216c:	00000013          	nop
    80002170:	00000013          	nop
    80002174:	00000013          	nop
    80002178:	00000013          	nop
    8000217c:	00000013          	nop
    80002180:	00000013          	nop
    80002184:	00000013          	nop
    80002188:	00000013          	nop
    8000218c:	00000013          	nop
    80002190:	00000013          	nop
    80002194:	00000013          	nop
    80002198:	00000013          	nop
    8000219c:	00000013          	nop
    800021a0:	00000013          	nop
    800021a4:	00000013          	nop
    800021a8:	00000013          	nop
    800021ac:	00000013          	nop
    800021b0:	00000013          	nop
    800021b4:	00000013          	nop
    800021b8:	00000013          	nop
    800021bc:	00000013          	nop
    800021c0:	00000013          	nop
    800021c4:	00000013          	nop
    800021c8:	00000013          	nop
    800021cc:	00000013          	nop
    800021d0:	00000013          	nop
    800021d4:	00000013          	nop
    800021d8:	00000013          	nop
    800021dc:	00000013          	nop
    800021e0:	00000013          	nop
    800021e4:	00000013          	nop
    800021e8:	00000013          	nop
    800021ec:	00000013          	nop
    800021f0:	00000013          	nop
    800021f4:	00000013          	nop
    800021f8:	00000013          	nop
    800021fc:	00000013          	nop
    80002200:	00000013          	nop
    80002204:	00000013          	nop
    80002208:	00000013          	nop
    8000220c:	00000013          	nop
    80002210:	00000013          	nop
    80002214:	00000013          	nop
    80002218:	00000013          	nop
    8000221c:	00000013          	nop
    80002220:	00000013          	nop
    80002224:	00000013          	nop
    80002228:	00000013          	nop
    8000222c:	00000013          	nop
    80002230:	00000013          	nop
    80002234:	00000013          	nop
    80002238:	00000013          	nop
    8000223c:	00000013          	nop
    80002240:	00000013          	nop
    80002244:	00000013          	nop
    80002248:	00000013          	nop
    8000224c:	00000013          	nop
    80002250:	00000013          	nop
    80002254:	00000013          	nop
    80002258:	00000013          	nop
    8000225c:	00000013          	nop
    80002260:	00000013          	nop
    80002264:	00000013          	nop
    80002268:	00000013          	nop
    8000226c:	00000013          	nop
    80002270:	00000013          	nop
    80002274:	00000013          	nop
    80002278:	00000013          	nop
    8000227c:	00000013          	nop
    80002280:	00000013          	nop
    80002284:	00000013          	nop
    80002288:	00000013          	nop
    8000228c:	00000013          	nop
    80002290:	00000013          	nop
    80002294:	00000013          	nop
    80002298:	00000013          	nop
    8000229c:	00000013          	nop
    800022a0:	00000013          	nop
    800022a4:	00000013          	nop
    800022a8:	00000013          	nop
    800022ac:	00000013          	nop
    800022b0:	00000013          	nop
    800022b4:	00000013          	nop
    800022b8:	00000013          	nop
    800022bc:	00000013          	nop
    800022c0:	00000013          	nop
    800022c4:	00000013          	nop
    800022c8:	00000013          	nop
    800022cc:	00000013          	nop
    800022d0:	00000013          	nop
    800022d4:	00000013          	nop
    800022d8:	00000013          	nop
    800022dc:	00000013          	nop
    800022e0:	00000013          	nop
    800022e4:	00000013          	nop
    800022e8:	00000013          	nop
    800022ec:	00000013          	nop
    800022f0:	00000013          	nop
    800022f4:	00000013          	nop
    800022f8:	00000013          	nop
    800022fc:	00000013          	nop
    80002300:	00000013          	nop
    80002304:	00000013          	nop
    80002308:	00000013          	nop
    8000230c:	00000013          	nop
    80002310:	00000013          	nop
    80002314:	00000013          	nop
    80002318:	00000013          	nop
    8000231c:	00000013          	nop
    80002320:	00000013          	nop
    80002324:	00000013          	nop
    80002328:	00000013          	nop
    8000232c:	00000013          	nop
    80002330:	00000013          	nop
    80002334:	00000013          	nop
    80002338:	00000013          	nop
    8000233c:	00000013          	nop
    80002340:	00000013          	nop
    80002344:	00000013          	nop
    80002348:	00000013          	nop
    8000234c:	00000013          	nop
    80002350:	00000013          	nop
    80002354:	00000013          	nop
    80002358:	00000013          	nop
    8000235c:	00000013          	nop
    80002360:	00000013          	nop
    80002364:	00000013          	nop
    80002368:	00000013          	nop
    8000236c:	00000013          	nop
    80002370:	00000013          	nop
    80002374:	00000013          	nop
    80002378:	00000013          	nop
    8000237c:	00000013          	nop
    80002380:	00000013          	nop
    80002384:	00000013          	nop
    80002388:	00000013          	nop
    8000238c:	00000013          	nop
    80002390:	00000013          	nop
    80002394:	00000013          	nop
    80002398:	00000013          	nop
    8000239c:	00000013          	nop
    800023a0:	00000013          	nop
    800023a4:	00000013          	nop
    800023a8:	00000013          	nop
    800023ac:	00000013          	nop
    800023b0:	00000013          	nop
    800023b4:	00000013          	nop
    800023b8:	00000013          	nop
    800023bc:	00000013          	nop
    800023c0:	00000013          	nop
    800023c4:	00000013          	nop
    800023c8:	00000013          	nop
    800023cc:	00000013          	nop
    800023d0:	00000013          	nop
    800023d4:	00000013          	nop
    800023d8:	00000013          	nop
    800023dc:	00000013          	nop
    800023e0:	00000013          	nop
    800023e4:	00000013          	nop
    800023e8:	00000013          	nop
    800023ec:	00000013          	nop
    800023f0:	00000013          	nop
    800023f4:	00000013          	nop
    800023f8:	00000013          	nop
    800023fc:	00000013          	nop
    80002400:	00000013          	nop
    80002404:	00000013          	nop
    80002408:	00000013          	nop
    8000240c:	00000013          	nop
    80002410:	00000013          	nop
    80002414:	00000013          	nop
    80002418:	00000013          	nop
    8000241c:	00000013          	nop
    80002420:	00000013          	nop
    80002424:	00000013          	nop
    80002428:	00000013          	nop
    8000242c:	00000013          	nop
    80002430:	00000013          	nop
    80002434:	00000013          	nop
    80002438:	00000013          	nop
    8000243c:	00000013          	nop
    80002440:	00000013          	nop
    80002444:	00000013          	nop
    80002448:	00000013          	nop
    8000244c:	00000013          	nop
    80002450:	00000013          	nop
    80002454:	00000013          	nop
    80002458:	00000013          	nop
    8000245c:	00000013          	nop
    80002460:	00000013          	nop
    80002464:	00000013          	nop
    80002468:	00000013          	nop
    8000246c:	00000013          	nop
    80002470:	00000013          	nop
    80002474:	00000013          	nop
    80002478:	00000013          	nop
    8000247c:	00000013          	nop
    80002480:	00000013          	nop
    80002484:	00000013          	nop
    80002488:	00000013          	nop
    8000248c:	00000013          	nop
    80002490:	00000013          	nop
    80002494:	00000013          	nop
    80002498:	00000013          	nop
    8000249c:	00000013          	nop
    800024a0:	00000013          	nop
    800024a4:	00000013          	nop
    800024a8:	00000013          	nop
    800024ac:	00000013          	nop
    800024b0:	00000013          	nop
    800024b4:	00000013          	nop
    800024b8:	00000013          	nop
    800024bc:	00000013          	nop
    800024c0:	00000013          	nop
    800024c4:	00000013          	nop
    800024c8:	00000013          	nop
    800024cc:	00000013          	nop
    800024d0:	00000013          	nop
    800024d4:	00000013          	nop
    800024d8:	00000013          	nop
    800024dc:	00000013          	nop
    800024e0:	00000013          	nop
    800024e4:	00000013          	nop
    800024e8:	00000013          	nop
    800024ec:	00000013          	nop
    800024f0:	00000013          	nop
    800024f4:	00000013          	nop
    800024f8:	00000013          	nop
    800024fc:	00000013          	nop
    80002500:	00000013          	nop
    80002504:	00000013          	nop
    80002508:	00000013          	nop
    8000250c:	00000013          	nop
    80002510:	00000013          	nop
    80002514:	00000013          	nop
    80002518:	00000013          	nop
    8000251c:	00000013          	nop
    80002520:	00000013          	nop
    80002524:	00000013          	nop
    80002528:	00000013          	nop
    8000252c:	00000013          	nop
    80002530:	00000013          	nop
    80002534:	00000013          	nop
    80002538:	00000013          	nop
    8000253c:	00000013          	nop
    80002540:	00000013          	nop
    80002544:	00000013          	nop
    80002548:	00000013          	nop
    8000254c:	00000013          	nop
    80002550:	00000013          	nop
    80002554:	00000013          	nop
    80002558:	00000013          	nop
    8000255c:	00000013          	nop
    80002560:	00000013          	nop
    80002564:	00000013          	nop
    80002568:	00000013          	nop
    8000256c:	00000013          	nop
    80002570:	00000013          	nop
    80002574:	00000013          	nop
    80002578:	00000013          	nop
    8000257c:	00000013          	nop
    80002580:	00000013          	nop
    80002584:	00000013          	nop
    80002588:	00000013          	nop
    8000258c:	00000013          	nop
    80002590:	00000013          	nop
    80002594:	00000013          	nop
    80002598:	00000013          	nop
    8000259c:	00000013          	nop
    800025a0:	00000013          	nop
    800025a4:	00000013          	nop
    800025a8:	00000013          	nop
    800025ac:	00000013          	nop
    800025b0:	00000013          	nop
    800025b4:	00000013          	nop
    800025b8:	00000013          	nop
    800025bc:	00000013          	nop
    800025c0:	00000013          	nop
    800025c4:	00000013          	nop
    800025c8:	00000013          	nop
    800025cc:	00000013          	nop
    800025d0:	00000013          	nop
    800025d4:	00000013          	nop
    800025d8:	00000013          	nop
    800025dc:	00000013          	nop
    800025e0:	00000013          	nop
    800025e4:	00000013          	nop
    800025e8:	00000013          	nop
    800025ec:	00000013          	nop
    800025f0:	00000013          	nop
    800025f4:	00000013          	nop
    800025f8:	00000013          	nop
    800025fc:	00000013          	nop
    80002600:	00000013          	nop
    80002604:	00000013          	nop
    80002608:	00000013          	nop
    8000260c:	00000013          	nop
    80002610:	00000013          	nop
    80002614:	00000013          	nop
    80002618:	00000013          	nop
    8000261c:	00000013          	nop
    80002620:	00000013          	nop
    80002624:	00000013          	nop
    80002628:	00000013          	nop
    8000262c:	00000013          	nop
    80002630:	00000013          	nop
    80002634:	00000013          	nop
    80002638:	00000013          	nop
    8000263c:	00000013          	nop
    80002640:	00000013          	nop
    80002644:	00000013          	nop
    80002648:	00000013          	nop
    8000264c:	00000013          	nop
    80002650:	00000013          	nop
    80002654:	00000013          	nop
    80002658:	00000013          	nop
    8000265c:	00000013          	nop
    80002660:	00000013          	nop
    80002664:	00000013          	nop
    80002668:	00000013          	nop
    8000266c:	00000013          	nop
    80002670:	00000013          	nop
    80002674:	00000013          	nop
    80002678:	00000013          	nop
    8000267c:	00000013          	nop
    80002680:	00000013          	nop
    80002684:	00000013          	nop
    80002688:	00000013          	nop
    8000268c:	00000013          	nop
    80002690:	00000013          	nop
    80002694:	00000013          	nop
    80002698:	00000013          	nop
    8000269c:	00000013          	nop
    800026a0:	00000013          	nop
    800026a4:	00000013          	nop
    800026a8:	00000013          	nop
    800026ac:	00000013          	nop
    800026b0:	00000013          	nop
    800026b4:	00000013          	nop
    800026b8:	00000013          	nop
    800026bc:	00000013          	nop
    800026c0:	00000013          	nop
    800026c4:	00000013          	nop
    800026c8:	00000013          	nop
    800026cc:	00000013          	nop
    800026d0:	00000013          	nop
    800026d4:	00000013          	nop
    800026d8:	00000013          	nop
    800026dc:	00000013          	nop
    800026e0:	00000013          	nop
    800026e4:	00000013          	nop
    800026e8:	00000013          	nop
    800026ec:	00000013          	nop
    800026f0:	00000013          	nop
    800026f4:	00000013          	nop
    800026f8:	00000013          	nop
    800026fc:	00000013          	nop
    80002700:	00000013          	nop
    80002704:	00000013          	nop
    80002708:	00000013          	nop
    8000270c:	00000013          	nop
    80002710:	00000013          	nop
    80002714:	00000013          	nop
    80002718:	00000013          	nop
    8000271c:	00000013          	nop
    80002720:	00000013          	nop
    80002724:	00000013          	nop
    80002728:	00000013          	nop
    8000272c:	00000013          	nop
    80002730:	00000013          	nop
    80002734:	00000013          	nop
    80002738:	00000013          	nop
    8000273c:	00000013          	nop
    80002740:	00000013          	nop
    80002744:	00000013          	nop
    80002748:	00000013          	nop
    8000274c:	00000013          	nop
    80002750:	00000013          	nop
    80002754:	00000013          	nop
    80002758:	00000013          	nop
    8000275c:	00000013          	nop
    80002760:	00000013          	nop
    80002764:	00000013          	nop
    80002768:	00000013          	nop
    8000276c:	00000013          	nop
    80002770:	00000013          	nop
    80002774:	00000013          	nop
    80002778:	00000013          	nop
    8000277c:	00000013          	nop
    80002780:	00000013          	nop
    80002784:	00000013          	nop
    80002788:	00000013          	nop
    8000278c:	00000013          	nop
    80002790:	00000013          	nop
    80002794:	00000013          	nop
    80002798:	00000013          	nop
    8000279c:	00000013          	nop
    800027a0:	00000013          	nop
    800027a4:	00000013          	nop
    800027a8:	00000013          	nop
    800027ac:	00000013          	nop
    800027b0:	00000013          	nop
    800027b4:	00000013          	nop
    800027b8:	00000013          	nop
    800027bc:	00000013          	nop
    800027c0:	00000013          	nop
    800027c4:	00000013          	nop
    800027c8:	00000013          	nop
    800027cc:	00000013          	nop
    800027d0:	00000013          	nop
    800027d4:	00000013          	nop
    800027d8:	00000013          	nop
    800027dc:	00000013          	nop
    800027e0:	00000013          	nop
    800027e4:	00000013          	nop
    800027e8:	00000013          	nop
    800027ec:	00000013          	nop
    800027f0:	00000013          	nop
    800027f4:	00000013          	nop
    800027f8:	00000013          	nop
    800027fc:	00000013          	nop
    80002800:	00000013          	nop
    80002804:	00000013          	nop
    80002808:	00000013          	nop
    8000280c:	00000013          	nop
    80002810:	00000013          	nop
    80002814:	00000013          	nop
    80002818:	00000013          	nop
    8000281c:	00000013          	nop
    80002820:	00000013          	nop
    80002824:	00000013          	nop
    80002828:	00000013          	nop
    8000282c:	00000013          	nop
    80002830:	00000013          	nop
    80002834:	00000013          	nop
    80002838:	00000013          	nop
    8000283c:	00000013          	nop
    80002840:	00000013          	nop
    80002844:	00000013          	nop
    80002848:	00000013          	nop
    8000284c:	00000013          	nop
    80002850:	00000013          	nop
    80002854:	00000013          	nop
    80002858:	00000013          	nop
    8000285c:	00000013          	nop
    80002860:	00000013          	nop
    80002864:	00000013          	nop
    80002868:	00000013          	nop
    8000286c:	00000013          	nop
    80002870:	00000013          	nop
    80002874:	00000013          	nop
    80002878:	00000013          	nop
    8000287c:	00000013          	nop
    80002880:	00000013          	nop
    80002884:	00000013          	nop
    80002888:	00000013          	nop
    8000288c:	00000013          	nop
    80002890:	00000013          	nop
    80002894:	00000013          	nop
    80002898:	00000013          	nop
    8000289c:	00000013          	nop
    800028a0:	00000013          	nop
    800028a4:	00000013          	nop
    800028a8:	00000013          	nop
    800028ac:	00000013          	nop
    800028b0:	00000013          	nop
    800028b4:	00000013          	nop
    800028b8:	00000013          	nop
    800028bc:	00000013          	nop
    800028c0:	00000013          	nop
    800028c4:	00000013          	nop
    800028c8:	00000013          	nop
    800028cc:	00000013          	nop
    800028d0:	00000013          	nop
    800028d4:	00000013          	nop
    800028d8:	00000013          	nop
    800028dc:	00000013          	nop
    800028e0:	00000013          	nop
    800028e4:	00000013          	nop
    800028e8:	00000013          	nop
    800028ec:	00000013          	nop
    800028f0:	00000013          	nop
    800028f4:	00000013          	nop
    800028f8:	00000013          	nop
    800028fc:	00000013          	nop
    80002900:	00000013          	nop
    80002904:	00000013          	nop
    80002908:	00000013          	nop
    8000290c:	00000013          	nop
    80002910:	00000013          	nop
    80002914:	00000013          	nop
    80002918:	00000013          	nop
    8000291c:	00000013          	nop
    80002920:	00000013          	nop
    80002924:	00000013          	nop
    80002928:	00000013          	nop
    8000292c:	00000013          	nop
    80002930:	00000013          	nop
    80002934:	00000013          	nop
    80002938:	00000013          	nop
    8000293c:	00000013          	nop
    80002940:	00000013          	nop
    80002944:	00000013          	nop
    80002948:	00000013          	nop
    8000294c:	00000013          	nop
    80002950:	00000013          	nop
    80002954:	00000013          	nop
    80002958:	00000013          	nop
    8000295c:	00000013          	nop
    80002960:	00000013          	nop
    80002964:	00000013          	nop
    80002968:	00000013          	nop
    8000296c:	00000013          	nop
    80002970:	00000013          	nop
    80002974:	00000013          	nop
    80002978:	00000013          	nop
    8000297c:	00000013          	nop
    80002980:	00000013          	nop
    80002984:	00000013          	nop
    80002988:	00000013          	nop
    8000298c:	00000013          	nop
    80002990:	00000013          	nop
    80002994:	00000013          	nop
    80002998:	00000013          	nop
    8000299c:	00000013          	nop
    800029a0:	00000013          	nop
    800029a4:	00000013          	nop
    800029a8:	00000013          	nop
    800029ac:	00000013          	nop
    800029b0:	00000013          	nop
    800029b4:	00000013          	nop
    800029b8:	00000013          	nop
    800029bc:	00000013          	nop
    800029c0:	00000013          	nop
    800029c4:	00000013          	nop
    800029c8:	00000013          	nop
    800029cc:	00000013          	nop
    800029d0:	00000013          	nop
    800029d4:	00000013          	nop
    800029d8:	00000013          	nop
    800029dc:	00000013          	nop
    800029e0:	00000013          	nop
    800029e4:	00000013          	nop
    800029e8:	00000013          	nop
    800029ec:	00000013          	nop
    800029f0:	00000013          	nop
    800029f4:	00000013          	nop
    800029f8:	00000013          	nop
    800029fc:	00000013          	nop
    80002a00:	00000013          	nop
    80002a04:	00000013          	nop
    80002a08:	00000013          	nop
    80002a0c:	00000013          	nop
    80002a10:	00000013          	nop
    80002a14:	00000013          	nop
    80002a18:	00000013          	nop
    80002a1c:	00000013          	nop
    80002a20:	00000013          	nop
    80002a24:	00000013          	nop
    80002a28:	00000013          	nop
    80002a2c:	00000013          	nop
    80002a30:	00000013          	nop
    80002a34:	00000013          	nop
    80002a38:	00000013          	nop
    80002a3c:	00000013          	nop
    80002a40:	00000013          	nop
    80002a44:	00000013          	nop
    80002a48:	00000013          	nop
    80002a4c:	00000013          	nop
    80002a50:	00000013          	nop
    80002a54:	00000013          	nop
    80002a58:	00000013          	nop
    80002a5c:	00000013          	nop
    80002a60:	00000013          	nop
    80002a64:	00000013          	nop
    80002a68:	00000013          	nop
    80002a6c:	00000013          	nop
    80002a70:	00000013          	nop
    80002a74:	00000013          	nop
    80002a78:	00000013          	nop
    80002a7c:	00000013          	nop
    80002a80:	00000013          	nop
    80002a84:	00000013          	nop
    80002a88:	00000013          	nop
    80002a8c:	00000013          	nop
    80002a90:	00000013          	nop
    80002a94:	00000013          	nop
    80002a98:	00000013          	nop
    80002a9c:	00000013          	nop
    80002aa0:	00000013          	nop
    80002aa4:	00000013          	nop
    80002aa8:	00000013          	nop
    80002aac:	00000013          	nop
    80002ab0:	00000013          	nop
    80002ab4:	00000013          	nop
    80002ab8:	00000013          	nop
    80002abc:	00000013          	nop
    80002ac0:	00000013          	nop
    80002ac4:	00000013          	nop
    80002ac8:	00000013          	nop
    80002acc:	00000013          	nop
    80002ad0:	00000013          	nop
    80002ad4:	00000013          	nop
    80002ad8:	00000013          	nop
    80002adc:	00000013          	nop
    80002ae0:	00000013          	nop
    80002ae4:	00000013          	nop
    80002ae8:	00000013          	nop
    80002aec:	00000013          	nop
    80002af0:	00000013          	nop
    80002af4:	00000013          	nop
    80002af8:	00000013          	nop
    80002afc:	00000013          	nop
    80002b00:	00000013          	nop
    80002b04:	00000013          	nop
    80002b08:	00000013          	nop
    80002b0c:	00000013          	nop
    80002b10:	00000013          	nop
    80002b14:	00000013          	nop
    80002b18:	00000013          	nop
    80002b1c:	00000013          	nop
    80002b20:	00000013          	nop
    80002b24:	00000013          	nop
    80002b28:	00000013          	nop
    80002b2c:	00000013          	nop
    80002b30:	00000013          	nop
    80002b34:	00000013          	nop
    80002b38:	00000013          	nop
    80002b3c:	00000013          	nop
    80002b40:	00000013          	nop
    80002b44:	00000013          	nop
    80002b48:	00000013          	nop
    80002b4c:	00000013          	nop
    80002b50:	00000013          	nop
    80002b54:	00000013          	nop
    80002b58:	00000013          	nop
    80002b5c:	00000013          	nop
    80002b60:	00000013          	nop
    80002b64:	00000013          	nop
    80002b68:	00000013          	nop
    80002b6c:	00000013          	nop
    80002b70:	00000013          	nop
    80002b74:	00000013          	nop
    80002b78:	00000013          	nop
    80002b7c:	00000013          	nop
    80002b80:	00000013          	nop
    80002b84:	00000013          	nop
    80002b88:	00000013          	nop
    80002b8c:	00000013          	nop
    80002b90:	00000013          	nop
    80002b94:	00000013          	nop
    80002b98:	00000013          	nop
    80002b9c:	00000013          	nop
    80002ba0:	00000013          	nop
    80002ba4:	00000013          	nop
    80002ba8:	00000013          	nop
    80002bac:	00000013          	nop
    80002bb0:	00000013          	nop
    80002bb4:	00000013          	nop
    80002bb8:	00000013          	nop
    80002bbc:	00000013          	nop
    80002bc0:	00000013          	nop
    80002bc4:	00000013          	nop
    80002bc8:	00000013          	nop
    80002bcc:	00000013          	nop
    80002bd0:	00000013          	nop
    80002bd4:	00000013          	nop
    80002bd8:	00000013          	nop
    80002bdc:	00000013          	nop
    80002be0:	00000013          	nop
    80002be4:	00000013          	nop
    80002be8:	00000013          	nop
    80002bec:	00000013          	nop
    80002bf0:	00000013          	nop
    80002bf4:	00000013          	nop
    80002bf8:	00000013          	nop
    80002bfc:	00000013          	nop
    80002c00:	00000013          	nop
    80002c04:	00000013          	nop
    80002c08:	00000013          	nop
    80002c0c:	00000013          	nop
    80002c10:	00000013          	nop
    80002c14:	00000013          	nop
    80002c18:	00000013          	nop
    80002c1c:	00000013          	nop
    80002c20:	00000013          	nop
    80002c24:	00000013          	nop
    80002c28:	00000013          	nop
    80002c2c:	00000013          	nop
    80002c30:	00000013          	nop
    80002c34:	00000013          	nop
    80002c38:	00000013          	nop
    80002c3c:	00000013          	nop
    80002c40:	00000013          	nop
    80002c44:	00000013          	nop
    80002c48:	00000013          	nop
    80002c4c:	00000013          	nop
    80002c50:	00000013          	nop
    80002c54:	00000013          	nop
    80002c58:	00000013          	nop
    80002c5c:	00000013          	nop
    80002c60:	00000013          	nop
    80002c64:	00000013          	nop
    80002c68:	00000013          	nop
    80002c6c:	00000013          	nop
    80002c70:	00000013          	nop
    80002c74:	00000013          	nop
    80002c78:	00000013          	nop
    80002c7c:	00000013          	nop
    80002c80:	00000013          	nop
    80002c84:	00000013          	nop
    80002c88:	00000013          	nop
    80002c8c:	00000013          	nop
    80002c90:	00000013          	nop
    80002c94:	00000013          	nop
    80002c98:	00000013          	nop
    80002c9c:	00000013          	nop
    80002ca0:	00000013          	nop
    80002ca4:	00000013          	nop
    80002ca8:	00000013          	nop
    80002cac:	00000013          	nop
    80002cb0:	00000013          	nop
    80002cb4:	00000013          	nop
    80002cb8:	00000013          	nop
    80002cbc:	00000013          	nop
    80002cc0:	00000013          	nop
    80002cc4:	00000013          	nop
    80002cc8:	00000013          	nop
    80002ccc:	00000013          	nop
    80002cd0:	00000013          	nop
    80002cd4:	00000013          	nop
    80002cd8:	00000013          	nop
    80002cdc:	00000013          	nop
    80002ce0:	00000013          	nop
    80002ce4:	00000013          	nop
    80002ce8:	00000013          	nop
    80002cec:	00000013          	nop
    80002cf0:	00000013          	nop
    80002cf4:	00000013          	nop
    80002cf8:	00000013          	nop
    80002cfc:	00000013          	nop
    80002d00:	00000013          	nop
    80002d04:	00000013          	nop
    80002d08:	00000013          	nop
    80002d0c:	00000013          	nop
    80002d10:	00000013          	nop
    80002d14:	00000013          	nop
    80002d18:	00000013          	nop
    80002d1c:	00000013          	nop
    80002d20:	00000013          	nop
    80002d24:	00000013          	nop
    80002d28:	00000013          	nop
    80002d2c:	00000013          	nop
    80002d30:	00000013          	nop
    80002d34:	00000013          	nop
    80002d38:	00000013          	nop
    80002d3c:	00000013          	nop
    80002d40:	00000013          	nop
    80002d44:	00000013          	nop
    80002d48:	00000013          	nop
    80002d4c:	00000013          	nop
    80002d50:	00000013          	nop
    80002d54:	00000013          	nop
    80002d58:	00000013          	nop
    80002d5c:	00000013          	nop
    80002d60:	00000013          	nop
    80002d64:	00000013          	nop
    80002d68:	00000013          	nop
    80002d6c:	00000013          	nop
    80002d70:	00000013          	nop
    80002d74:	00000013          	nop
    80002d78:	00000013          	nop
    80002d7c:	00000013          	nop
    80002d80:	00000013          	nop
    80002d84:	00000013          	nop
    80002d88:	00000013          	nop
    80002d8c:	00000013          	nop
    80002d90:	00000013          	nop
    80002d94:	00000013          	nop
    80002d98:	00000013          	nop
    80002d9c:	00000013          	nop
    80002da0:	00000013          	nop
    80002da4:	00000013          	nop
    80002da8:	00000013          	nop
    80002dac:	00000013          	nop
    80002db0:	00000013          	nop
    80002db4:	00000013          	nop
    80002db8:	00000013          	nop
    80002dbc:	00000013          	nop
    80002dc0:	00000013          	nop
    80002dc4:	00000013          	nop
    80002dc8:	00000013          	nop
    80002dcc:	00000013          	nop
    80002dd0:	00000013          	nop
    80002dd4:	00000013          	nop
    80002dd8:	00000013          	nop
    80002ddc:	00000013          	nop
    80002de0:	00000013          	nop
    80002de4:	00000013          	nop
    80002de8:	00000013          	nop
    80002dec:	00000013          	nop
    80002df0:	00000013          	nop
    80002df4:	00000013          	nop
    80002df8:	00000013          	nop
    80002dfc:	00000013          	nop
    80002e00:	00000013          	nop
    80002e04:	00000013          	nop
    80002e08:	00000013          	nop
    80002e0c:	00000013          	nop
    80002e10:	00000013          	nop
    80002e14:	00000013          	nop
    80002e18:	00000013          	nop
    80002e1c:	00000013          	nop
    80002e20:	00000013          	nop
    80002e24:	00000013          	nop
    80002e28:	00000013          	nop
    80002e2c:	00000013          	nop
    80002e30:	00000013          	nop
    80002e34:	00000013          	nop
    80002e38:	00000013          	nop
    80002e3c:	00000013          	nop
    80002e40:	00000013          	nop
    80002e44:	00000013          	nop
    80002e48:	00000013          	nop
    80002e4c:	00000013          	nop
    80002e50:	00000013          	nop
    80002e54:	00000013          	nop
    80002e58:	00000013          	nop
    80002e5c:	00000013          	nop
    80002e60:	00000013          	nop
    80002e64:	00000013          	nop
    80002e68:	00000013          	nop
    80002e6c:	00000013          	nop
    80002e70:	00000013          	nop
    80002e74:	00000013          	nop
    80002e78:	00000013          	nop
    80002e7c:	00000013          	nop
    80002e80:	00000013          	nop
    80002e84:	00000013          	nop
    80002e88:	00000013          	nop
    80002e8c:	00000013          	nop
    80002e90:	00000013          	nop
    80002e94:	00000013          	nop
    80002e98:	00000013          	nop
    80002e9c:	00000013          	nop
    80002ea0:	00000013          	nop
    80002ea4:	00000013          	nop
    80002ea8:	00000013          	nop
    80002eac:	00000013          	nop
    80002eb0:	00000013          	nop
    80002eb4:	00000013          	nop
    80002eb8:	00000013          	nop
    80002ebc:	00000013          	nop
    80002ec0:	00000013          	nop
    80002ec4:	00000013          	nop
    80002ec8:	00000013          	nop
    80002ecc:	00000013          	nop
    80002ed0:	00000013          	nop
    80002ed4:	00000013          	nop
    80002ed8:	00000013          	nop
    80002edc:	00000013          	nop
    80002ee0:	00000013          	nop
    80002ee4:	00000013          	nop
    80002ee8:	00000013          	nop
    80002eec:	00000013          	nop
    80002ef0:	00000013          	nop
    80002ef4:	00000013          	nop
    80002ef8:	00000013          	nop
    80002efc:	00000013          	nop
    80002f00:	00000013          	nop
    80002f04:	00000013          	nop
    80002f08:	00000013          	nop
    80002f0c:	00000013          	nop
    80002f10:	00000013          	nop
    80002f14:	00000013          	nop
    80002f18:	00000013          	nop
    80002f1c:	00000013          	nop
    80002f20:	00000013          	nop
    80002f24:	00000013          	nop
    80002f28:	00000013          	nop
    80002f2c:	00000013          	nop
    80002f30:	00000013          	nop
    80002f34:	00000013          	nop
    80002f38:	00000013          	nop
    80002f3c:	00000013          	nop
    80002f40:	00000013          	nop
    80002f44:	00000013          	nop
    80002f48:	00000013          	nop
    80002f4c:	00000013          	nop
    80002f50:	00000013          	nop
    80002f54:	00000013          	nop
    80002f58:	00000013          	nop
    80002f5c:	00000013          	nop
    80002f60:	00000013          	nop
    80002f64:	00000013          	nop
    80002f68:	00000013          	nop
    80002f6c:	00000013          	nop
    80002f70:	00000013          	nop
    80002f74:	00000013          	nop
    80002f78:	00000013          	nop
    80002f7c:	00000013          	nop
    80002f80:	00000013          	nop
    80002f84:	00000013          	nop
    80002f88:	00000013          	nop
    80002f8c:	00000013          	nop
    80002f90:	00000013          	nop
    80002f94:	00000013          	nop
    80002f98:	00000013          	nop
    80002f9c:	00000013          	nop
    80002fa0:	00000013          	nop
    80002fa4:	00000013          	nop
    80002fa8:	00000013          	nop
    80002fac:	00000013          	nop
    80002fb0:	00000013          	nop
    80002fb4:	00000013          	nop
    80002fb8:	00000013          	nop
    80002fbc:	00000013          	nop
    80002fc0:	00000013          	nop
    80002fc4:	00000013          	nop
    80002fc8:	00000013          	nop
    80002fcc:	00000013          	nop
    80002fd0:	00000013          	nop
    80002fd4:	00000013          	nop
    80002fd8:	00000013          	nop
    80002fdc:	00000013          	nop
    80002fe0:	00000013          	nop
    80002fe4:	00000013          	nop
    80002fe8:	00000013          	nop
    80002fec:	00000013          	nop
    80002ff0:	00000013          	nop
    80002ff4:	00000013          	nop
    80002ff8:	00000013          	nop
    80002ffc:	00000013          	nop
    80003000:	0000                	unimp
    80003002:	0000                	unimp
    80003004:	0000                	unimp
    80003006:	0000                	unimp
    80003008:	0000                	unimp
    8000300a:	0000                	unimp
    8000300c:	0000                	unimp
    8000300e:	0000                	unimp
    80003010:	0000                	unimp
    80003012:	0000                	unimp
    80003014:	0000                	unimp
    80003016:	0000                	unimp
    80003018:	0000                	unimp
    8000301a:	0000                	unimp
    8000301c:	0000                	unimp
    8000301e:	0000                	unimp
    80003020:	0000                	unimp
    80003022:	0000                	unimp
    80003024:	0000                	unimp
    80003026:	0000                	unimp
    80003028:	0000                	unimp
    8000302a:	0000                	unimp
    8000302c:	0000                	unimp
    8000302e:	0000                	unimp
    80003030:	0000                	unimp
    80003032:	0000                	unimp
    80003034:	0000                	unimp
    80003036:	0000                	unimp
    80003038:	0000                	unimp
    8000303a:	0000                	unimp
    8000303c:	0000                	unimp
    8000303e:	0000                	unimp
    80003040:	0000                	unimp
    80003042:	0000                	unimp
    80003044:	0000                	unimp
    80003046:	0000                	unimp
    80003048:	0000                	unimp
    8000304a:	0000                	unimp
    8000304c:	0000                	unimp
    8000304e:	0000                	unimp
    80003050:	0000                	unimp
    80003052:	0000                	unimp
    80003054:	0000                	unimp
    80003056:	0000                	unimp
    80003058:	0000                	unimp
    8000305a:	0000                	unimp
    8000305c:	0000                	unimp
    8000305e:	0000                	unimp
    80003060:	0000                	unimp
    80003062:	0000                	unimp
    80003064:	0000                	unimp
    80003066:	0000                	unimp
    80003068:	0000                	unimp
    8000306a:	0000                	unimp
    8000306c:	0000                	unimp
    8000306e:	0000                	unimp
    80003070:	0000                	unimp
    80003072:	0000                	unimp
    80003074:	0000                	unimp
    80003076:	0000                	unimp
    80003078:	0000                	unimp
    8000307a:	0000                	unimp
    8000307c:	0000                	unimp
    8000307e:	0000                	unimp
    80003080:	0000                	unimp
    80003082:	0000                	unimp
    80003084:	0000                	unimp
    80003086:	0000                	unimp
    80003088:	0000                	unimp
    8000308a:	0000                	unimp
    8000308c:	0000                	unimp
    8000308e:	0000                	unimp
    80003090:	0000                	unimp
    80003092:	0000                	unimp
    80003094:	0000                	unimp
    80003096:	0000                	unimp
    80003098:	0000                	unimp
    8000309a:	0000                	unimp
    8000309c:	0000                	unimp
    8000309e:	0000                	unimp
    800030a0:	0000                	unimp
    800030a2:	0000                	unimp
    800030a4:	0000                	unimp
    800030a6:	0000                	unimp
    800030a8:	0000                	unimp
    800030aa:	0000                	unimp
    800030ac:	0000                	unimp
    800030ae:	0000                	unimp
    800030b0:	0000                	unimp
    800030b2:	0000                	unimp
    800030b4:	0000                	unimp
    800030b6:	0000                	unimp
    800030b8:	0000                	unimp
    800030ba:	0000                	unimp
    800030bc:	0000                	unimp
    800030be:	0000                	unimp
    800030c0:	0000                	unimp
    800030c2:	0000                	unimp
    800030c4:	0000                	unimp
    800030c6:	0000                	unimp
    800030c8:	0000                	unimp
    800030ca:	0000                	unimp
    800030cc:	0000                	unimp
    800030ce:	0000                	unimp
    800030d0:	0000                	unimp
    800030d2:	0000                	unimp
    800030d4:	0000                	unimp
    800030d6:	0000                	unimp
    800030d8:	0000                	unimp
    800030da:	0000                	unimp
    800030dc:	0000                	unimp
    800030de:	0000                	unimp
    800030e0:	0000                	unimp
    800030e2:	0000                	unimp
    800030e4:	0000                	unimp
    800030e6:	0000                	unimp
    800030e8:	0000                	unimp
    800030ea:	0000                	unimp
    800030ec:	0000                	unimp
    800030ee:	0000                	unimp
    800030f0:	0000                	unimp
    800030f2:	0000                	unimp
    800030f4:	0000                	unimp
    800030f6:	0000                	unimp
    800030f8:	0000                	unimp
    800030fa:	0000                	unimp
    800030fc:	0000                	unimp
    800030fe:	0000                	unimp
    80003100:	0000                	unimp
    80003102:	0000                	unimp
    80003104:	0000                	unimp
    80003106:	0000                	unimp
    80003108:	0000                	unimp
    8000310a:	0000                	unimp
    8000310c:	0000                	unimp
    8000310e:	0000                	unimp
    80003110:	0000                	unimp
    80003112:	0000                	unimp
    80003114:	0000                	unimp
    80003116:	0000                	unimp
    80003118:	0000                	unimp
    8000311a:	0000                	unimp
    8000311c:	0000                	unimp
    8000311e:	0000                	unimp
    80003120:	0000                	unimp
    80003122:	0000                	unimp
    80003124:	0000                	unimp
    80003126:	0000                	unimp
    80003128:	0000                	unimp
    8000312a:	0000                	unimp
    8000312c:	0000                	unimp
    8000312e:	0000                	unimp
    80003130:	0000                	unimp
    80003132:	0000                	unimp
    80003134:	0000                	unimp
    80003136:	0000                	unimp
    80003138:	0000                	unimp
    8000313a:	0000                	unimp
    8000313c:	0000                	unimp
    8000313e:	0000                	unimp
    80003140:	0000                	unimp
    80003142:	0000                	unimp
    80003144:	0000                	unimp
    80003146:	0000                	unimp
    80003148:	0000                	unimp
    8000314a:	0000                	unimp
    8000314c:	0000                	unimp
    8000314e:	0000                	unimp
    80003150:	0000                	unimp
    80003152:	0000                	unimp
    80003154:	0000                	unimp
    80003156:	0000                	unimp
    80003158:	0000                	unimp
    8000315a:	0000                	unimp
    8000315c:	0000                	unimp
    8000315e:	0000                	unimp
    80003160:	0000                	unimp
    80003162:	0000                	unimp
    80003164:	0000                	unimp
    80003166:	0000                	unimp
    80003168:	0000                	unimp
    8000316a:	0000                	unimp
    8000316c:	0000                	unimp
    8000316e:	0000                	unimp
    80003170:	0000                	unimp
    80003172:	0000                	unimp
    80003174:	0000                	unimp
    80003176:	0000                	unimp
    80003178:	0000                	unimp
    8000317a:	0000                	unimp
    8000317c:	0000                	unimp
    8000317e:	0000                	unimp
    80003180:	0000                	unimp
    80003182:	0000                	unimp
    80003184:	0000                	unimp
    80003186:	0000                	unimp
    80003188:	0000                	unimp
    8000318a:	0000                	unimp
    8000318c:	0000                	unimp
    8000318e:	0000                	unimp
    80003190:	0000                	unimp
    80003192:	0000                	unimp
    80003194:	0000                	unimp
    80003196:	0000                	unimp
    80003198:	0000                	unimp
    8000319a:	0000                	unimp
    8000319c:	0000                	unimp
    8000319e:	0000                	unimp
    800031a0:	0000                	unimp
    800031a2:	0000                	unimp
    800031a4:	0000                	unimp
    800031a6:	0000                	unimp
    800031a8:	0000                	unimp
    800031aa:	0000                	unimp
    800031ac:	0000                	unimp
    800031ae:	0000                	unimp
    800031b0:	0000                	unimp
    800031b2:	0000                	unimp
    800031b4:	0000                	unimp
    800031b6:	0000                	unimp
    800031b8:	0000                	unimp
    800031ba:	0000                	unimp
    800031bc:	0000                	unimp
    800031be:	0000                	unimp
    800031c0:	0000                	unimp
    800031c2:	0000                	unimp
    800031c4:	0000                	unimp
    800031c6:	0000                	unimp
    800031c8:	0000                	unimp
    800031ca:	0000                	unimp
    800031cc:	0000                	unimp
    800031ce:	0000                	unimp
    800031d0:	0000                	unimp
    800031d2:	0000                	unimp
    800031d4:	0000                	unimp
    800031d6:	0000                	unimp
    800031d8:	0000                	unimp
    800031da:	0000                	unimp
    800031dc:	0000                	unimp
    800031de:	0000                	unimp
    800031e0:	0000                	unimp
    800031e2:	0000                	unimp
    800031e4:	0000                	unimp
    800031e6:	0000                	unimp
    800031e8:	0000                	unimp
    800031ea:	0000                	unimp
    800031ec:	0000                	unimp
    800031ee:	0000                	unimp
    800031f0:	0000                	unimp
    800031f2:	0000                	unimp
    800031f4:	0000                	unimp
    800031f6:	0000                	unimp
    800031f8:	0000                	unimp
    800031fa:	0000                	unimp
    800031fc:	0000                	unimp
    800031fe:	0000                	unimp
    80003200:	0000                	unimp
    80003202:	0000                	unimp
    80003204:	0000                	unimp
    80003206:	0000                	unimp
    80003208:	0000                	unimp
    8000320a:	0000                	unimp
    8000320c:	0000                	unimp
    8000320e:	0000                	unimp
    80003210:	0000                	unimp
    80003212:	0000                	unimp
    80003214:	0000                	unimp
    80003216:	0000                	unimp
    80003218:	0000                	unimp
    8000321a:	0000                	unimp
    8000321c:	0000                	unimp
    8000321e:	0000                	unimp
    80003220:	0000                	unimp
    80003222:	0000                	unimp
    80003224:	0000                	unimp
    80003226:	0000                	unimp
    80003228:	0000                	unimp
    8000322a:	0000                	unimp
    8000322c:	0000                	unimp
    8000322e:	0000                	unimp
    80003230:	0000                	unimp
    80003232:	0000                	unimp
    80003234:	0000                	unimp
    80003236:	0000                	unimp
    80003238:	0000                	unimp
    8000323a:	0000                	unimp
    8000323c:	0000                	unimp
    8000323e:	0000                	unimp
    80003240:	0000                	unimp
    80003242:	0000                	unimp
    80003244:	0000                	unimp
    80003246:	0000                	unimp
    80003248:	0000                	unimp
    8000324a:	0000                	unimp
    8000324c:	0000                	unimp
    8000324e:	0000                	unimp
    80003250:	0000                	unimp
    80003252:	0000                	unimp
    80003254:	0000                	unimp
    80003256:	0000                	unimp
    80003258:	0000                	unimp
    8000325a:	0000                	unimp
    8000325c:	0000                	unimp
    8000325e:	0000                	unimp
    80003260:	0000                	unimp
    80003262:	0000                	unimp
    80003264:	0000                	unimp
    80003266:	0000                	unimp
    80003268:	0000                	unimp
    8000326a:	0000                	unimp
    8000326c:	0000                	unimp
    8000326e:	0000                	unimp
    80003270:	0000                	unimp
    80003272:	0000                	unimp
    80003274:	0000                	unimp
    80003276:	0000                	unimp
    80003278:	0000                	unimp
    8000327a:	0000                	unimp
    8000327c:	0000                	unimp
    8000327e:	0000                	unimp
    80003280:	0000                	unimp
    80003282:	0000                	unimp
    80003284:	0000                	unimp
    80003286:	0000                	unimp
    80003288:	0000                	unimp
    8000328a:	0000                	unimp
    8000328c:	0000                	unimp
    8000328e:	0000                	unimp
    80003290:	0000                	unimp
    80003292:	0000                	unimp
    80003294:	0000                	unimp
    80003296:	0000                	unimp
    80003298:	0000                	unimp
    8000329a:	0000                	unimp
    8000329c:	0000                	unimp
    8000329e:	0000                	unimp
    800032a0:	0000                	unimp
    800032a2:	0000                	unimp
    800032a4:	0000                	unimp
    800032a6:	0000                	unimp
    800032a8:	0000                	unimp
    800032aa:	0000                	unimp
    800032ac:	0000                	unimp
    800032ae:	0000                	unimp
    800032b0:	0000                	unimp
    800032b2:	0000                	unimp
    800032b4:	0000                	unimp
    800032b6:	0000                	unimp
    800032b8:	0000                	unimp
    800032ba:	0000                	unimp
    800032bc:	0000                	unimp
    800032be:	0000                	unimp
    800032c0:	0000                	unimp
    800032c2:	0000                	unimp
    800032c4:	0000                	unimp
    800032c6:	0000                	unimp
    800032c8:	0000                	unimp
    800032ca:	0000                	unimp
    800032cc:	0000                	unimp
    800032ce:	0000                	unimp
    800032d0:	0000                	unimp
    800032d2:	0000                	unimp
    800032d4:	0000                	unimp
    800032d6:	0000                	unimp
    800032d8:	0000                	unimp
    800032da:	0000                	unimp
    800032dc:	0000                	unimp
    800032de:	0000                	unimp
    800032e0:	0000                	unimp
    800032e2:	0000                	unimp
    800032e4:	0000                	unimp
    800032e6:	0000                	unimp
    800032e8:	0000                	unimp
    800032ea:	0000                	unimp
    800032ec:	0000                	unimp
    800032ee:	0000                	unimp
    800032f0:	0000                	unimp
    800032f2:	0000                	unimp
    800032f4:	0000                	unimp
    800032f6:	0000                	unimp
    800032f8:	0000                	unimp
    800032fa:	0000                	unimp
    800032fc:	0000                	unimp
    800032fe:	0000                	unimp
    80003300:	0000                	unimp
    80003302:	0000                	unimp
    80003304:	0000                	unimp
    80003306:	0000                	unimp
    80003308:	0000                	unimp
    8000330a:	0000                	unimp
    8000330c:	0000                	unimp
    8000330e:	0000                	unimp
    80003310:	0000                	unimp
    80003312:	0000                	unimp
    80003314:	0000                	unimp
    80003316:	0000                	unimp
    80003318:	0000                	unimp
    8000331a:	0000                	unimp
    8000331c:	0000                	unimp
    8000331e:	0000                	unimp
    80003320:	0000                	unimp
    80003322:	0000                	unimp
    80003324:	0000                	unimp
    80003326:	0000                	unimp
    80003328:	0000                	unimp
    8000332a:	0000                	unimp
    8000332c:	0000                	unimp
    8000332e:	0000                	unimp
    80003330:	0000                	unimp
    80003332:	0000                	unimp
    80003334:	0000                	unimp
    80003336:	0000                	unimp
    80003338:	0000                	unimp
    8000333a:	0000                	unimp
    8000333c:	0000                	unimp
    8000333e:	0000                	unimp
    80003340:	0000                	unimp
    80003342:	0000                	unimp
    80003344:	0000                	unimp
    80003346:	0000                	unimp
    80003348:	0000                	unimp
    8000334a:	0000                	unimp
    8000334c:	0000                	unimp
    8000334e:	0000                	unimp
    80003350:	0000                	unimp
    80003352:	0000                	unimp
    80003354:	0000                	unimp
    80003356:	0000                	unimp
    80003358:	0000                	unimp
    8000335a:	0000                	unimp
    8000335c:	0000                	unimp
    8000335e:	0000                	unimp
    80003360:	0000                	unimp
    80003362:	0000                	unimp
    80003364:	0000                	unimp
    80003366:	0000                	unimp
    80003368:	0000                	unimp
    8000336a:	0000                	unimp
    8000336c:	0000                	unimp
    8000336e:	0000                	unimp
    80003370:	0000                	unimp
    80003372:	0000                	unimp
    80003374:	0000                	unimp
    80003376:	0000                	unimp
    80003378:	0000                	unimp
    8000337a:	0000                	unimp
    8000337c:	0000                	unimp
    8000337e:	0000                	unimp
    80003380:	0000                	unimp
    80003382:	0000                	unimp
    80003384:	0000                	unimp
    80003386:	0000                	unimp
    80003388:	0000                	unimp
    8000338a:	0000                	unimp
    8000338c:	0000                	unimp
    8000338e:	0000                	unimp
    80003390:	0000                	unimp
    80003392:	0000                	unimp
    80003394:	0000                	unimp
    80003396:	0000                	unimp
    80003398:	0000                	unimp
    8000339a:	0000                	unimp
    8000339c:	0000                	unimp
    8000339e:	0000                	unimp
    800033a0:	0000                	unimp
    800033a2:	0000                	unimp
    800033a4:	0000                	unimp
    800033a6:	0000                	unimp
    800033a8:	0000                	unimp
    800033aa:	0000                	unimp
    800033ac:	0000                	unimp
    800033ae:	0000                	unimp
    800033b0:	0000                	unimp
    800033b2:	0000                	unimp
    800033b4:	0000                	unimp
    800033b6:	0000                	unimp
    800033b8:	0000                	unimp
    800033ba:	0000                	unimp
    800033bc:	0000                	unimp
    800033be:	0000                	unimp
    800033c0:	0000                	unimp
    800033c2:	0000                	unimp
    800033c4:	0000                	unimp
    800033c6:	0000                	unimp
    800033c8:	0000                	unimp
    800033ca:	0000                	unimp
    800033cc:	0000                	unimp
    800033ce:	0000                	unimp
    800033d0:	0000                	unimp
    800033d2:	0000                	unimp
    800033d4:	0000                	unimp
    800033d6:	0000                	unimp
    800033d8:	0000                	unimp
    800033da:	0000                	unimp
    800033dc:	0000                	unimp
    800033de:	0000                	unimp
    800033e0:	0000                	unimp
    800033e2:	0000                	unimp
    800033e4:	0000                	unimp
    800033e6:	0000                	unimp
    800033e8:	0000                	unimp
    800033ea:	0000                	unimp
    800033ec:	0000                	unimp
    800033ee:	0000                	unimp
    800033f0:	0000                	unimp
    800033f2:	0000                	unimp
    800033f4:	0000                	unimp
    800033f6:	0000                	unimp
    800033f8:	0000                	unimp
    800033fa:	0000                	unimp
    800033fc:	0000                	unimp
    800033fe:	0000                	unimp
    80003400:	0000                	unimp
    80003402:	0000                	unimp
    80003404:	0000                	unimp
    80003406:	0000                	unimp
    80003408:	0000                	unimp
    8000340a:	0000                	unimp
    8000340c:	0000                	unimp
    8000340e:	0000                	unimp
    80003410:	0000                	unimp
    80003412:	0000                	unimp
    80003414:	0000                	unimp
    80003416:	0000                	unimp
    80003418:	0000                	unimp
    8000341a:	0000                	unimp
    8000341c:	0000                	unimp
    8000341e:	0000                	unimp
    80003420:	0000                	unimp
    80003422:	0000                	unimp
    80003424:	0000                	unimp
    80003426:	0000                	unimp
    80003428:	0000                	unimp
    8000342a:	0000                	unimp
    8000342c:	0000                	unimp
    8000342e:	0000                	unimp
    80003430:	0000                	unimp
    80003432:	0000                	unimp
    80003434:	0000                	unimp
    80003436:	0000                	unimp
    80003438:	0000                	unimp
    8000343a:	0000                	unimp
    8000343c:	0000                	unimp
    8000343e:	0000                	unimp
    80003440:	0000                	unimp
    80003442:	0000                	unimp
    80003444:	0000                	unimp
    80003446:	0000                	unimp
    80003448:	0000                	unimp
    8000344a:	0000                	unimp
    8000344c:	0000                	unimp
    8000344e:	0000                	unimp
    80003450:	0000                	unimp
    80003452:	0000                	unimp
    80003454:	0000                	unimp
    80003456:	0000                	unimp
    80003458:	0000                	unimp
    8000345a:	0000                	unimp
    8000345c:	0000                	unimp
    8000345e:	0000                	unimp
    80003460:	0000                	unimp
    80003462:	0000                	unimp
    80003464:	0000                	unimp
    80003466:	0000                	unimp
    80003468:	0000                	unimp
    8000346a:	0000                	unimp
    8000346c:	0000                	unimp
    8000346e:	0000                	unimp
    80003470:	0000                	unimp
    80003472:	0000                	unimp
    80003474:	0000                	unimp
    80003476:	0000                	unimp
    80003478:	0000                	unimp
    8000347a:	0000                	unimp
    8000347c:	0000                	unimp
    8000347e:	0000                	unimp
    80003480:	0000                	unimp
    80003482:	0000                	unimp
    80003484:	0000                	unimp
    80003486:	0000                	unimp
    80003488:	0000                	unimp
    8000348a:	0000                	unimp
    8000348c:	0000                	unimp
    8000348e:	0000                	unimp
    80003490:	0000                	unimp
    80003492:	0000                	unimp
    80003494:	0000                	unimp
    80003496:	0000                	unimp
    80003498:	0000                	unimp
    8000349a:	0000                	unimp
    8000349c:	0000                	unimp
    8000349e:	0000                	unimp
    800034a0:	0000                	unimp
    800034a2:	0000                	unimp
    800034a4:	0000                	unimp
    800034a6:	0000                	unimp
    800034a8:	0000                	unimp
    800034aa:	0000                	unimp
    800034ac:	0000                	unimp
    800034ae:	0000                	unimp
    800034b0:	0000                	unimp
    800034b2:	0000                	unimp
    800034b4:	0000                	unimp
    800034b6:	0000                	unimp
    800034b8:	0000                	unimp
    800034ba:	0000                	unimp
    800034bc:	0000                	unimp
    800034be:	0000                	unimp
    800034c0:	0000                	unimp
    800034c2:	0000                	unimp
    800034c4:	0000                	unimp
    800034c6:	0000                	unimp
    800034c8:	0000                	unimp
    800034ca:	0000                	unimp
    800034cc:	0000                	unimp
    800034ce:	0000                	unimp
    800034d0:	0000                	unimp
    800034d2:	0000                	unimp
    800034d4:	0000                	unimp
    800034d6:	0000                	unimp
    800034d8:	0000                	unimp
    800034da:	0000                	unimp
    800034dc:	0000                	unimp
    800034de:	0000                	unimp
    800034e0:	0000                	unimp
    800034e2:	0000                	unimp
    800034e4:	0000                	unimp
    800034e6:	0000                	unimp
    800034e8:	0000                	unimp
    800034ea:	0000                	unimp
    800034ec:	0000                	unimp
    800034ee:	0000                	unimp
    800034f0:	0000                	unimp
    800034f2:	0000                	unimp
    800034f4:	0000                	unimp
    800034f6:	0000                	unimp
    800034f8:	0000                	unimp
    800034fa:	0000                	unimp
    800034fc:	0000                	unimp
    800034fe:	0000                	unimp
    80003500:	0000                	unimp
    80003502:	0000                	unimp
    80003504:	0000                	unimp
    80003506:	0000                	unimp
    80003508:	0000                	unimp
    8000350a:	0000                	unimp
    8000350c:	0000                	unimp
    8000350e:	0000                	unimp
    80003510:	0000                	unimp
    80003512:	0000                	unimp
    80003514:	0000                	unimp
    80003516:	0000                	unimp
    80003518:	0000                	unimp
    8000351a:	0000                	unimp
    8000351c:	0000                	unimp
    8000351e:	0000                	unimp
    80003520:	0000                	unimp
    80003522:	0000                	unimp
    80003524:	0000                	unimp
    80003526:	0000                	unimp
    80003528:	0000                	unimp
    8000352a:	0000                	unimp
    8000352c:	0000                	unimp
    8000352e:	0000                	unimp
    80003530:	0000                	unimp
    80003532:	0000                	unimp
    80003534:	0000                	unimp
    80003536:	0000                	unimp
    80003538:	0000                	unimp
    8000353a:	0000                	unimp
    8000353c:	0000                	unimp
    8000353e:	0000                	unimp
    80003540:	0000                	unimp
    80003542:	0000                	unimp
    80003544:	0000                	unimp
    80003546:	0000                	unimp
    80003548:	0000                	unimp
    8000354a:	0000                	unimp
    8000354c:	0000                	unimp
    8000354e:	0000                	unimp
    80003550:	0000                	unimp
    80003552:	0000                	unimp
    80003554:	0000                	unimp
    80003556:	0000                	unimp
    80003558:	0000                	unimp
    8000355a:	0000                	unimp
    8000355c:	0000                	unimp
    8000355e:	0000                	unimp
    80003560:	0000                	unimp
    80003562:	0000                	unimp
    80003564:	0000                	unimp
    80003566:	0000                	unimp
    80003568:	0000                	unimp
    8000356a:	0000                	unimp
    8000356c:	0000                	unimp
    8000356e:	0000                	unimp
    80003570:	0000                	unimp
    80003572:	0000                	unimp
    80003574:	0000                	unimp
    80003576:	0000                	unimp
    80003578:	0000                	unimp
    8000357a:	0000                	unimp
    8000357c:	0000                	unimp
    8000357e:	0000                	unimp
    80003580:	0000                	unimp
    80003582:	0000                	unimp
    80003584:	0000                	unimp
    80003586:	0000                	unimp
    80003588:	0000                	unimp
    8000358a:	0000                	unimp
    8000358c:	0000                	unimp
    8000358e:	0000                	unimp
    80003590:	0000                	unimp
    80003592:	0000                	unimp
    80003594:	0000                	unimp
    80003596:	0000                	unimp
    80003598:	0000                	unimp
    8000359a:	0000                	unimp
    8000359c:	0000                	unimp
    8000359e:	0000                	unimp
    800035a0:	0000                	unimp
    800035a2:	0000                	unimp
    800035a4:	0000                	unimp
    800035a6:	0000                	unimp
    800035a8:	0000                	unimp
    800035aa:	0000                	unimp
    800035ac:	0000                	unimp
    800035ae:	0000                	unimp
    800035b0:	0000                	unimp
    800035b2:	0000                	unimp
    800035b4:	0000                	unimp
    800035b6:	0000                	unimp
    800035b8:	0000                	unimp
    800035ba:	0000                	unimp
    800035bc:	0000                	unimp
    800035be:	0000                	unimp
    800035c0:	0000                	unimp
    800035c2:	0000                	unimp
    800035c4:	0000                	unimp
    800035c6:	0000                	unimp
    800035c8:	0000                	unimp
    800035ca:	0000                	unimp
    800035cc:	0000                	unimp
    800035ce:	0000                	unimp
    800035d0:	0000                	unimp
    800035d2:	0000                	unimp
    800035d4:	0000                	unimp
    800035d6:	0000                	unimp
    800035d8:	0000                	unimp
    800035da:	0000                	unimp
    800035dc:	0000                	unimp
    800035de:	0000                	unimp
    800035e0:	0000                	unimp
    800035e2:	0000                	unimp
    800035e4:	0000                	unimp
    800035e6:	0000                	unimp
    800035e8:	0000                	unimp
    800035ea:	0000                	unimp
    800035ec:	0000                	unimp
    800035ee:	0000                	unimp
    800035f0:	0000                	unimp
    800035f2:	0000                	unimp
    800035f4:	0000                	unimp
    800035f6:	0000                	unimp
    800035f8:	0000                	unimp
    800035fa:	0000                	unimp
    800035fc:	0000                	unimp
    800035fe:	0000                	unimp
    80003600:	0000                	unimp
    80003602:	0000                	unimp
    80003604:	0000                	unimp
    80003606:	0000                	unimp
    80003608:	0000                	unimp
    8000360a:	0000                	unimp
    8000360c:	0000                	unimp
    8000360e:	0000                	unimp
    80003610:	0000                	unimp
    80003612:	0000                	unimp
    80003614:	0000                	unimp
    80003616:	0000                	unimp
    80003618:	0000                	unimp
    8000361a:	0000                	unimp
    8000361c:	0000                	unimp
    8000361e:	0000                	unimp
    80003620:	0000                	unimp
    80003622:	0000                	unimp
    80003624:	0000                	unimp
    80003626:	0000                	unimp
    80003628:	0000                	unimp
    8000362a:	0000                	unimp
    8000362c:	0000                	unimp
    8000362e:	0000                	unimp
    80003630:	0000                	unimp
    80003632:	0000                	unimp
    80003634:	0000                	unimp
    80003636:	0000                	unimp
    80003638:	0000                	unimp
    8000363a:	0000                	unimp
    8000363c:	0000                	unimp
    8000363e:	0000                	unimp
    80003640:	0000                	unimp
    80003642:	0000                	unimp
    80003644:	0000                	unimp
    80003646:	0000                	unimp
    80003648:	0000                	unimp
    8000364a:	0000                	unimp
    8000364c:	0000                	unimp
    8000364e:	0000                	unimp
    80003650:	0000                	unimp
    80003652:	0000                	unimp
    80003654:	0000                	unimp
    80003656:	0000                	unimp
    80003658:	0000                	unimp
    8000365a:	0000                	unimp
    8000365c:	0000                	unimp
    8000365e:	0000                	unimp
    80003660:	0000                	unimp
    80003662:	0000                	unimp
    80003664:	0000                	unimp
    80003666:	0000                	unimp
    80003668:	0000                	unimp
    8000366a:	0000                	unimp
    8000366c:	0000                	unimp
    8000366e:	0000                	unimp
    80003670:	0000                	unimp
    80003672:	0000                	unimp
    80003674:	0000                	unimp
    80003676:	0000                	unimp
    80003678:	0000                	unimp
    8000367a:	0000                	unimp
    8000367c:	0000                	unimp
    8000367e:	0000                	unimp
    80003680:	0000                	unimp
    80003682:	0000                	unimp
    80003684:	0000                	unimp
    80003686:	0000                	unimp
    80003688:	0000                	unimp
    8000368a:	0000                	unimp
    8000368c:	0000                	unimp
    8000368e:	0000                	unimp
    80003690:	0000                	unimp
    80003692:	0000                	unimp
    80003694:	0000                	unimp
    80003696:	0000                	unimp
    80003698:	0000                	unimp
    8000369a:	0000                	unimp
    8000369c:	0000                	unimp
    8000369e:	0000                	unimp
    800036a0:	0000                	unimp
    800036a2:	0000                	unimp
    800036a4:	0000                	unimp
    800036a6:	0000                	unimp
    800036a8:	0000                	unimp
    800036aa:	0000                	unimp
    800036ac:	0000                	unimp
    800036ae:	0000                	unimp
    800036b0:	0000                	unimp
    800036b2:	0000                	unimp
    800036b4:	0000                	unimp
    800036b6:	0000                	unimp
    800036b8:	0000                	unimp
    800036ba:	0000                	unimp
    800036bc:	0000                	unimp
    800036be:	0000                	unimp
    800036c0:	0000                	unimp
    800036c2:	0000                	unimp
    800036c4:	0000                	unimp
    800036c6:	0000                	unimp
    800036c8:	0000                	unimp
    800036ca:	0000                	unimp
    800036cc:	0000                	unimp
    800036ce:	0000                	unimp
    800036d0:	0000                	unimp
    800036d2:	0000                	unimp
    800036d4:	0000                	unimp
    800036d6:	0000                	unimp
    800036d8:	0000                	unimp
    800036da:	0000                	unimp
    800036dc:	0000                	unimp
    800036de:	0000                	unimp
    800036e0:	0000                	unimp
    800036e2:	0000                	unimp
    800036e4:	0000                	unimp
    800036e6:	0000                	unimp
    800036e8:	0000                	unimp
    800036ea:	0000                	unimp
    800036ec:	0000                	unimp
    800036ee:	0000                	unimp
    800036f0:	0000                	unimp
    800036f2:	0000                	unimp
    800036f4:	0000                	unimp
    800036f6:	0000                	unimp
    800036f8:	0000                	unimp
    800036fa:	0000                	unimp
    800036fc:	0000                	unimp
    800036fe:	0000                	unimp
    80003700:	0000                	unimp
    80003702:	0000                	unimp
    80003704:	0000                	unimp
    80003706:	0000                	unimp
    80003708:	0000                	unimp
    8000370a:	0000                	unimp
    8000370c:	0000                	unimp
    8000370e:	0000                	unimp
    80003710:	0000                	unimp
    80003712:	0000                	unimp
    80003714:	0000                	unimp
    80003716:	0000                	unimp
    80003718:	0000                	unimp
    8000371a:	0000                	unimp
    8000371c:	0000                	unimp
    8000371e:	0000                	unimp
    80003720:	0000                	unimp
    80003722:	0000                	unimp
    80003724:	0000                	unimp
    80003726:	0000                	unimp
    80003728:	0000                	unimp
    8000372a:	0000                	unimp
    8000372c:	0000                	unimp
    8000372e:	0000                	unimp
    80003730:	0000                	unimp
    80003732:	0000                	unimp
    80003734:	0000                	unimp
    80003736:	0000                	unimp
    80003738:	0000                	unimp
    8000373a:	0000                	unimp
    8000373c:	0000                	unimp
    8000373e:	0000                	unimp
    80003740:	0000                	unimp
    80003742:	0000                	unimp
    80003744:	0000                	unimp
    80003746:	0000                	unimp
    80003748:	0000                	unimp
    8000374a:	0000                	unimp
    8000374c:	0000                	unimp
    8000374e:	0000                	unimp
    80003750:	0000                	unimp
    80003752:	0000                	unimp
    80003754:	0000                	unimp
    80003756:	0000                	unimp
    80003758:	0000                	unimp
    8000375a:	0000                	unimp
    8000375c:	0000                	unimp
    8000375e:	0000                	unimp
    80003760:	0000                	unimp
    80003762:	0000                	unimp
    80003764:	0000                	unimp
    80003766:	0000                	unimp
    80003768:	0000                	unimp
    8000376a:	0000                	unimp
    8000376c:	0000                	unimp
    8000376e:	0000                	unimp
    80003770:	0000                	unimp
    80003772:	0000                	unimp
    80003774:	0000                	unimp
    80003776:	0000                	unimp
    80003778:	0000                	unimp
    8000377a:	0000                	unimp
    8000377c:	0000                	unimp
    8000377e:	0000                	unimp
    80003780:	0000                	unimp
    80003782:	0000                	unimp
    80003784:	0000                	unimp
    80003786:	0000                	unimp
    80003788:	0000                	unimp
    8000378a:	0000                	unimp
    8000378c:	0000                	unimp
    8000378e:	0000                	unimp
    80003790:	0000                	unimp
    80003792:	0000                	unimp
    80003794:	0000                	unimp
    80003796:	0000                	unimp
    80003798:	0000                	unimp
    8000379a:	0000                	unimp
    8000379c:	0000                	unimp
    8000379e:	0000                	unimp
    800037a0:	0000                	unimp
    800037a2:	0000                	unimp
    800037a4:	0000                	unimp
    800037a6:	0000                	unimp
    800037a8:	0000                	unimp
    800037aa:	0000                	unimp
    800037ac:	0000                	unimp
    800037ae:	0000                	unimp
    800037b0:	0000                	unimp
    800037b2:	0000                	unimp
    800037b4:	0000                	unimp
    800037b6:	0000                	unimp
    800037b8:	0000                	unimp
    800037ba:	0000                	unimp
    800037bc:	0000                	unimp
    800037be:	0000                	unimp
    800037c0:	0000                	unimp
    800037c2:	0000                	unimp
    800037c4:	0000                	unimp
    800037c6:	0000                	unimp
    800037c8:	0000                	unimp
    800037ca:	0000                	unimp
    800037cc:	0000                	unimp
    800037ce:	0000                	unimp
    800037d0:	0000                	unimp
    800037d2:	0000                	unimp
    800037d4:	0000                	unimp
    800037d6:	0000                	unimp
    800037d8:	0000                	unimp
    800037da:	0000                	unimp
    800037dc:	0000                	unimp
    800037de:	0000                	unimp
    800037e0:	0000                	unimp
    800037e2:	0000                	unimp
    800037e4:	0000                	unimp
    800037e6:	0000                	unimp
    800037e8:	0000                	unimp
    800037ea:	0000                	unimp
    800037ec:	0000                	unimp
    800037ee:	0000                	unimp
    800037f0:	0000                	unimp
    800037f2:	0000                	unimp
    800037f4:	0000                	unimp
    800037f6:	0000                	unimp
    800037f8:	0000                	unimp
    800037fa:	0000                	unimp
    800037fc:	0000                	unimp
    800037fe:	0000                	unimp
    80003800:	0000                	unimp
    80003802:	0000                	unimp
    80003804:	0000                	unimp
    80003806:	0000                	unimp
    80003808:	0000                	unimp
    8000380a:	0000                	unimp
    8000380c:	0000                	unimp
    8000380e:	0000                	unimp
    80003810:	0000                	unimp
    80003812:	0000                	unimp
    80003814:	0000                	unimp
    80003816:	0000                	unimp
    80003818:	0000                	unimp
    8000381a:	0000                	unimp
    8000381c:	0000                	unimp
    8000381e:	0000                	unimp
    80003820:	0000                	unimp
    80003822:	0000                	unimp
    80003824:	0000                	unimp
    80003826:	0000                	unimp
    80003828:	0000                	unimp
    8000382a:	0000                	unimp
    8000382c:	0000                	unimp
    8000382e:	0000                	unimp
    80003830:	0000                	unimp
    80003832:	0000                	unimp
    80003834:	0000                	unimp
    80003836:	0000                	unimp
    80003838:	0000                	unimp
    8000383a:	0000                	unimp
    8000383c:	0000                	unimp
    8000383e:	0000                	unimp
    80003840:	0000                	unimp
    80003842:	0000                	unimp
    80003844:	0000                	unimp
    80003846:	0000                	unimp
    80003848:	0000                	unimp
    8000384a:	0000                	unimp
    8000384c:	0000                	unimp
    8000384e:	0000                	unimp
    80003850:	0000                	unimp
    80003852:	0000                	unimp
    80003854:	0000                	unimp
    80003856:	0000                	unimp
    80003858:	0000                	unimp
    8000385a:	0000                	unimp
    8000385c:	0000                	unimp
    8000385e:	0000                	unimp
    80003860:	0000                	unimp
    80003862:	0000                	unimp
    80003864:	0000                	unimp
    80003866:	0000                	unimp
    80003868:	0000                	unimp
    8000386a:	0000                	unimp
    8000386c:	0000                	unimp
    8000386e:	0000                	unimp
    80003870:	0000                	unimp
    80003872:	0000                	unimp
    80003874:	0000                	unimp
    80003876:	0000                	unimp
    80003878:	0000                	unimp
    8000387a:	0000                	unimp
    8000387c:	0000                	unimp
    8000387e:	0000                	unimp
    80003880:	0000                	unimp
    80003882:	0000                	unimp
    80003884:	0000                	unimp
    80003886:	0000                	unimp
    80003888:	0000                	unimp
    8000388a:	0000                	unimp
    8000388c:	0000                	unimp
    8000388e:	0000                	unimp
    80003890:	0000                	unimp
    80003892:	0000                	unimp
    80003894:	0000                	unimp
    80003896:	0000                	unimp
    80003898:	0000                	unimp
    8000389a:	0000                	unimp
    8000389c:	0000                	unimp
    8000389e:	0000                	unimp
    800038a0:	0000                	unimp
    800038a2:	0000                	unimp
    800038a4:	0000                	unimp
    800038a6:	0000                	unimp
    800038a8:	0000                	unimp
    800038aa:	0000                	unimp
    800038ac:	0000                	unimp
    800038ae:	0000                	unimp
    800038b0:	0000                	unimp
    800038b2:	0000                	unimp
    800038b4:	0000                	unimp
    800038b6:	0000                	unimp
    800038b8:	0000                	unimp
    800038ba:	0000                	unimp
    800038bc:	0000                	unimp
    800038be:	0000                	unimp
    800038c0:	0000                	unimp
    800038c2:	0000                	unimp
    800038c4:	0000                	unimp
    800038c6:	0000                	unimp
    800038c8:	0000                	unimp
    800038ca:	0000                	unimp
    800038cc:	0000                	unimp
    800038ce:	0000                	unimp
    800038d0:	0000                	unimp
    800038d2:	0000                	unimp
    800038d4:	0000                	unimp
    800038d6:	0000                	unimp
    800038d8:	0000                	unimp
    800038da:	0000                	unimp
    800038dc:	0000                	unimp
    800038de:	0000                	unimp
    800038e0:	0000                	unimp
    800038e2:	0000                	unimp
    800038e4:	0000                	unimp
    800038e6:	0000                	unimp
    800038e8:	0000                	unimp
    800038ea:	0000                	unimp
    800038ec:	0000                	unimp
    800038ee:	0000                	unimp
    800038f0:	0000                	unimp
    800038f2:	0000                	unimp
    800038f4:	0000                	unimp
    800038f6:	0000                	unimp
    800038f8:	0000                	unimp
    800038fa:	0000                	unimp
    800038fc:	0000                	unimp
    800038fe:	0000                	unimp
    80003900:	0000                	unimp
    80003902:	0000                	unimp
    80003904:	0000                	unimp
    80003906:	0000                	unimp
    80003908:	0000                	unimp
    8000390a:	0000                	unimp
    8000390c:	0000                	unimp
    8000390e:	0000                	unimp
    80003910:	0000                	unimp
    80003912:	0000                	unimp
    80003914:	0000                	unimp
    80003916:	0000                	unimp
    80003918:	0000                	unimp
    8000391a:	0000                	unimp
    8000391c:	0000                	unimp
    8000391e:	0000                	unimp
    80003920:	0000                	unimp
    80003922:	0000                	unimp
    80003924:	0000                	unimp
    80003926:	0000                	unimp
    80003928:	0000                	unimp
    8000392a:	0000                	unimp
    8000392c:	0000                	unimp
    8000392e:	0000                	unimp
    80003930:	0000                	unimp
    80003932:	0000                	unimp
    80003934:	0000                	unimp
    80003936:	0000                	unimp
    80003938:	0000                	unimp
    8000393a:	0000                	unimp
    8000393c:	0000                	unimp
    8000393e:	0000                	unimp
    80003940:	0000                	unimp
    80003942:	0000                	unimp
    80003944:	0000                	unimp
    80003946:	0000                	unimp
    80003948:	0000                	unimp
    8000394a:	0000                	unimp
    8000394c:	0000                	unimp
    8000394e:	0000                	unimp
    80003950:	0000                	unimp
    80003952:	0000                	unimp
    80003954:	0000                	unimp
    80003956:	0000                	unimp
    80003958:	0000                	unimp
    8000395a:	0000                	unimp
    8000395c:	0000                	unimp
    8000395e:	0000                	unimp
    80003960:	0000                	unimp
    80003962:	0000                	unimp
    80003964:	0000                	unimp
    80003966:	0000                	unimp
    80003968:	0000                	unimp
    8000396a:	0000                	unimp
    8000396c:	0000                	unimp
    8000396e:	0000                	unimp
    80003970:	0000                	unimp
    80003972:	0000                	unimp
    80003974:	0000                	unimp
    80003976:	0000                	unimp
    80003978:	0000                	unimp
    8000397a:	0000                	unimp
    8000397c:	0000                	unimp
    8000397e:	0000                	unimp
    80003980:	0000                	unimp
    80003982:	0000                	unimp
    80003984:	0000                	unimp
    80003986:	0000                	unimp
    80003988:	0000                	unimp
    8000398a:	0000                	unimp
    8000398c:	0000                	unimp
    8000398e:	0000                	unimp
    80003990:	0000                	unimp
    80003992:	0000                	unimp
    80003994:	0000                	unimp
    80003996:	0000                	unimp
    80003998:	0000                	unimp
    8000399a:	0000                	unimp
    8000399c:	0000                	unimp
    8000399e:	0000                	unimp
    800039a0:	0000                	unimp
    800039a2:	0000                	unimp
    800039a4:	0000                	unimp
    800039a6:	0000                	unimp
    800039a8:	0000                	unimp
    800039aa:	0000                	unimp
    800039ac:	0000                	unimp
    800039ae:	0000                	unimp
    800039b0:	0000                	unimp
    800039b2:	0000                	unimp
    800039b4:	0000                	unimp
    800039b6:	0000                	unimp
    800039b8:	0000                	unimp
    800039ba:	0000                	unimp
    800039bc:	0000                	unimp
    800039be:	0000                	unimp
    800039c0:	0000                	unimp
    800039c2:	0000                	unimp
    800039c4:	0000                	unimp
    800039c6:	0000                	unimp
    800039c8:	0000                	unimp
    800039ca:	0000                	unimp
    800039cc:	0000                	unimp
    800039ce:	0000                	unimp
    800039d0:	0000                	unimp
    800039d2:	0000                	unimp
    800039d4:	0000                	unimp
    800039d6:	0000                	unimp
    800039d8:	0000                	unimp
    800039da:	0000                	unimp
    800039dc:	0000                	unimp
    800039de:	0000                	unimp
    800039e0:	0000                	unimp
    800039e2:	0000                	unimp
    800039e4:	0000                	unimp
    800039e6:	0000                	unimp
    800039e8:	0000                	unimp
    800039ea:	0000                	unimp
    800039ec:	0000                	unimp
    800039ee:	0000                	unimp
    800039f0:	0000                	unimp
    800039f2:	0000                	unimp
    800039f4:	0000                	unimp
    800039f6:	0000                	unimp
    800039f8:	0000                	unimp
    800039fa:	0000                	unimp
    800039fc:	0000                	unimp
    800039fe:	0000                	unimp
    80003a00:	0000                	unimp
    80003a02:	0000                	unimp
    80003a04:	0000                	unimp
    80003a06:	0000                	unimp
    80003a08:	0000                	unimp
    80003a0a:	0000                	unimp
    80003a0c:	0000                	unimp
    80003a0e:	0000                	unimp
    80003a10:	0000                	unimp
    80003a12:	0000                	unimp
    80003a14:	0000                	unimp
    80003a16:	0000                	unimp
    80003a18:	0000                	unimp
    80003a1a:	0000                	unimp
    80003a1c:	0000                	unimp
    80003a1e:	0000                	unimp
    80003a20:	0000                	unimp
    80003a22:	0000                	unimp
    80003a24:	0000                	unimp
    80003a26:	0000                	unimp
    80003a28:	0000                	unimp
    80003a2a:	0000                	unimp
    80003a2c:	0000                	unimp
    80003a2e:	0000                	unimp
    80003a30:	0000                	unimp
    80003a32:	0000                	unimp
    80003a34:	0000                	unimp
    80003a36:	0000                	unimp
    80003a38:	0000                	unimp
    80003a3a:	0000                	unimp
    80003a3c:	0000                	unimp
    80003a3e:	0000                	unimp
    80003a40:	0000                	unimp
    80003a42:	0000                	unimp
    80003a44:	0000                	unimp
    80003a46:	0000                	unimp
    80003a48:	0000                	unimp
    80003a4a:	0000                	unimp
    80003a4c:	0000                	unimp
    80003a4e:	0000                	unimp
    80003a50:	0000                	unimp
    80003a52:	0000                	unimp
    80003a54:	0000                	unimp
    80003a56:	0000                	unimp
    80003a58:	0000                	unimp
    80003a5a:	0000                	unimp
    80003a5c:	0000                	unimp
    80003a5e:	0000                	unimp
    80003a60:	0000                	unimp
    80003a62:	0000                	unimp
    80003a64:	0000                	unimp
    80003a66:	0000                	unimp
    80003a68:	0000                	unimp
    80003a6a:	0000                	unimp
    80003a6c:	0000                	unimp
    80003a6e:	0000                	unimp
    80003a70:	0000                	unimp
    80003a72:	0000                	unimp
    80003a74:	0000                	unimp
    80003a76:	0000                	unimp
    80003a78:	0000                	unimp
    80003a7a:	0000                	unimp
    80003a7c:	0000                	unimp
    80003a7e:	0000                	unimp
    80003a80:	0000                	unimp
    80003a82:	0000                	unimp
    80003a84:	0000                	unimp
    80003a86:	0000                	unimp
    80003a88:	0000                	unimp
    80003a8a:	0000                	unimp
    80003a8c:	0000                	unimp
    80003a8e:	0000                	unimp
    80003a90:	0000                	unimp
    80003a92:	0000                	unimp
    80003a94:	0000                	unimp
    80003a96:	0000                	unimp
    80003a98:	0000                	unimp
    80003a9a:	0000                	unimp
    80003a9c:	0000                	unimp
    80003a9e:	0000                	unimp
    80003aa0:	0000                	unimp
    80003aa2:	0000                	unimp
    80003aa4:	0000                	unimp
    80003aa6:	0000                	unimp
    80003aa8:	0000                	unimp
    80003aaa:	0000                	unimp
    80003aac:	0000                	unimp
    80003aae:	0000                	unimp
    80003ab0:	0000                	unimp
    80003ab2:	0000                	unimp
    80003ab4:	0000                	unimp
    80003ab6:	0000                	unimp
    80003ab8:	0000                	unimp
    80003aba:	0000                	unimp
    80003abc:	0000                	unimp
    80003abe:	0000                	unimp
    80003ac0:	0000                	unimp
    80003ac2:	0000                	unimp
    80003ac4:	0000                	unimp
    80003ac6:	0000                	unimp
    80003ac8:	0000                	unimp
    80003aca:	0000                	unimp
    80003acc:	0000                	unimp
    80003ace:	0000                	unimp
    80003ad0:	0000                	unimp
    80003ad2:	0000                	unimp
    80003ad4:	0000                	unimp
    80003ad6:	0000                	unimp
    80003ad8:	0000                	unimp
    80003ada:	0000                	unimp
    80003adc:	0000                	unimp
    80003ade:	0000                	unimp
    80003ae0:	0000                	unimp
    80003ae2:	0000                	unimp
    80003ae4:	0000                	unimp
    80003ae6:	0000                	unimp
    80003ae8:	0000                	unimp
    80003aea:	0000                	unimp
    80003aec:	0000                	unimp
    80003aee:	0000                	unimp
    80003af0:	0000                	unimp
    80003af2:	0000                	unimp
    80003af4:	0000                	unimp
    80003af6:	0000                	unimp
    80003af8:	0000                	unimp
    80003afa:	0000                	unimp
    80003afc:	0000                	unimp
    80003afe:	0000                	unimp
    80003b00:	0000                	unimp
    80003b02:	0000                	unimp
    80003b04:	0000                	unimp
    80003b06:	0000                	unimp
    80003b08:	0000                	unimp
    80003b0a:	0000                	unimp
    80003b0c:	0000                	unimp
    80003b0e:	0000                	unimp
    80003b10:	0000                	unimp
    80003b12:	0000                	unimp
    80003b14:	0000                	unimp
    80003b16:	0000                	unimp
    80003b18:	0000                	unimp
    80003b1a:	0000                	unimp
    80003b1c:	0000                	unimp
    80003b1e:	0000                	unimp
    80003b20:	0000                	unimp
    80003b22:	0000                	unimp
    80003b24:	0000                	unimp
    80003b26:	0000                	unimp
    80003b28:	0000                	unimp
    80003b2a:	0000                	unimp
    80003b2c:	0000                	unimp
    80003b2e:	0000                	unimp
    80003b30:	0000                	unimp
    80003b32:	0000                	unimp
    80003b34:	0000                	unimp
    80003b36:	0000                	unimp
    80003b38:	0000                	unimp
    80003b3a:	0000                	unimp
    80003b3c:	0000                	unimp
    80003b3e:	0000                	unimp
    80003b40:	0000                	unimp
    80003b42:	0000                	unimp
    80003b44:	0000                	unimp
    80003b46:	0000                	unimp
    80003b48:	0000                	unimp
    80003b4a:	0000                	unimp
    80003b4c:	0000                	unimp
    80003b4e:	0000                	unimp
    80003b50:	0000                	unimp
    80003b52:	0000                	unimp
    80003b54:	0000                	unimp
    80003b56:	0000                	unimp
    80003b58:	0000                	unimp
    80003b5a:	0000                	unimp
    80003b5c:	0000                	unimp
    80003b5e:	0000                	unimp
    80003b60:	0000                	unimp
    80003b62:	0000                	unimp
    80003b64:	0000                	unimp
    80003b66:	0000                	unimp
    80003b68:	0000                	unimp
    80003b6a:	0000                	unimp
    80003b6c:	0000                	unimp
    80003b6e:	0000                	unimp
    80003b70:	0000                	unimp
    80003b72:	0000                	unimp
    80003b74:	0000                	unimp
    80003b76:	0000                	unimp
    80003b78:	0000                	unimp
    80003b7a:	0000                	unimp
    80003b7c:	0000                	unimp
    80003b7e:	0000                	unimp
    80003b80:	0000                	unimp
    80003b82:	0000                	unimp
    80003b84:	0000                	unimp
    80003b86:	0000                	unimp
    80003b88:	0000                	unimp
    80003b8a:	0000                	unimp
    80003b8c:	0000                	unimp
    80003b8e:	0000                	unimp
    80003b90:	0000                	unimp
    80003b92:	0000                	unimp
    80003b94:	0000                	unimp
    80003b96:	0000                	unimp
    80003b98:	0000                	unimp
    80003b9a:	0000                	unimp
    80003b9c:	0000                	unimp
    80003b9e:	0000                	unimp
    80003ba0:	0000                	unimp
    80003ba2:	0000                	unimp
    80003ba4:	0000                	unimp
    80003ba6:	0000                	unimp
    80003ba8:	0000                	unimp
    80003baa:	0000                	unimp
    80003bac:	0000                	unimp
    80003bae:	0000                	unimp
    80003bb0:	0000                	unimp
    80003bb2:	0000                	unimp
    80003bb4:	0000                	unimp
    80003bb6:	0000                	unimp
    80003bb8:	0000                	unimp
    80003bba:	0000                	unimp
    80003bbc:	0000                	unimp
    80003bbe:	0000                	unimp
    80003bc0:	0000                	unimp
    80003bc2:	0000                	unimp
    80003bc4:	0000                	unimp
    80003bc6:	0000                	unimp
    80003bc8:	0000                	unimp
    80003bca:	0000                	unimp
    80003bcc:	0000                	unimp
    80003bce:	0000                	unimp
    80003bd0:	0000                	unimp
    80003bd2:	0000                	unimp
    80003bd4:	0000                	unimp
    80003bd6:	0000                	unimp
    80003bd8:	0000                	unimp
    80003bda:	0000                	unimp
    80003bdc:	0000                	unimp
    80003bde:	0000                	unimp
    80003be0:	0000                	unimp
    80003be2:	0000                	unimp
    80003be4:	0000                	unimp
    80003be6:	0000                	unimp
    80003be8:	0000                	unimp
    80003bea:	0000                	unimp
    80003bec:	0000                	unimp
    80003bee:	0000                	unimp
    80003bf0:	0000                	unimp
    80003bf2:	0000                	unimp
    80003bf4:	0000                	unimp
    80003bf6:	0000                	unimp
    80003bf8:	0000                	unimp
    80003bfa:	0000                	unimp
    80003bfc:	0000                	unimp
    80003bfe:	0000                	unimp
    80003c00:	0000                	unimp
    80003c02:	0000                	unimp
    80003c04:	0000                	unimp
    80003c06:	0000                	unimp
    80003c08:	0000                	unimp
    80003c0a:	0000                	unimp
    80003c0c:	0000                	unimp
    80003c0e:	0000                	unimp
    80003c10:	0000                	unimp
    80003c12:	0000                	unimp
    80003c14:	0000                	unimp
    80003c16:	0000                	unimp
    80003c18:	0000                	unimp
    80003c1a:	0000                	unimp
    80003c1c:	0000                	unimp
    80003c1e:	0000                	unimp
    80003c20:	0000                	unimp
    80003c22:	0000                	unimp
    80003c24:	0000                	unimp
    80003c26:	0000                	unimp
    80003c28:	0000                	unimp
    80003c2a:	0000                	unimp
    80003c2c:	0000                	unimp
    80003c2e:	0000                	unimp
    80003c30:	0000                	unimp
    80003c32:	0000                	unimp
    80003c34:	0000                	unimp
    80003c36:	0000                	unimp
    80003c38:	0000                	unimp
    80003c3a:	0000                	unimp
    80003c3c:	0000                	unimp
    80003c3e:	0000                	unimp
    80003c40:	0000                	unimp
    80003c42:	0000                	unimp
    80003c44:	0000                	unimp
    80003c46:	0000                	unimp
    80003c48:	0000                	unimp
    80003c4a:	0000                	unimp
    80003c4c:	0000                	unimp
    80003c4e:	0000                	unimp
    80003c50:	0000                	unimp
    80003c52:	0000                	unimp
    80003c54:	0000                	unimp
    80003c56:	0000                	unimp
    80003c58:	0000                	unimp
    80003c5a:	0000                	unimp
    80003c5c:	0000                	unimp
    80003c5e:	0000                	unimp
    80003c60:	0000                	unimp
    80003c62:	0000                	unimp
    80003c64:	0000                	unimp
    80003c66:	0000                	unimp
    80003c68:	0000                	unimp
    80003c6a:	0000                	unimp
    80003c6c:	0000                	unimp
    80003c6e:	0000                	unimp
    80003c70:	0000                	unimp
    80003c72:	0000                	unimp
    80003c74:	0000                	unimp
    80003c76:	0000                	unimp
    80003c78:	0000                	unimp
    80003c7a:	0000                	unimp
    80003c7c:	0000                	unimp
    80003c7e:	0000                	unimp
    80003c80:	0000                	unimp
    80003c82:	0000                	unimp
    80003c84:	0000                	unimp
    80003c86:	0000                	unimp
    80003c88:	0000                	unimp
    80003c8a:	0000                	unimp
    80003c8c:	0000                	unimp
    80003c8e:	0000                	unimp
    80003c90:	0000                	unimp
    80003c92:	0000                	unimp
    80003c94:	0000                	unimp
    80003c96:	0000                	unimp
    80003c98:	0000                	unimp
    80003c9a:	0000                	unimp
    80003c9c:	0000                	unimp
    80003c9e:	0000                	unimp
    80003ca0:	0000                	unimp
    80003ca2:	0000                	unimp
    80003ca4:	0000                	unimp
    80003ca6:	0000                	unimp
    80003ca8:	0000                	unimp
    80003caa:	0000                	unimp
    80003cac:	0000                	unimp
    80003cae:	0000                	unimp
    80003cb0:	0000                	unimp
    80003cb2:	0000                	unimp
    80003cb4:	0000                	unimp
    80003cb6:	0000                	unimp
    80003cb8:	0000                	unimp
    80003cba:	0000                	unimp
    80003cbc:	0000                	unimp
    80003cbe:	0000                	unimp
    80003cc0:	0000                	unimp
    80003cc2:	0000                	unimp
    80003cc4:	0000                	unimp
    80003cc6:	0000                	unimp
    80003cc8:	0000                	unimp
    80003cca:	0000                	unimp
    80003ccc:	0000                	unimp
    80003cce:	0000                	unimp
    80003cd0:	0000                	unimp
    80003cd2:	0000                	unimp
    80003cd4:	0000                	unimp
    80003cd6:	0000                	unimp
    80003cd8:	0000                	unimp
    80003cda:	0000                	unimp
    80003cdc:	0000                	unimp
    80003cde:	0000                	unimp
    80003ce0:	0000                	unimp
    80003ce2:	0000                	unimp
    80003ce4:	0000                	unimp
    80003ce6:	0000                	unimp
    80003ce8:	0000                	unimp
    80003cea:	0000                	unimp
    80003cec:	0000                	unimp
    80003cee:	0000                	unimp
    80003cf0:	0000                	unimp
    80003cf2:	0000                	unimp
    80003cf4:	0000                	unimp
    80003cf6:	0000                	unimp
    80003cf8:	0000                	unimp
    80003cfa:	0000                	unimp
    80003cfc:	0000                	unimp
    80003cfe:	0000                	unimp
    80003d00:	0000                	unimp
    80003d02:	0000                	unimp
    80003d04:	0000                	unimp
    80003d06:	0000                	unimp
    80003d08:	0000                	unimp
    80003d0a:	0000                	unimp
    80003d0c:	0000                	unimp
    80003d0e:	0000                	unimp
    80003d10:	0000                	unimp
    80003d12:	0000                	unimp
    80003d14:	0000                	unimp
    80003d16:	0000                	unimp
    80003d18:	0000                	unimp
    80003d1a:	0000                	unimp
    80003d1c:	0000                	unimp
    80003d1e:	0000                	unimp
    80003d20:	0000                	unimp
    80003d22:	0000                	unimp
    80003d24:	0000                	unimp
    80003d26:	0000                	unimp
    80003d28:	0000                	unimp
    80003d2a:	0000                	unimp
    80003d2c:	0000                	unimp
    80003d2e:	0000                	unimp
    80003d30:	0000                	unimp
    80003d32:	0000                	unimp
    80003d34:	0000                	unimp
    80003d36:	0000                	unimp
    80003d38:	0000                	unimp
    80003d3a:	0000                	unimp
    80003d3c:	0000                	unimp
    80003d3e:	0000                	unimp
    80003d40:	0000                	unimp
    80003d42:	0000                	unimp
    80003d44:	0000                	unimp
    80003d46:	0000                	unimp
    80003d48:	0000                	unimp
    80003d4a:	0000                	unimp
    80003d4c:	0000                	unimp
    80003d4e:	0000                	unimp
    80003d50:	0000                	unimp
    80003d52:	0000                	unimp
    80003d54:	0000                	unimp
    80003d56:	0000                	unimp
    80003d58:	0000                	unimp
    80003d5a:	0000                	unimp
    80003d5c:	0000                	unimp
    80003d5e:	0000                	unimp
    80003d60:	0000                	unimp
    80003d62:	0000                	unimp
    80003d64:	0000                	unimp
    80003d66:	0000                	unimp
    80003d68:	0000                	unimp
    80003d6a:	0000                	unimp
    80003d6c:	0000                	unimp
    80003d6e:	0000                	unimp
    80003d70:	0000                	unimp
    80003d72:	0000                	unimp
    80003d74:	0000                	unimp
    80003d76:	0000                	unimp
    80003d78:	0000                	unimp
    80003d7a:	0000                	unimp
    80003d7c:	0000                	unimp
    80003d7e:	0000                	unimp
    80003d80:	0000                	unimp
    80003d82:	0000                	unimp
    80003d84:	0000                	unimp
    80003d86:	0000                	unimp
    80003d88:	0000                	unimp
    80003d8a:	0000                	unimp
    80003d8c:	0000                	unimp
    80003d8e:	0000                	unimp
    80003d90:	0000                	unimp
    80003d92:	0000                	unimp
    80003d94:	0000                	unimp
    80003d96:	0000                	unimp
    80003d98:	0000                	unimp
    80003d9a:	0000                	unimp
    80003d9c:	0000                	unimp
    80003d9e:	0000                	unimp
    80003da0:	0000                	unimp
    80003da2:	0000                	unimp
    80003da4:	0000                	unimp
    80003da6:	0000                	unimp
    80003da8:	0000                	unimp
    80003daa:	0000                	unimp
    80003dac:	0000                	unimp
    80003dae:	0000                	unimp
    80003db0:	0000                	unimp
    80003db2:	0000                	unimp
    80003db4:	0000                	unimp
    80003db6:	0000                	unimp
    80003db8:	0000                	unimp
    80003dba:	0000                	unimp
    80003dbc:	0000                	unimp
    80003dbe:	0000                	unimp
    80003dc0:	0000                	unimp
    80003dc2:	0000                	unimp
    80003dc4:	0000                	unimp
    80003dc6:	0000                	unimp
    80003dc8:	0000                	unimp
    80003dca:	0000                	unimp
    80003dcc:	0000                	unimp
    80003dce:	0000                	unimp
    80003dd0:	0000                	unimp
    80003dd2:	0000                	unimp
    80003dd4:	0000                	unimp
    80003dd6:	0000                	unimp
    80003dd8:	0000                	unimp
    80003dda:	0000                	unimp
    80003ddc:	0000                	unimp
    80003dde:	0000                	unimp
    80003de0:	0000                	unimp
    80003de2:	0000                	unimp
    80003de4:	0000                	unimp
    80003de6:	0000                	unimp
    80003de8:	0000                	unimp
    80003dea:	0000                	unimp
    80003dec:	0000                	unimp
    80003dee:	0000                	unimp
    80003df0:	0000                	unimp
    80003df2:	0000                	unimp
    80003df4:	0000                	unimp
    80003df6:	0000                	unimp
    80003df8:	0000                	unimp
    80003dfa:	0000                	unimp
    80003dfc:	0000                	unimp
    80003dfe:	0000                	unimp
    80003e00:	0000                	unimp
    80003e02:	0000                	unimp
    80003e04:	0000                	unimp
    80003e06:	0000                	unimp
    80003e08:	0000                	unimp
    80003e0a:	0000                	unimp
    80003e0c:	0000                	unimp
    80003e0e:	0000                	unimp
    80003e10:	0000                	unimp
    80003e12:	0000                	unimp
    80003e14:	0000                	unimp
    80003e16:	0000                	unimp
    80003e18:	0000                	unimp
    80003e1a:	0000                	unimp
    80003e1c:	0000                	unimp
    80003e1e:	0000                	unimp
    80003e20:	0000                	unimp
    80003e22:	0000                	unimp
    80003e24:	0000                	unimp
    80003e26:	0000                	unimp
    80003e28:	0000                	unimp
    80003e2a:	0000                	unimp
    80003e2c:	0000                	unimp
    80003e2e:	0000                	unimp
    80003e30:	0000                	unimp
    80003e32:	0000                	unimp
    80003e34:	0000                	unimp
    80003e36:	0000                	unimp
    80003e38:	0000                	unimp
    80003e3a:	0000                	unimp
    80003e3c:	0000                	unimp
    80003e3e:	0000                	unimp
    80003e40:	0000                	unimp
    80003e42:	0000                	unimp
    80003e44:	0000                	unimp
    80003e46:	0000                	unimp
    80003e48:	0000                	unimp
    80003e4a:	0000                	unimp
    80003e4c:	0000                	unimp
    80003e4e:	0000                	unimp
    80003e50:	0000                	unimp
    80003e52:	0000                	unimp
    80003e54:	0000                	unimp
    80003e56:	0000                	unimp
    80003e58:	0000                	unimp
    80003e5a:	0000                	unimp
    80003e5c:	0000                	unimp
    80003e5e:	0000                	unimp
    80003e60:	0000                	unimp
    80003e62:	0000                	unimp
    80003e64:	0000                	unimp
    80003e66:	0000                	unimp
    80003e68:	0000                	unimp
    80003e6a:	0000                	unimp
    80003e6c:	0000                	unimp
    80003e6e:	0000                	unimp
    80003e70:	0000                	unimp
    80003e72:	0000                	unimp
    80003e74:	0000                	unimp
    80003e76:	0000                	unimp
    80003e78:	0000                	unimp
    80003e7a:	0000                	unimp
    80003e7c:	0000                	unimp
    80003e7e:	0000                	unimp
    80003e80:	0000                	unimp
    80003e82:	0000                	unimp
    80003e84:	0000                	unimp
    80003e86:	0000                	unimp
    80003e88:	0000                	unimp
    80003e8a:	0000                	unimp
    80003e8c:	0000                	unimp
    80003e8e:	0000                	unimp
    80003e90:	0000                	unimp
    80003e92:	0000                	unimp
    80003e94:	0000                	unimp
    80003e96:	0000                	unimp
    80003e98:	0000                	unimp
    80003e9a:	0000                	unimp
    80003e9c:	0000                	unimp
    80003e9e:	0000                	unimp
    80003ea0:	0000                	unimp
    80003ea2:	0000                	unimp
    80003ea4:	0000                	unimp
    80003ea6:	0000                	unimp
    80003ea8:	0000                	unimp
    80003eaa:	0000                	unimp
    80003eac:	0000                	unimp
    80003eae:	0000                	unimp
    80003eb0:	0000                	unimp
    80003eb2:	0000                	unimp
    80003eb4:	0000                	unimp
    80003eb6:	0000                	unimp
    80003eb8:	0000                	unimp
    80003eba:	0000                	unimp
    80003ebc:	0000                	unimp
    80003ebe:	0000                	unimp
    80003ec0:	0000                	unimp
    80003ec2:	0000                	unimp
    80003ec4:	0000                	unimp
    80003ec6:	0000                	unimp
    80003ec8:	0000                	unimp
    80003eca:	0000                	unimp
    80003ecc:	0000                	unimp
    80003ece:	0000                	unimp
    80003ed0:	0000                	unimp
    80003ed2:	0000                	unimp
    80003ed4:	0000                	unimp
    80003ed6:	0000                	unimp
    80003ed8:	0000                	unimp
    80003eda:	0000                	unimp
    80003edc:	0000                	unimp
    80003ede:	0000                	unimp
    80003ee0:	0000                	unimp
    80003ee2:	0000                	unimp
    80003ee4:	0000                	unimp
    80003ee6:	0000                	unimp
    80003ee8:	0000                	unimp
    80003eea:	0000                	unimp
    80003eec:	0000                	unimp
    80003eee:	0000                	unimp
    80003ef0:	0000                	unimp
    80003ef2:	0000                	unimp
    80003ef4:	0000                	unimp
    80003ef6:	0000                	unimp
    80003ef8:	0000                	unimp
    80003efa:	0000                	unimp
    80003efc:	0000                	unimp
    80003efe:	0000                	unimp
    80003f00:	0000                	unimp
    80003f02:	0000                	unimp
    80003f04:	0000                	unimp
    80003f06:	0000                	unimp
    80003f08:	0000                	unimp
    80003f0a:	0000                	unimp
    80003f0c:	0000                	unimp
    80003f0e:	0000                	unimp
    80003f10:	0000                	unimp
    80003f12:	0000                	unimp
    80003f14:	0000                	unimp
    80003f16:	0000                	unimp
    80003f18:	0000                	unimp
    80003f1a:	0000                	unimp
    80003f1c:	0000                	unimp
    80003f1e:	0000                	unimp
    80003f20:	0000                	unimp
    80003f22:	0000                	unimp
    80003f24:	0000                	unimp
    80003f26:	0000                	unimp
    80003f28:	0000                	unimp
    80003f2a:	0000                	unimp
    80003f2c:	0000                	unimp
    80003f2e:	0000                	unimp
    80003f30:	0000                	unimp
    80003f32:	0000                	unimp
    80003f34:	0000                	unimp
    80003f36:	0000                	unimp
    80003f38:	0000                	unimp
    80003f3a:	0000                	unimp
    80003f3c:	0000                	unimp
    80003f3e:	0000                	unimp
    80003f40:	0000                	unimp
    80003f42:	0000                	unimp
    80003f44:	0000                	unimp
    80003f46:	0000                	unimp
    80003f48:	0000                	unimp
    80003f4a:	0000                	unimp
    80003f4c:	0000                	unimp
    80003f4e:	0000                	unimp
    80003f50:	0000                	unimp
    80003f52:	0000                	unimp
    80003f54:	0000                	unimp
    80003f56:	0000                	unimp
    80003f58:	0000                	unimp
    80003f5a:	0000                	unimp
    80003f5c:	0000                	unimp
    80003f5e:	0000                	unimp
    80003f60:	0000                	unimp
    80003f62:	0000                	unimp
    80003f64:	0000                	unimp
    80003f66:	0000                	unimp
    80003f68:	0000                	unimp
    80003f6a:	0000                	unimp
    80003f6c:	0000                	unimp
    80003f6e:	0000                	unimp
    80003f70:	0000                	unimp
    80003f72:	0000                	unimp
    80003f74:	0000                	unimp
    80003f76:	0000                	unimp
    80003f78:	0000                	unimp
    80003f7a:	0000                	unimp
    80003f7c:	0000                	unimp
    80003f7e:	0000                	unimp
    80003f80:	0000                	unimp
    80003f82:	0000                	unimp
    80003f84:	0000                	unimp
    80003f86:	0000                	unimp
    80003f88:	0000                	unimp
    80003f8a:	0000                	unimp
    80003f8c:	0000                	unimp
    80003f8e:	0000                	unimp
    80003f90:	0000                	unimp
    80003f92:	0000                	unimp
    80003f94:	0000                	unimp
    80003f96:	0000                	unimp
    80003f98:	0000                	unimp
    80003f9a:	0000                	unimp
    80003f9c:	0000                	unimp
    80003f9e:	0000                	unimp
    80003fa0:	0000                	unimp
    80003fa2:	0000                	unimp
    80003fa4:	0000                	unimp
    80003fa6:	0000                	unimp
    80003fa8:	0000                	unimp
    80003faa:	0000                	unimp
    80003fac:	0000                	unimp
    80003fae:	0000                	unimp
    80003fb0:	0000                	unimp
    80003fb2:	0000                	unimp
    80003fb4:	0000                	unimp
    80003fb6:	0000                	unimp
    80003fb8:	0000                	unimp
    80003fba:	0000                	unimp
    80003fbc:	0000                	unimp
    80003fbe:	0000                	unimp
    80003fc0:	0000                	unimp
    80003fc2:	0000                	unimp
    80003fc4:	0000                	unimp
    80003fc6:	0000                	unimp
    80003fc8:	0000                	unimp
    80003fca:	0000                	unimp
    80003fcc:	0000                	unimp
    80003fce:	0000                	unimp
    80003fd0:	0000                	unimp
    80003fd2:	0000                	unimp
    80003fd4:	0000                	unimp
    80003fd6:	0000                	unimp
    80003fd8:	0000                	unimp
    80003fda:	0000                	unimp
    80003fdc:	0000                	unimp
    80003fde:	0000                	unimp
    80003fe0:	0000                	unimp
    80003fe2:	0000                	unimp
    80003fe4:	0000                	unimp
    80003fe6:	0000                	unimp
    80003fe8:	0000                	unimp
    80003fea:	0000                	unimp
    80003fec:	0000                	unimp
    80003fee:	0000                	unimp
    80003ff0:	0000                	unimp
    80003ff2:	0000                	unimp
    80003ff4:	0000                	unimp
    80003ff6:	0000                	unimp
    80003ff8:	0000                	unimp
    80003ffa:	0000                	unimp
    80003ffc:	0000                	unimp
    80003ffe:	00158593          	addi	a1,a1,1
    80004002:	29b00393          	li	t2,667
    80004006:	2a759f63          	bne	a1,t2,800042c4 <fail>
    8000400a:	00001137          	lui	sp,0x1
    8000400e:	2341011b          	addiw	sp,sp,564

0000000080004012 <test_3>:
    80004012:	00300193          	li	gp,3
    80004016:	1fe8                	addi	a0,sp,1020
    80004018:	000013b7          	lui	t2,0x1
    8000401c:	6303839b          	addiw	t2,t2,1584
    80004020:	2a751263          	bne	a0,t2,800042c4 <fail>

0000000080004024 <test_4>:
    80004024:	00400193          	li	gp,4
    80004028:	617d                	addi	sp,sp,496
    8000402a:	0001                	nop
    8000402c:	000013b7          	lui	t2,0x1
    80004030:	4243839b          	addiw	t2,t2,1060
    80004034:	28711863          	bne	sp,t2,800042c4 <fail>

0000000080004038 <test_5>:
    80004038:	00500193          	li	gp,5
    8000403c:	7101                	addi	sp,sp,-512
    8000403e:	0001                	nop
    80004040:	000013b7          	lui	t2,0x1
    80004044:	2243839b          	addiw	t2,t2,548
    80004048:	26711e63          	bne	sp,t2,800042c4 <fail>
    8000404c:	ffffe597          	auipc	a1,0xffffe
    80004050:	fcc58593          	addi	a1,a1,-52 # 80002018 <data>

0000000080004054 <test_6>:
    80004054:	00600193          	li	gp,6
    80004058:	41c8                	lw	a0,4(a1)
    8000405a:	0505                	addi	a0,a0,1
    8000405c:	c1c8                	sw	a0,4(a1)
    8000405e:	41d0                	lw	a2,4(a1)
    80004060:	fedcc3b7          	lui	t2,0xfedcc
    80004064:	a993839b          	addiw	t2,t2,-1383
    80004068:	24761e63          	bne	a2,t2,800042c4 <fail>

000000008000406c <test_7>:
    8000406c:	00700193          	li	gp,7
    80004070:	6188                	ld	a0,0(a1)
    80004072:	0505                	addi	a0,a0,1
    80004074:	e188                	sd	a0,0(a1)
    80004076:	6190                	ld	a2,0(a1)
    80004078:	fff6e3b7          	lui	t2,0xfff6e
    8000407c:	5d53839b          	addiw	t2,t2,1493
    80004080:	00c39393          	slli	t2,t2,0xc
    80004084:	cbb38393          	addi	t2,t2,-837 # fffffffffff6dcbb <freelist_head+0xffffffff7ff61cb3>
    80004088:	00d39393          	slli	t2,t2,0xd
    8000408c:	54338393          	addi	t2,t2,1347
    80004090:	00c39393          	slli	t2,t2,0xc
    80004094:	21138393          	addi	t2,t2,529
    80004098:	22761663          	bne	a2,t2,800042c4 <fail>

000000008000409c <test_8>:
    8000409c:	00800193          	li	gp,8
    800040a0:	00106513          	ori	a0,zero,1
    800040a4:	1541                	addi	a0,a0,-16
    800040a6:	0001                	nop
    800040a8:	ff100393          	li	t2,-15
    800040ac:	20751c63          	bne	a0,t2,800042c4 <fail>

00000000800040b0 <test_9>:
    800040b0:	00900193          	li	gp,9
    800040b4:	00106793          	ori	a5,zero,1
    800040b8:	57c1                	li	a5,-16
    800040ba:	0001                	nop
    800040bc:	ff000393          	li	t2,-16
    800040c0:	20779263          	bne	a5,t2,800042c4 <fail>

00000000800040c4 <test_10>:
    800040c4:	00a00193          	li	gp,10
    800040c8:	6188                	ld	a0,0(a1)
    800040ca:	357d                	addiw	a0,a0,-1
    800040cc:	765433b7          	lui	t2,0x76543
    800040d0:	2103839b          	addiw	t2,t2,528
    800040d4:	1e751863          	bne	a0,t2,800042c4 <fail>

00000000800040d8 <test_11>:
    800040d8:	00b00193          	li	gp,11
    800040dc:	7405                	lui	s0,0xfffe1
    800040de:	8431                	srai	s0,s0,0xc
    800040e0:	fe100393          	li	t2,-31
    800040e4:	1e741063          	bne	s0,t2,800042c4 <fail>

00000000800040e8 <test_12>:
    800040e8:	00c00193          	li	gp,12
    800040ec:	7405                	lui	s0,0xfffe1
    800040ee:	8031                	srli	s0,s0,0xc
    800040f0:	0010039b          	addiw	t2,zero,1
    800040f4:	03439393          	slli	t2,t2,0x34
    800040f8:	fe138393          	addi	t2,t2,-31 # 76542fe1 <tohost+0x6552fd1>
    800040fc:	1c741463          	bne	s0,t2,800042c4 <fail>

0000000080004100 <test_14>:
    80004100:	00e00193          	li	gp,14
    80004104:	5479                	li	s0,-2
    80004106:	983d                	andi	s0,s0,-17
    80004108:	fee00393          	li	t2,-18
    8000410c:	1a741c63          	bne	s0,t2,800042c4 <fail>

0000000080004110 <test_15>:
    80004110:	00f00193          	li	gp,15
    80004114:	44d1                	li	s1,20
    80004116:	4519                	li	a0,6
    80004118:	8c89                	sub	s1,s1,a0
    8000411a:	0001                	nop
    8000411c:	00e00393          	li	t2,14
    80004120:	1a749263          	bne	s1,t2,800042c4 <fail>

0000000080004124 <test_16>:
    80004124:	01000193          	li	gp,16
    80004128:	44d1                	li	s1,20
    8000412a:	4519                	li	a0,6
    8000412c:	8ca9                	xor	s1,s1,a0
    8000412e:	0001                	nop
    80004130:	01200393          	li	t2,18
    80004134:	18749863          	bne	s1,t2,800042c4 <fail>

0000000080004138 <test_17>:
    80004138:	01100193          	li	gp,17
    8000413c:	44d1                	li	s1,20
    8000413e:	4519                	li	a0,6
    80004140:	8cc9                	or	s1,s1,a0
    80004142:	0001                	nop
    80004144:	01600393          	li	t2,22
    80004148:	16749e63          	bne	s1,t2,800042c4 <fail>

000000008000414c <test_18>:
    8000414c:	01200193          	li	gp,18
    80004150:	44d1                	li	s1,20
    80004152:	4519                	li	a0,6
    80004154:	8ce9                	and	s1,s1,a0
    80004156:	0001                	nop
    80004158:	00400393          	li	t2,4
    8000415c:	16749463          	bne	s1,t2,800042c4 <fail>

0000000080004160 <test_19>:
    80004160:	01300193          	li	gp,19
    80004164:	800004b7          	lui	s1,0x80000
    80004168:	34fd                	addiw	s1,s1,-1
    8000416a:	557d                	li	a0,-1
    8000416c:	9c89                	subw	s1,s1,a0
    8000416e:	0001                	nop
    80004170:	800003b7          	lui	t2,0x80000
    80004174:	14749863          	bne	s1,t2,800042c4 <fail>

0000000080004178 <test_20>:
    80004178:	01400193          	li	gp,20
    8000417c:	800004b7          	lui	s1,0x80000
    80004180:	34fd                	addiw	s1,s1,-1
    80004182:	4505                	li	a0,1
    80004184:	9ca9                	addw	s1,s1,a0
    80004186:	0001                	nop
    80004188:	800003b7          	lui	t2,0x80000
    8000418c:	12749c63          	bne	s1,t2,800042c4 <fail>

0000000080004190 <test_21>:
    80004190:	01500193          	li	gp,21
    80004194:	6405                	lui	s0,0x1
    80004196:	2344041b          	addiw	s0,s0,564
    8000419a:	0412                	slli	s0,s0,0x4
    8000419c:	000123b7          	lui	t2,0x12
    800041a0:	3403839b          	addiw	t2,t2,832
    800041a4:	12741063          	bne	s0,t2,800042c4 <fail>

00000000800041a8 <test_30>:
    800041a8:	01e00193          	li	gp,30
    800041ac:	4081                	li	ra,0
    800041ae:	a011                	j	800041b2 <test_30+0xa>
    800041b0:	a011                	j	800041b4 <test_30+0xc>
    800041b2:	a011                	j	800041b6 <test_30+0xe>
    800041b4:	aa01                	j	800042c4 <fail>
    800041b6:	0001                	nop
    800041b8:	00000393          	li	t2,0
    800041bc:	10709463          	bne	ra,t2,800042c4 <fail>

00000000800041c0 <test_31>:
    800041c0:	01f00193          	li	gp,31
    800041c4:	4501                	li	a0,0
    800041c6:	c111                	beqz	a0,800041ca <test_31+0xa>
    800041c8:	a011                	j	800041cc <test_31+0xc>
    800041ca:	a011                	j	800041ce <test_31+0xe>
    800041cc:	a8e5                	j	800042c4 <fail>
    800041ce:	0001                	nop
    800041d0:	00000393          	li	t2,0
    800041d4:	0e701863          	bne	zero,t2,800042c4 <fail>

00000000800041d8 <test_32>:
    800041d8:	02000193          	li	gp,32
    800041dc:	4505                	li	a0,1
    800041de:	e111                	bnez	a0,800041e2 <test_32+0xa>
    800041e0:	a011                	j	800041e4 <test_32+0xc>
    800041e2:	a011                	j	800041e6 <test_32+0xe>
    800041e4:	a0c5                	j	800042c4 <fail>
    800041e6:	0001                	nop
    800041e8:	00000393          	li	t2,0
    800041ec:	0c701c63          	bne	zero,t2,800042c4 <fail>

00000000800041f0 <test_33>:
    800041f0:	02100193          	li	gp,33
    800041f4:	4505                	li	a0,1
    800041f6:	c111                	beqz	a0,800041fa <test_33+0xa>
    800041f8:	a011                	j	800041fc <test_33+0xc>
    800041fa:	a0e9                	j	800042c4 <fail>
    800041fc:	00000393          	li	t2,0
    80004200:	0c701263          	bne	zero,t2,800042c4 <fail>

0000000080004204 <test_34>:
    80004204:	02200193          	li	gp,34
    80004208:	4501                	li	a0,0
    8000420a:	e111                	bnez	a0,8000420e <test_34+0xa>
    8000420c:	a011                	j	80004210 <test_34+0xc>
    8000420e:	a85d                	j	800042c4 <fail>
    80004210:	00000393          	li	t2,0
    80004214:	0a701863          	bne	zero,t2,800042c4 <fail>

0000000080004218 <test_35>:
    80004218:	02300193          	li	gp,35
    8000421c:	00000297          	auipc	t0,0x0
    80004220:	00e28293          	addi	t0,t0,14 # 8000422a <test_35+0x12>
    80004224:	4081                	li	ra,0
    80004226:	8282                	jr	t0
    80004228:	a011                	j	8000422c <test_35+0x14>
    8000422a:	a011                	j	8000422e <test_35+0x16>
    8000422c:	a861                	j	800042c4 <fail>
    8000422e:	0001                	nop
    80004230:	00000393          	li	t2,0
    80004234:	08709863          	bne	ra,t2,800042c4 <fail>

0000000080004238 <test_36>:
    80004238:	02400193          	li	gp,36
    8000423c:	00000297          	auipc	t0,0x0
    80004240:	00e28293          	addi	t0,t0,14 # 8000424a <test_36+0x12>
    80004244:	4081                	li	ra,0
    80004246:	9282                	jalr	t0
    80004248:	a011                	j	8000424c <test_36+0x14>
    8000424a:	a011                	j	8000424e <test_36+0x16>
    8000424c:	a8a5                	j	800042c4 <fail>
    8000424e:	405080b3          	sub	ra,ra,t0
    80004252:	0001                	nop
    80004254:	ffe00393          	li	t2,-2
    80004258:	06709663          	bne	ra,t2,800042c4 <fail>
    8000425c:	ffffe117          	auipc	sp,0xffffe
    80004260:	dbc10113          	addi	sp,sp,-580 # 80002018 <data>

0000000080004264 <test_40>:
    80004264:	02800193          	li	gp,40
    80004268:	4532                	lw	a0,12(sp)
    8000426a:	0505                	addi	a0,a0,1
    8000426c:	c62a                	sw	a0,12(sp)
    8000426e:	4632                	lw	a2,12(sp)
    80004270:	fedcc3b7          	lui	t2,0xfedcc
    80004274:	a993839b          	addiw	t2,t2,-1383
    80004278:	04761663          	bne	a2,t2,800042c4 <fail>

000000008000427c <test_41>:
    8000427c:	02900193          	li	gp,41
    80004280:	6522                	ld	a0,8(sp)
    80004282:	0505                	addi	a0,a0,1
    80004284:	e42a                	sd	a0,8(sp)
    80004286:	6622                	ld	a2,8(sp)
    80004288:	fff6e3b7          	lui	t2,0xfff6e
    8000428c:	5d53839b          	addiw	t2,t2,1493
    80004290:	00c39393          	slli	t2,t2,0xc
    80004294:	cbb38393          	addi	t2,t2,-837 # fffffffffff6dcbb <freelist_head+0xffffffff7ff61cb3>
    80004298:	00d39393          	slli	t2,t2,0xd
    8000429c:	54338393          	addi	t2,t2,1347
    800042a0:	00c39393          	slli	t2,t2,0xc
    800042a4:	21138393          	addi	t2,t2,529
    800042a8:	00761e63          	bne	a2,t2,800042c4 <fail>

00000000800042ac <test_42>:
    800042ac:	02a00193          	li	gp,42
    800042b0:	12300513          	li	a0,291
    800042b4:	82aa                	mv	t0,a0
    800042b6:	92aa                	add	t0,t0,a0
    800042b8:	24600393          	li	t2,582
    800042bc:	00729463          	bne	t0,t2,800042c4 <fail>
    800042c0:	00301a63          	bne	zero,gp,800042d4 <pass>

00000000800042c4 <fail>:
    800042c4:	00119513          	slli	a0,gp,0x1
    800042c8:	00050063          	beqz	a0,800042c8 <fail+0x4>
    800042cc:	00156513          	ori	a0,a0,1
    800042d0:	00000073          	ecall

00000000800042d4 <pass>:
    800042d4:	00100513          	li	a0,1
    800042d8:	00000073          	ecall
    800042dc:	c0001073          	unimp
    800042e0:	0000                	unimp
    800042e2:	0000                	unimp
    800042e4:	0000                	unimp
    800042e6:	0000                	unimp
    800042e8:	0000                	unimp
    800042ea:	0000                	unimp
    800042ec:	0000                	unimp
    800042ee:	0000                	unimp
    800042f0:	0000                	unimp
    800042f2:	0000                	unimp
    800042f4:	0000                	unimp
    800042f6:	0000                	unimp
    800042f8:	0000                	unimp
    800042fa:	0000                	unimp
    800042fc:	0000                	unimp
    800042fe:	0000                	unimp
    80004300:	0000                	unimp
    80004302:	0000                	unimp
    80004304:	0000                	unimp
    80004306:	0000                	unimp
    80004308:	0000                	unimp
    8000430a:	0000                	unimp
    8000430c:	0000                	unimp
    8000430e:	0000                	unimp
    80004310:	0000                	unimp
    80004312:	0000                	unimp
    80004314:	0000                	unimp
    80004316:	0000                	unimp
    80004318:	0000                	unimp
    8000431a:	0000                	unimp
    8000431c:	0000                	unimp
    8000431e:	0000                	unimp
    80004320:	0000                	unimp
    80004322:	0000                	unimp
    80004324:	0000                	unimp
    80004326:	0000                	unimp
    80004328:	0000                	unimp
    8000432a:	0000                	unimp
    8000432c:	0000                	unimp
    8000432e:	0000                	unimp
    80004330:	0000                	unimp
    80004332:	0000                	unimp
    80004334:	0000                	unimp
    80004336:	0000                	unimp
    80004338:	0000                	unimp
    8000433a:	0000                	unimp
    8000433c:	0000                	unimp
    8000433e:	0000                	unimp
    80004340:	0000                	unimp
    80004342:	0000                	unimp
    80004344:	0000                	unimp
    80004346:	0000                	unimp
    80004348:	0000                	unimp
    8000434a:	0000                	unimp
    8000434c:	0000                	unimp
    8000434e:	0000                	unimp
    80004350:	0000                	unimp
    80004352:	0000                	unimp
    80004354:	0000                	unimp
    80004356:	0000                	unimp
    80004358:	0000                	unimp
    8000435a:	0000                	unimp
    8000435c:	0000                	unimp
    8000435e:	0000                	unimp
    80004360:	0000                	unimp
    80004362:	0000                	unimp
    80004364:	0000                	unimp
    80004366:	0000                	unimp
    80004368:	0000                	unimp
    8000436a:	0000                	unimp
    8000436c:	0000                	unimp
    8000436e:	0000                	unimp
    80004370:	0000                	unimp
    80004372:	0000                	unimp
    80004374:	0000                	unimp
    80004376:	0000                	unimp
    80004378:	0000                	unimp
    8000437a:	0000                	unimp
    8000437c:	0000                	unimp
    8000437e:	0000                	unimp
    80004380:	0000                	unimp
    80004382:	0000                	unimp
    80004384:	0000                	unimp
    80004386:	0000                	unimp
    80004388:	0000                	unimp
    8000438a:	0000                	unimp
    8000438c:	0000                	unimp
    8000438e:	0000                	unimp
    80004390:	0000                	unimp
    80004392:	0000                	unimp
    80004394:	0000                	unimp
    80004396:	0000                	unimp
    80004398:	0000                	unimp
    8000439a:	0000                	unimp
    8000439c:	0000                	unimp
    8000439e:	0000                	unimp
    800043a0:	0000                	unimp
    800043a2:	0000                	unimp
    800043a4:	0000                	unimp
    800043a6:	0000                	unimp
    800043a8:	0000                	unimp
    800043aa:	0000                	unimp
    800043ac:	0000                	unimp
    800043ae:	0000                	unimp
    800043b0:	0000                	unimp
    800043b2:	0000                	unimp
    800043b4:	0000                	unimp
    800043b6:	0000                	unimp
    800043b8:	0000                	unimp
    800043ba:	0000                	unimp
    800043bc:	0000                	unimp
    800043be:	0000                	unimp
    800043c0:	0000                	unimp
    800043c2:	0000                	unimp
    800043c4:	0000                	unimp
    800043c6:	0000                	unimp
    800043c8:	0000                	unimp
    800043ca:	0000                	unimp
    800043cc:	0000                	unimp
    800043ce:	0000                	unimp
    800043d0:	0000                	unimp
    800043d2:	0000                	unimp
    800043d4:	0000                	unimp
    800043d6:	0000                	unimp
    800043d8:	0000                	unimp
    800043da:	0000                	unimp
    800043dc:	0000                	unimp
    800043de:	0000                	unimp
    800043e0:	0000                	unimp
    800043e2:	0000                	unimp
    800043e4:	0000                	unimp
    800043e6:	0000                	unimp
    800043e8:	0000                	unimp
    800043ea:	0000                	unimp
    800043ec:	0000                	unimp
    800043ee:	0000                	unimp
    800043f0:	0000                	unimp
    800043f2:	0000                	unimp
    800043f4:	0000                	unimp
    800043f6:	0000                	unimp
    800043f8:	0000                	unimp
    800043fa:	0000                	unimp
    800043fc:	0000                	unimp
    800043fe:	0000                	unimp
    80004400:	0000                	unimp
    80004402:	0000                	unimp
    80004404:	0000                	unimp
    80004406:	0000                	unimp
    80004408:	0000                	unimp
    8000440a:	0000                	unimp
    8000440c:	0000                	unimp
    8000440e:	0000                	unimp
    80004410:	0000                	unimp
    80004412:	0000                	unimp
    80004414:	0000                	unimp
    80004416:	0000                	unimp
    80004418:	0000                	unimp
    8000441a:	0000                	unimp
    8000441c:	0000                	unimp
    8000441e:	0000                	unimp
    80004420:	0000                	unimp
    80004422:	0000                	unimp
    80004424:	0000                	unimp
    80004426:	0000                	unimp
    80004428:	0000                	unimp
    8000442a:	0000                	unimp
    8000442c:	0000                	unimp
    8000442e:	0000                	unimp
    80004430:	0000                	unimp
    80004432:	0000                	unimp
    80004434:	0000                	unimp
    80004436:	0000                	unimp
    80004438:	0000                	unimp
    8000443a:	0000                	unimp
    8000443c:	0000                	unimp
    8000443e:	0000                	unimp
    80004440:	0000                	unimp
    80004442:	0000                	unimp
    80004444:	0000                	unimp
    80004446:	0000                	unimp
    80004448:	0000                	unimp
    8000444a:	0000                	unimp
    8000444c:	0000                	unimp
    8000444e:	0000                	unimp
    80004450:	0000                	unimp
    80004452:	0000                	unimp
    80004454:	0000                	unimp
    80004456:	0000                	unimp
    80004458:	0000                	unimp
    8000445a:	0000                	unimp
    8000445c:	0000                	unimp
    8000445e:	0000                	unimp
    80004460:	0000                	unimp
    80004462:	0000                	unimp
    80004464:	0000                	unimp
    80004466:	0000                	unimp
    80004468:	0000                	unimp
    8000446a:	0000                	unimp
    8000446c:	0000                	unimp
    8000446e:	0000                	unimp
    80004470:	0000                	unimp
    80004472:	0000                	unimp
    80004474:	0000                	unimp
    80004476:	0000                	unimp
    80004478:	0000                	unimp
    8000447a:	0000                	unimp
    8000447c:	0000                	unimp
    8000447e:	0000                	unimp
    80004480:	0000                	unimp
    80004482:	0000                	unimp
    80004484:	0000                	unimp
    80004486:	0000                	unimp
    80004488:	0000                	unimp
    8000448a:	0000                	unimp
    8000448c:	0000                	unimp
    8000448e:	0000                	unimp
    80004490:	0000                	unimp
    80004492:	0000                	unimp
    80004494:	0000                	unimp
    80004496:	0000                	unimp
    80004498:	0000                	unimp
    8000449a:	0000                	unimp
    8000449c:	0000                	unimp
    8000449e:	0000                	unimp
    800044a0:	0000                	unimp
    800044a2:	0000                	unimp
    800044a4:	0000                	unimp
    800044a6:	0000                	unimp
    800044a8:	0000                	unimp
    800044aa:	0000                	unimp
    800044ac:	0000                	unimp
    800044ae:	0000                	unimp
    800044b0:	0000                	unimp
    800044b2:	0000                	unimp
    800044b4:	0000                	unimp
    800044b6:	0000                	unimp
    800044b8:	0000                	unimp
    800044ba:	0000                	unimp
    800044bc:	0000                	unimp
    800044be:	0000                	unimp
    800044c0:	0000                	unimp
    800044c2:	0000                	unimp
    800044c4:	0000                	unimp
    800044c6:	0000                	unimp
    800044c8:	0000                	unimp
    800044ca:	0000                	unimp
    800044cc:	0000                	unimp
    800044ce:	0000                	unimp
    800044d0:	0000                	unimp
    800044d2:	0000                	unimp
    800044d4:	0000                	unimp
    800044d6:	0000                	unimp
    800044d8:	0000                	unimp
    800044da:	0000                	unimp
    800044dc:	0000                	unimp
    800044de:	0000                	unimp
    800044e0:	0000                	unimp
    800044e2:	0000                	unimp
    800044e4:	0000                	unimp
    800044e6:	0000                	unimp
    800044e8:	0000                	unimp
    800044ea:	0000                	unimp
    800044ec:	0000                	unimp
    800044ee:	0000                	unimp
    800044f0:	0000                	unimp
    800044f2:	0000                	unimp
    800044f4:	0000                	unimp
    800044f6:	0000                	unimp
    800044f8:	0000                	unimp
    800044fa:	0000                	unimp
    800044fc:	0000                	unimp
    800044fe:	0000                	unimp
    80004500:	0000                	unimp
    80004502:	0000                	unimp
    80004504:	0000                	unimp
    80004506:	0000                	unimp
    80004508:	0000                	unimp
    8000450a:	0000                	unimp
    8000450c:	0000                	unimp
    8000450e:	0000                	unimp
    80004510:	0000                	unimp
    80004512:	0000                	unimp
    80004514:	0000                	unimp
    80004516:	0000                	unimp
    80004518:	0000                	unimp
    8000451a:	0000                	unimp
    8000451c:	0000                	unimp
    8000451e:	0000                	unimp
    80004520:	0000                	unimp
    80004522:	0000                	unimp
    80004524:	0000                	unimp
    80004526:	0000                	unimp
    80004528:	0000                	unimp
    8000452a:	0000                	unimp
    8000452c:	0000                	unimp
    8000452e:	0000                	unimp
    80004530:	0000                	unimp
    80004532:	0000                	unimp
    80004534:	0000                	unimp
    80004536:	0000                	unimp
    80004538:	0000                	unimp
    8000453a:	0000                	unimp
    8000453c:	0000                	unimp
    8000453e:	0000                	unimp
    80004540:	0000                	unimp
    80004542:	0000                	unimp
    80004544:	0000                	unimp
    80004546:	0000                	unimp
    80004548:	0000                	unimp
    8000454a:	0000                	unimp
    8000454c:	0000                	unimp
    8000454e:	0000                	unimp
    80004550:	0000                	unimp
    80004552:	0000                	unimp
    80004554:	0000                	unimp
    80004556:	0000                	unimp
    80004558:	0000                	unimp
    8000455a:	0000                	unimp
    8000455c:	0000                	unimp
    8000455e:	0000                	unimp
    80004560:	0000                	unimp
    80004562:	0000                	unimp
    80004564:	0000                	unimp
    80004566:	0000                	unimp
    80004568:	0000                	unimp
    8000456a:	0000                	unimp
    8000456c:	0000                	unimp
    8000456e:	0000                	unimp
    80004570:	0000                	unimp
    80004572:	0000                	unimp
    80004574:	0000                	unimp
    80004576:	0000                	unimp
    80004578:	0000                	unimp
    8000457a:	0000                	unimp
    8000457c:	0000                	unimp
    8000457e:	0000                	unimp
    80004580:	0000                	unimp
    80004582:	0000                	unimp
    80004584:	0000                	unimp
    80004586:	0000                	unimp
    80004588:	0000                	unimp
    8000458a:	0000                	unimp
    8000458c:	0000                	unimp
    8000458e:	0000                	unimp
    80004590:	0000                	unimp
    80004592:	0000                	unimp
    80004594:	0000                	unimp
    80004596:	0000                	unimp
    80004598:	0000                	unimp
    8000459a:	0000                	unimp
    8000459c:	0000                	unimp
    8000459e:	0000                	unimp
    800045a0:	0000                	unimp
    800045a2:	0000                	unimp
    800045a4:	0000                	unimp
    800045a6:	0000                	unimp
    800045a8:	0000                	unimp
    800045aa:	0000                	unimp
    800045ac:	0000                	unimp
    800045ae:	0000                	unimp
    800045b0:	0000                	unimp
    800045b2:	0000                	unimp
    800045b4:	0000                	unimp
    800045b6:	0000                	unimp
    800045b8:	0000                	unimp
    800045ba:	0000                	unimp
    800045bc:	0000                	unimp
    800045be:	0000                	unimp
    800045c0:	0000                	unimp
    800045c2:	0000                	unimp
    800045c4:	0000                	unimp
    800045c6:	0000                	unimp
    800045c8:	0000                	unimp
    800045ca:	0000                	unimp
    800045cc:	0000                	unimp
    800045ce:	0000                	unimp
    800045d0:	0000                	unimp
    800045d2:	0000                	unimp
    800045d4:	0000                	unimp
    800045d6:	0000                	unimp
    800045d8:	0000                	unimp
    800045da:	0000                	unimp
    800045dc:	0000                	unimp
    800045de:	0000                	unimp
    800045e0:	0000                	unimp
    800045e2:	0000                	unimp
    800045e4:	0000                	unimp
    800045e6:	0000                	unimp
    800045e8:	0000                	unimp
    800045ea:	0000                	unimp
    800045ec:	0000                	unimp
    800045ee:	0000                	unimp
    800045f0:	0000                	unimp
    800045f2:	0000                	unimp
    800045f4:	0000                	unimp
    800045f6:	0000                	unimp
    800045f8:	0000                	unimp
    800045fa:	0000                	unimp
    800045fc:	0000                	unimp
    800045fe:	0000                	unimp
    80004600:	0000                	unimp
    80004602:	0000                	unimp
    80004604:	0000                	unimp
    80004606:	0000                	unimp
    80004608:	0000                	unimp
    8000460a:	0000                	unimp
    8000460c:	0000                	unimp
    8000460e:	0000                	unimp
    80004610:	0000                	unimp
    80004612:	0000                	unimp
    80004614:	0000                	unimp
    80004616:	0000                	unimp
    80004618:	0000                	unimp
    8000461a:	0000                	unimp
    8000461c:	0000                	unimp
    8000461e:	0000                	unimp
    80004620:	0000                	unimp
    80004622:	0000                	unimp
    80004624:	0000                	unimp
    80004626:	0000                	unimp
    80004628:	0000                	unimp
    8000462a:	0000                	unimp
    8000462c:	0000                	unimp
    8000462e:	0000                	unimp
    80004630:	0000                	unimp
    80004632:	0000                	unimp
    80004634:	0000                	unimp
    80004636:	0000                	unimp
    80004638:	0000                	unimp
    8000463a:	0000                	unimp
    8000463c:	0000                	unimp
    8000463e:	0000                	unimp
    80004640:	0000                	unimp
    80004642:	0000                	unimp
    80004644:	0000                	unimp
    80004646:	0000                	unimp
    80004648:	0000                	unimp
    8000464a:	0000                	unimp
    8000464c:	0000                	unimp
    8000464e:	0000                	unimp
    80004650:	0000                	unimp
    80004652:	0000                	unimp
    80004654:	0000                	unimp
    80004656:	0000                	unimp
    80004658:	0000                	unimp
    8000465a:	0000                	unimp
    8000465c:	0000                	unimp
    8000465e:	0000                	unimp
    80004660:	0000                	unimp
    80004662:	0000                	unimp
    80004664:	0000                	unimp
    80004666:	0000                	unimp
    80004668:	0000                	unimp
    8000466a:	0000                	unimp
    8000466c:	0000                	unimp
    8000466e:	0000                	unimp
    80004670:	0000                	unimp
    80004672:	0000                	unimp
    80004674:	0000                	unimp
    80004676:	0000                	unimp
    80004678:	0000                	unimp
    8000467a:	0000                	unimp
    8000467c:	0000                	unimp
    8000467e:	0000                	unimp
    80004680:	0000                	unimp
    80004682:	0000                	unimp
    80004684:	0000                	unimp
    80004686:	0000                	unimp
    80004688:	0000                	unimp
    8000468a:	0000                	unimp
    8000468c:	0000                	unimp
    8000468e:	0000                	unimp
    80004690:	0000                	unimp
    80004692:	0000                	unimp
    80004694:	0000                	unimp
    80004696:	0000                	unimp
    80004698:	0000                	unimp
    8000469a:	0000                	unimp
    8000469c:	0000                	unimp
    8000469e:	0000                	unimp
    800046a0:	0000                	unimp
    800046a2:	0000                	unimp
    800046a4:	0000                	unimp
    800046a6:	0000                	unimp
    800046a8:	0000                	unimp
    800046aa:	0000                	unimp
    800046ac:	0000                	unimp
    800046ae:	0000                	unimp
    800046b0:	0000                	unimp
    800046b2:	0000                	unimp
    800046b4:	0000                	unimp
    800046b6:	0000                	unimp
    800046b8:	0000                	unimp
    800046ba:	0000                	unimp
    800046bc:	0000                	unimp
    800046be:	0000                	unimp
    800046c0:	0000                	unimp
    800046c2:	0000                	unimp
    800046c4:	0000                	unimp
    800046c6:	0000                	unimp
    800046c8:	0000                	unimp
    800046ca:	0000                	unimp
    800046cc:	0000                	unimp
    800046ce:	0000                	unimp
    800046d0:	0000                	unimp
    800046d2:	0000                	unimp
    800046d4:	0000                	unimp
    800046d6:	0000                	unimp
    800046d8:	0000                	unimp
    800046da:	0000                	unimp
    800046dc:	0000                	unimp
    800046de:	0000                	unimp
    800046e0:	0000                	unimp
    800046e2:	0000                	unimp
    800046e4:	0000                	unimp
    800046e6:	0000                	unimp
    800046e8:	0000                	unimp
    800046ea:	0000                	unimp
    800046ec:	0000                	unimp
    800046ee:	0000                	unimp
    800046f0:	0000                	unimp
    800046f2:	0000                	unimp
    800046f4:	0000                	unimp
    800046f6:	0000                	unimp
    800046f8:	0000                	unimp
    800046fa:	0000                	unimp
    800046fc:	0000                	unimp
    800046fe:	0000                	unimp
    80004700:	0000                	unimp
    80004702:	0000                	unimp
    80004704:	0000                	unimp
    80004706:	0000                	unimp
    80004708:	0000                	unimp
    8000470a:	0000                	unimp
    8000470c:	0000                	unimp
    8000470e:	0000                	unimp
    80004710:	0000                	unimp
    80004712:	0000                	unimp
    80004714:	0000                	unimp
    80004716:	0000                	unimp
    80004718:	0000                	unimp
    8000471a:	0000                	unimp
    8000471c:	0000                	unimp
    8000471e:	0000                	unimp
    80004720:	0000                	unimp
    80004722:	0000                	unimp
    80004724:	0000                	unimp
    80004726:	0000                	unimp
    80004728:	0000                	unimp
    8000472a:	0000                	unimp
    8000472c:	0000                	unimp
    8000472e:	0000                	unimp
    80004730:	0000                	unimp
    80004732:	0000                	unimp
    80004734:	0000                	unimp
    80004736:	0000                	unimp
    80004738:	0000                	unimp
    8000473a:	0000                	unimp
    8000473c:	0000                	unimp
    8000473e:	0000                	unimp
    80004740:	0000                	unimp
    80004742:	0000                	unimp
    80004744:	0000                	unimp
    80004746:	0000                	unimp
    80004748:	0000                	unimp
    8000474a:	0000                	unimp
    8000474c:	0000                	unimp
    8000474e:	0000                	unimp
    80004750:	0000                	unimp
    80004752:	0000                	unimp
    80004754:	0000                	unimp
    80004756:	0000                	unimp
    80004758:	0000                	unimp
    8000475a:	0000                	unimp
    8000475c:	0000                	unimp
    8000475e:	0000                	unimp
    80004760:	0000                	unimp
    80004762:	0000                	unimp
    80004764:	0000                	unimp
    80004766:	0000                	unimp
    80004768:	0000                	unimp
    8000476a:	0000                	unimp
    8000476c:	0000                	unimp
    8000476e:	0000                	unimp
    80004770:	0000                	unimp
    80004772:	0000                	unimp
    80004774:	0000                	unimp
    80004776:	0000                	unimp
    80004778:	0000                	unimp
    8000477a:	0000                	unimp
    8000477c:	0000                	unimp
    8000477e:	0000                	unimp
    80004780:	0000                	unimp
    80004782:	0000                	unimp
    80004784:	0000                	unimp
    80004786:	0000                	unimp
    80004788:	0000                	unimp
    8000478a:	0000                	unimp
    8000478c:	0000                	unimp
    8000478e:	0000                	unimp
    80004790:	0000                	unimp
    80004792:	0000                	unimp
    80004794:	0000                	unimp
    80004796:	0000                	unimp
    80004798:	0000                	unimp
    8000479a:	0000                	unimp
    8000479c:	0000                	unimp
    8000479e:	0000                	unimp
    800047a0:	0000                	unimp
    800047a2:	0000                	unimp
    800047a4:	0000                	unimp
    800047a6:	0000                	unimp
    800047a8:	0000                	unimp
    800047aa:	0000                	unimp
    800047ac:	0000                	unimp
    800047ae:	0000                	unimp
    800047b0:	0000                	unimp
    800047b2:	0000                	unimp
    800047b4:	0000                	unimp
    800047b6:	0000                	unimp
    800047b8:	0000                	unimp
    800047ba:	0000                	unimp
    800047bc:	0000                	unimp
    800047be:	0000                	unimp
    800047c0:	0000                	unimp
    800047c2:	0000                	unimp
    800047c4:	0000                	unimp
    800047c6:	0000                	unimp
    800047c8:	0000                	unimp
    800047ca:	0000                	unimp
    800047cc:	0000                	unimp
    800047ce:	0000                	unimp
    800047d0:	0000                	unimp
    800047d2:	0000                	unimp
    800047d4:	0000                	unimp
    800047d6:	0000                	unimp
    800047d8:	0000                	unimp
    800047da:	0000                	unimp
    800047dc:	0000                	unimp
    800047de:	0000                	unimp
    800047e0:	0000                	unimp
    800047e2:	0000                	unimp
    800047e4:	0000                	unimp
    800047e6:	0000                	unimp
    800047e8:	0000                	unimp
    800047ea:	0000                	unimp
    800047ec:	0000                	unimp
    800047ee:	0000                	unimp
    800047f0:	0000                	unimp
    800047f2:	0000                	unimp
    800047f4:	0000                	unimp
    800047f6:	0000                	unimp
    800047f8:	0000                	unimp
    800047fa:	0000                	unimp
    800047fc:	0000                	unimp
    800047fe:	0000                	unimp
    80004800:	0000                	unimp
    80004802:	0000                	unimp
    80004804:	0000                	unimp
    80004806:	0000                	unimp
    80004808:	0000                	unimp
    8000480a:	0000                	unimp
    8000480c:	0000                	unimp
    8000480e:	0000                	unimp
    80004810:	0000                	unimp
    80004812:	0000                	unimp
    80004814:	0000                	unimp
    80004816:	0000                	unimp
    80004818:	0000                	unimp
    8000481a:	0000                	unimp
    8000481c:	0000                	unimp
    8000481e:	0000                	unimp
    80004820:	0000                	unimp
    80004822:	0000                	unimp
    80004824:	0000                	unimp
    80004826:	0000                	unimp
    80004828:	0000                	unimp
    8000482a:	0000                	unimp
    8000482c:	0000                	unimp
    8000482e:	0000                	unimp
    80004830:	0000                	unimp
    80004832:	0000                	unimp
    80004834:	0000                	unimp
    80004836:	0000                	unimp
    80004838:	0000                	unimp
    8000483a:	0000                	unimp
    8000483c:	0000                	unimp
    8000483e:	0000                	unimp
    80004840:	0000                	unimp
    80004842:	0000                	unimp
    80004844:	0000                	unimp
    80004846:	0000                	unimp
    80004848:	0000                	unimp
    8000484a:	0000                	unimp
    8000484c:	0000                	unimp
    8000484e:	0000                	unimp
    80004850:	0000                	unimp
    80004852:	0000                	unimp
    80004854:	0000                	unimp
    80004856:	0000                	unimp
    80004858:	0000                	unimp
    8000485a:	0000                	unimp
    8000485c:	0000                	unimp
    8000485e:	0000                	unimp
    80004860:	0000                	unimp
    80004862:	0000                	unimp
    80004864:	0000                	unimp
    80004866:	0000                	unimp
    80004868:	0000                	unimp
    8000486a:	0000                	unimp
    8000486c:	0000                	unimp
    8000486e:	0000                	unimp
    80004870:	0000                	unimp
    80004872:	0000                	unimp
    80004874:	0000                	unimp
    80004876:	0000                	unimp
    80004878:	0000                	unimp
    8000487a:	0000                	unimp
    8000487c:	0000                	unimp
    8000487e:	0000                	unimp
    80004880:	0000                	unimp
    80004882:	0000                	unimp
    80004884:	0000                	unimp
    80004886:	0000                	unimp
    80004888:	0000                	unimp
    8000488a:	0000                	unimp
    8000488c:	0000                	unimp
    8000488e:	0000                	unimp
    80004890:	0000                	unimp
    80004892:	0000                	unimp
    80004894:	0000                	unimp
    80004896:	0000                	unimp
    80004898:	0000                	unimp
    8000489a:	0000                	unimp
    8000489c:	0000                	unimp
    8000489e:	0000                	unimp
    800048a0:	0000                	unimp
    800048a2:	0000                	unimp
    800048a4:	0000                	unimp
    800048a6:	0000                	unimp
    800048a8:	0000                	unimp
    800048aa:	0000                	unimp
    800048ac:	0000                	unimp
    800048ae:	0000                	unimp
    800048b0:	0000                	unimp
    800048b2:	0000                	unimp
    800048b4:	0000                	unimp
    800048b6:	0000                	unimp
    800048b8:	0000                	unimp
    800048ba:	0000                	unimp
    800048bc:	0000                	unimp
    800048be:	0000                	unimp
    800048c0:	0000                	unimp
    800048c2:	0000                	unimp
    800048c4:	0000                	unimp
    800048c6:	0000                	unimp
    800048c8:	0000                	unimp
    800048ca:	0000                	unimp
    800048cc:	0000                	unimp
    800048ce:	0000                	unimp
    800048d0:	0000                	unimp
    800048d2:	0000                	unimp
    800048d4:	0000                	unimp
    800048d6:	0000                	unimp
    800048d8:	0000                	unimp
    800048da:	0000                	unimp
    800048dc:	0000                	unimp
    800048de:	0000                	unimp
    800048e0:	0000                	unimp
    800048e2:	0000                	unimp
    800048e4:	0000                	unimp
    800048e6:	0000                	unimp
    800048e8:	0000                	unimp
    800048ea:	0000                	unimp
    800048ec:	0000                	unimp
    800048ee:	0000                	unimp
    800048f0:	0000                	unimp
    800048f2:	0000                	unimp
    800048f4:	0000                	unimp
    800048f6:	0000                	unimp
    800048f8:	0000                	unimp
    800048fa:	0000                	unimp
    800048fc:	0000                	unimp
    800048fe:	0000                	unimp
    80004900:	0000                	unimp
    80004902:	0000                	unimp
    80004904:	0000                	unimp
    80004906:	0000                	unimp
    80004908:	0000                	unimp
    8000490a:	0000                	unimp
    8000490c:	0000                	unimp
    8000490e:	0000                	unimp
    80004910:	0000                	unimp
    80004912:	0000                	unimp
    80004914:	0000                	unimp
    80004916:	0000                	unimp
    80004918:	0000                	unimp
    8000491a:	0000                	unimp
    8000491c:	0000                	unimp
    8000491e:	0000                	unimp
    80004920:	0000                	unimp
    80004922:	0000                	unimp
    80004924:	0000                	unimp
    80004926:	0000                	unimp
    80004928:	0000                	unimp
    8000492a:	0000                	unimp
    8000492c:	0000                	unimp
    8000492e:	0000                	unimp
    80004930:	0000                	unimp
    80004932:	0000                	unimp
    80004934:	0000                	unimp
    80004936:	0000                	unimp
    80004938:	0000                	unimp
    8000493a:	0000                	unimp
    8000493c:	0000                	unimp
    8000493e:	0000                	unimp
    80004940:	0000                	unimp
    80004942:	0000                	unimp
    80004944:	0000                	unimp
    80004946:	0000                	unimp
    80004948:	0000                	unimp
    8000494a:	0000                	unimp
    8000494c:	0000                	unimp
    8000494e:	0000                	unimp
    80004950:	0000                	unimp
    80004952:	0000                	unimp
    80004954:	0000                	unimp
    80004956:	0000                	unimp
    80004958:	0000                	unimp
    8000495a:	0000                	unimp
    8000495c:	0000                	unimp
    8000495e:	0000                	unimp
    80004960:	0000                	unimp
    80004962:	0000                	unimp
    80004964:	0000                	unimp
    80004966:	0000                	unimp
    80004968:	0000                	unimp
    8000496a:	0000                	unimp
    8000496c:	0000                	unimp
    8000496e:	0000                	unimp
    80004970:	0000                	unimp
    80004972:	0000                	unimp
    80004974:	0000                	unimp
    80004976:	0000                	unimp
    80004978:	0000                	unimp
    8000497a:	0000                	unimp
    8000497c:	0000                	unimp
    8000497e:	0000                	unimp
    80004980:	0000                	unimp
    80004982:	0000                	unimp
    80004984:	0000                	unimp
    80004986:	0000                	unimp
    80004988:	0000                	unimp
    8000498a:	0000                	unimp
    8000498c:	0000                	unimp
    8000498e:	0000                	unimp
    80004990:	0000                	unimp
    80004992:	0000                	unimp
    80004994:	0000                	unimp
    80004996:	0000                	unimp
    80004998:	0000                	unimp
    8000499a:	0000                	unimp
    8000499c:	0000                	unimp
    8000499e:	0000                	unimp
    800049a0:	0000                	unimp
    800049a2:	0000                	unimp
    800049a4:	0000                	unimp
    800049a6:	0000                	unimp
    800049a8:	0000                	unimp
    800049aa:	0000                	unimp
    800049ac:	0000                	unimp
    800049ae:	0000                	unimp
    800049b0:	0000                	unimp
    800049b2:	0000                	unimp
    800049b4:	0000                	unimp
    800049b6:	0000                	unimp
    800049b8:	0000                	unimp
    800049ba:	0000                	unimp
    800049bc:	0000                	unimp
    800049be:	0000                	unimp
    800049c0:	0000                	unimp
    800049c2:	0000                	unimp
    800049c4:	0000                	unimp
    800049c6:	0000                	unimp
    800049c8:	0000                	unimp
    800049ca:	0000                	unimp
    800049cc:	0000                	unimp
    800049ce:	0000                	unimp
    800049d0:	0000                	unimp
    800049d2:	0000                	unimp
    800049d4:	0000                	unimp
    800049d6:	0000                	unimp
    800049d8:	0000                	unimp
    800049da:	0000                	unimp
    800049dc:	0000                	unimp
    800049de:	0000                	unimp
    800049e0:	0000                	unimp
    800049e2:	0000                	unimp
    800049e4:	0000                	unimp
    800049e6:	0000                	unimp
    800049e8:	0000                	unimp
    800049ea:	0000                	unimp
    800049ec:	0000                	unimp
    800049ee:	0000                	unimp
    800049f0:	0000                	unimp
    800049f2:	0000                	unimp
    800049f4:	0000                	unimp
    800049f6:	0000                	unimp
    800049f8:	0000                	unimp
    800049fa:	0000                	unimp
    800049fc:	0000                	unimp
    800049fe:	0000                	unimp
    80004a00:	0000                	unimp
    80004a02:	0000                	unimp
    80004a04:	0000                	unimp
    80004a06:	0000                	unimp
    80004a08:	0000                	unimp
    80004a0a:	0000                	unimp
    80004a0c:	0000                	unimp
    80004a0e:	0000                	unimp
    80004a10:	0000                	unimp
    80004a12:	0000                	unimp
    80004a14:	0000                	unimp
    80004a16:	0000                	unimp
    80004a18:	0000                	unimp
    80004a1a:	0000                	unimp
    80004a1c:	0000                	unimp
    80004a1e:	0000                	unimp
    80004a20:	0000                	unimp
    80004a22:	0000                	unimp
    80004a24:	0000                	unimp
    80004a26:	0000                	unimp
    80004a28:	0000                	unimp
    80004a2a:	0000                	unimp
    80004a2c:	0000                	unimp
    80004a2e:	0000                	unimp
    80004a30:	0000                	unimp
    80004a32:	0000                	unimp
    80004a34:	0000                	unimp
    80004a36:	0000                	unimp
    80004a38:	0000                	unimp
    80004a3a:	0000                	unimp
    80004a3c:	0000                	unimp
    80004a3e:	0000                	unimp
    80004a40:	0000                	unimp
    80004a42:	0000                	unimp
    80004a44:	0000                	unimp
    80004a46:	0000                	unimp
    80004a48:	0000                	unimp
    80004a4a:	0000                	unimp
    80004a4c:	0000                	unimp
    80004a4e:	0000                	unimp
    80004a50:	0000                	unimp
    80004a52:	0000                	unimp
    80004a54:	0000                	unimp
    80004a56:	0000                	unimp
    80004a58:	0000                	unimp
    80004a5a:	0000                	unimp
    80004a5c:	0000                	unimp
    80004a5e:	0000                	unimp
    80004a60:	0000                	unimp
    80004a62:	0000                	unimp
    80004a64:	0000                	unimp
    80004a66:	0000                	unimp
    80004a68:	0000                	unimp
    80004a6a:	0000                	unimp
    80004a6c:	0000                	unimp
    80004a6e:	0000                	unimp
    80004a70:	0000                	unimp
    80004a72:	0000                	unimp
    80004a74:	0000                	unimp
    80004a76:	0000                	unimp
    80004a78:	0000                	unimp
    80004a7a:	0000                	unimp
    80004a7c:	0000                	unimp
    80004a7e:	0000                	unimp
    80004a80:	0000                	unimp
    80004a82:	0000                	unimp
    80004a84:	0000                	unimp
    80004a86:	0000                	unimp
    80004a88:	0000                	unimp
    80004a8a:	0000                	unimp
    80004a8c:	0000                	unimp
    80004a8e:	0000                	unimp
    80004a90:	0000                	unimp
    80004a92:	0000                	unimp
    80004a94:	0000                	unimp
    80004a96:	0000                	unimp
    80004a98:	0000                	unimp
    80004a9a:	0000                	unimp
    80004a9c:	0000                	unimp
    80004a9e:	0000                	unimp
    80004aa0:	0000                	unimp
    80004aa2:	0000                	unimp
    80004aa4:	0000                	unimp
    80004aa6:	0000                	unimp
    80004aa8:	0000                	unimp
    80004aaa:	0000                	unimp
    80004aac:	0000                	unimp
    80004aae:	0000                	unimp
    80004ab0:	0000                	unimp
    80004ab2:	0000                	unimp
    80004ab4:	0000                	unimp
    80004ab6:	0000                	unimp
    80004ab8:	0000                	unimp
    80004aba:	0000                	unimp
    80004abc:	0000                	unimp
    80004abe:	0000                	unimp
    80004ac0:	0000                	unimp
    80004ac2:	0000                	unimp
    80004ac4:	0000                	unimp
    80004ac6:	0000                	unimp
    80004ac8:	0000                	unimp
    80004aca:	0000                	unimp
    80004acc:	0000                	unimp
    80004ace:	0000                	unimp
    80004ad0:	0000                	unimp
    80004ad2:	0000                	unimp
    80004ad4:	0000                	unimp
    80004ad6:	0000                	unimp
    80004ad8:	0000                	unimp
    80004ada:	0000                	unimp
    80004adc:	0000                	unimp
    80004ade:	0000                	unimp
    80004ae0:	0000                	unimp
    80004ae2:	0000                	unimp
    80004ae4:	0000                	unimp
    80004ae6:	0000                	unimp
    80004ae8:	0000                	unimp
    80004aea:	0000                	unimp
    80004aec:	0000                	unimp
    80004aee:	0000                	unimp
    80004af0:	0000                	unimp
    80004af2:	0000                	unimp
    80004af4:	0000                	unimp
    80004af6:	0000                	unimp
    80004af8:	0000                	unimp
    80004afa:	0000                	unimp
    80004afc:	0000                	unimp
    80004afe:	0000                	unimp
    80004b00:	0000                	unimp
    80004b02:	0000                	unimp
    80004b04:	0000                	unimp
    80004b06:	0000                	unimp
    80004b08:	0000                	unimp
    80004b0a:	0000                	unimp
    80004b0c:	0000                	unimp
    80004b0e:	0000                	unimp
    80004b10:	0000                	unimp
    80004b12:	0000                	unimp
    80004b14:	0000                	unimp
    80004b16:	0000                	unimp
    80004b18:	0000                	unimp
    80004b1a:	0000                	unimp
    80004b1c:	0000                	unimp
    80004b1e:	0000                	unimp
    80004b20:	0000                	unimp
    80004b22:	0000                	unimp
    80004b24:	0000                	unimp
    80004b26:	0000                	unimp
    80004b28:	0000                	unimp
    80004b2a:	0000                	unimp
    80004b2c:	0000                	unimp
    80004b2e:	0000                	unimp
    80004b30:	0000                	unimp
    80004b32:	0000                	unimp
    80004b34:	0000                	unimp
    80004b36:	0000                	unimp
    80004b38:	0000                	unimp
    80004b3a:	0000                	unimp
    80004b3c:	0000                	unimp
    80004b3e:	0000                	unimp
    80004b40:	0000                	unimp
    80004b42:	0000                	unimp
    80004b44:	0000                	unimp
    80004b46:	0000                	unimp
    80004b48:	0000                	unimp
    80004b4a:	0000                	unimp
    80004b4c:	0000                	unimp
    80004b4e:	0000                	unimp
    80004b50:	0000                	unimp
    80004b52:	0000                	unimp
    80004b54:	0000                	unimp
    80004b56:	0000                	unimp
    80004b58:	0000                	unimp
    80004b5a:	0000                	unimp
    80004b5c:	0000                	unimp
    80004b5e:	0000                	unimp
    80004b60:	0000                	unimp
